; Listing generated by Microsoft (R) Optimizing Compiler Version 19.28.29914.0 

	TITLE	C:\TouchGFXProjects\Brainiac\build\Debug\obj\image_Elon.obj
	.686P
	.XMM
	include listing.inc
	.model	flat

INCLUDELIB MSVCRTD
INCLUDELIB OLDNAMES

PUBLIC	?image_elon@@3QBEB				; image_elon
CONST	SEGMENT
?image_elon@@3QBEB DB 0dH				; image_elon
	DB	04bH
	DB	0eH
	DB	04bH
	DB	0eH
	DB	04bH
	DB	0eH
	DB	04bH
	DB	0eH
	DB	04bH
	DB	0eH
	DB	053H
	DB	0dH
	DB	04bH
	DB	0eH
	DB	04bH
	DB	0eH
	DB	053H
	DB	02eH
	DB	04bH
	DB	02eH
	DB	053H
	DB	02eH
	DB	053H
	DB	0eH
	DB	04bH
	DB	02eH
	DB	04bH
	DB	02eH
	DB	04bH
	DB	02eH
	DB	053H
	DB	02eH
	DB	04bH
	DB	02eH
	DB	04bH
	DB	02eH
	DB	053H
	DB	02eH
	DB	04bH
	DB	02eH
	DB	04bH
	DB	02eH
	DB	053H
	DB	02fH
	DB	053H
	DB	02eH
	DB	04bH
	DB	02eH
	DB	04bH
	DB	02eH
	DB	053H
	DB	02eH
	DB	053H
	DB	02eH
	DB	053H
	DB	02eH
	DB	04bH
	DB	02eH
	DB	053H
	DB	02fH
	DB	053H
	DB	02eH
	DB	053H
	DB	02eH
	DB	053H
	DB	02fH
	DB	053H
	DB	02eH
	DB	053H
	DB	02eH
	DB	053H
	DB	02eH
	DB	053H
	DB	02eH
	DB	053H
	DB	02fH
	DB	053H
	DB	02eH
	DB	053H
	DB	02eH
	DB	053H
	DB	04fH
	DB	053H
	DB	02eH
	DB	053H
	DB	02eH
	DB	053H
	DB	04fH
	DB	053H
	DB	04fH
	DB	053H
	DB	04fH
	DB	053H
	DB	02eH
	DB	053H
	DB	02eH
	DB	053H
	DB	04fH
	DB	053H
	DB	04fH
	DB	053H
	DB	02eH
	DB	053H
	DB	04fH
	DB	053H
	DB	04fH
	DB	053H
	DB	02eH
	DB	053H
	DB	04fH
	DB	053H
	DB	04fH
	DB	053H
	DB	04fH
	DB	053H
	DB	04fH
	DB	053H
	DB	04fH
	DB	053H
	DB	04fH
	DB	053H
	DB	04fH
	DB	053H
	DB	04fH
	DB	053H
	DB	04fH
	DB	053H
	DB	04fH
	DB	053H
	DB	04fH
	DB	053H
	DB	04fH
	DB	053H
	DB	04fH
	DB	053H
	DB	04fH
	DB	053H
	DB	04fH
	DB	053H
	DB	04fH
	DB	053H
	DB	04fH
	DB	053H
	DB	04fH
	DB	053H
	DB	04fH
	DB	053H
	DB	04fH
	DB	053H
	DB	04fH
	DB	053H
	DB	06fH
	DB	053H
	DB	04fH
	DB	053H
	DB	06fH
	DB	05bH
	DB	04fH
	DB	053H
	DB	06fH
	DB	053H
	DB	04fH
	DB	053H
	DB	06fH
	DB	05bH
	DB	04fH
	DB	053H
	DB	04fH
	DB	053H
	DB	04fH
	DB	053H
	DB	06fH
	DB	05bH
	DB	06fH
	DB	053H
	DB	06fH
	DB	053H
	DB	06fH
	DB	05bH
	DB	06fH
	DB	053H
	DB	04fH
	DB	053H
	DB	06fH
	DB	05bH
	DB	06fH
	DB	05bH
	DB	06fH
	DB	053H
	DB	06fH
	DB	053H
	DB	06fH
	DB	053H
	DB	06fH
	DB	053H
	DB	06fH
	DB	053H
	DB	06fH
	DB	053H
	DB	06fH
	DB	053H
	DB	06fH
	DB	053H
	DB	06fH
	DB	053H
	DB	06fH
	DB	053H
	DB	06fH
	DB	05bH
	DB	04fH
	DB	053H
	DB	06fH
	DB	05bH
	DB	06fH
	DB	053H
	DB	06fH
	DB	053H
	DB	06fH
	DB	053H
	DB	04fH
	DB	053H
	DB	050H
	DB	053H
	DB	070H
	DB	053H
	DB	06fH
	DB	053H
	DB	070H
	DB	05bH
	DB	04fH
	DB	053H
	DB	06fH
	DB	053H
	DB	06fH
	DB	05bH
	DB	06fH
	DB	05bH
	DB	06fH
	DB	053H
	DB	06fH
	DB	053H
	DB	04fH
	DB	053H
	DB	04fH
	DB	053H
	DB	04fH
	DB	053H
	DB	06fH
	DB	053H
	DB	04fH
	DB	053H
	DB	06fH
	DB	05bH
	DB	06fH
	DB	053H
	DB	06fH
	DB	053H
	DB	04fH
	DB	053H
	DB	04fH
	DB	053H
	DB	04fH
	DB	053H
	DB	06fH
	DB	053H
	DB	04fH
	DB	053H
	DB	04fH
	DB	053H
	DB	04fH
	DB	053H
	DB	06fH
	DB	05bH
	DB	04fH
	DB	053H
	DB	06fH
	DB	053H
	DB	04fH
	DB	053H
	DB	04fH
	DB	053H
	DB	04fH
	DB	053H
	DB	04fH
	DB	053H
	DB	04fH
	DB	053H
	DB	04fH
	DB	053H
	DB	06fH
	DB	053H
	DB	04fH
	DB	053H
	DB	04fH
	DB	053H
	DB	04fH
	DB	053H
	DB	04fH
	DB	053H
	DB	04fH
	DB	053H
	DB	06fH
	DB	05bH
	DB	04fH
	DB	053H
	DB	04fH
	DB	053H
	DB	04fH
	DB	053H
	DB	04fH
	DB	053H
	DB	04fH
	DB	053H
	DB	04fH
	DB	053H
	DB	04fH
	DB	053H
	DB	04fH
	DB	053H
	DB	04fH
	DB	053H
	DB	04fH
	DB	053H
	DB	04eH
	DB	053H
	DB	02eH
	DB	053H
	DB	04fH
	DB	053H
	DB	04fH
	DB	053H
	DB	04fH
	DB	053H
	DB	04fH
	DB	053H
	DB	04eH
	DB	053H
	DB	04fH
	DB	053H
	DB	04fH
	DB	053H
	DB	04eH
	DB	053H
	DB	02eH
	DB	053H
	DB	02fH
	DB	053H
	DB	04fH
	DB	053H
	DB	02eH
	DB	053H
	DB	02eH
	DB	053H
	DB	02eH
	DB	053H
	DB	02eH
	DB	04bH
	DB	02fH
	DB	053H
	DB	0eH
	DB	04bH
	DB	0eH
	DB	053H
	DB	0eH
	DB	04bH
	DB	0dH
	DB	053H
	DB	02eH
	DB	053H
	DB	02eH
	DB	04bH
	DB	02eH
	DB	053H
	DB	0eH
	DB	053H
	DB	02eH
	DB	04bH
	DB	0eH
	DB	04bH
	DB	02eH
	DB	053H
	DB	0eH
	DB	04bH
	DB	02eH
	DB	04bH
	DB	02eH
	DB	053H
	DB	02eH
	DB	04bH
	DB	02eH
	DB	053H
	DB	02eH
	DB	04bH
	DB	02eH
	DB	053H
	DB	02eH
	DB	053H
	DB	02eH
	DB	04bH
	DB	02eH
	DB	053H
	DB	02eH
	DB	053H
	DB	02eH
	DB	053H
	DB	02eH
	DB	053H
	DB	02eH
	DB	053H
	DB	02eH
	DB	04bH
	DB	02fH
	DB	053H
	DB	02eH
	DB	053H
	DB	02eH
	DB	053H
	DB	02fH
	DB	053H
	DB	02eH
	DB	04bH
	DB	02eH
	DB	053H
	DB	04fH
	DB	053H
	DB	04eH
	DB	053H
	DB	04fH
	DB	053H
	DB	02eH
	DB	04bH
	DB	04fH
	DB	053H
	DB	04fH
	DB	053H
	DB	04fH
	DB	053H
	DB	04eH
	DB	053H
	DB	02eH
	DB	053H
	DB	04fH
	DB	053H
	DB	02fH
	DB	053H
	DB	04eH
	DB	053H
	DB	02eH
	DB	053H
	DB	04fH
	DB	053H
	DB	04fH
	DB	053H
	DB	04fH
	DB	053H
	DB	04fH
	DB	053H
	DB	04fH
	DB	053H
	DB	04fH
	DB	053H
	DB	04fH
	DB	053H
	DB	04fH
	DB	053H
	DB	04fH
	DB	053H
	DB	04fH
	DB	053H
	DB	04fH
	DB	053H
	DB	04fH
	DB	053H
	DB	04eH
	DB	053H
	DB	04fH
	DB	053H
	DB	04fH
	DB	053H
	DB	04eH
	DB	053H
	DB	04fH
	DB	053H
	DB	04fH
	DB	05bH
	DB	04fH
	DB	053H
	DB	04fH
	DB	053H
	DB	06fH
	DB	05bH
	DB	06fH
	DB	053H
	DB	04fH
	DB	05bH
	DB	06fH
	DB	053H
	DB	06fH
	DB	053H
	DB	06fH
	DB	05bH
	DB	06fH
	DB	05bH
	DB	04fH
	DB	053H
	DB	06fH
	DB	05bH
	DB	06fH
	DB	05bH
	DB	06fH
	DB	05bH
	DB	06fH
	DB	05bH
	DB	04fH
	DB	053H
	DB	06fH
	DB	05bH
	DB	06fH
	DB	05bH
	DB	06fH
	DB	05bH
	DB	04fH
	DB	053H
	DB	06fH
	DB	05bH
	DB	06fH
	DB	05bH
	DB	06fH
	DB	053H
	DB	04fH
	DB	053H
	DB	06fH
	DB	05bH
	DB	04fH
	DB	053H
	DB	06fH
	DB	05bH
	DB	06fH
	DB	05bH
	DB	06fH
	DB	05bH
	DB	04fH
	DB	053H
	DB	06fH
	DB	053H
	DB	06fH
	DB	053H
	DB	06fH
	DB	053H
	DB	06fH
	DB	053H
	DB	06fH
	DB	053H
	DB	06fH
	DB	053H
	DB	06fH
	DB	05bH
	DB	06fH
	DB	05bH
	DB	06fH
	DB	05bH
	DB	06fH
	DB	05bH
	DB	04fH
	DB	05bH
	DB	02eH
	DB	05bH
	DB	04eH
	DB	05bH
	DB	06fH
	DB	05bH
	DB	06fH
	DB	05bH
	DB	04eH
	DB	05bH
	DB	06fH
	DB	05bH
	DB	06fH
	DB	053H
	DB	04fH
	DB	053H
	DB	04fH
	DB	053H
	DB	06fH
	DB	05bH
	DB	06fH
	DB	053H
	DB	06fH
	DB	053H
	DB	06fH
	DB	05bH
	DB	06fH
	DB	053H
	DB	06fH
	DB	05bH
	DB	070H
	DB	05bH
	DB	06fH
	DB	05bH
	DB	06fH
	DB	05bH
	DB	04fH
	DB	053H
	DB	06fH
	DB	05bH
	DB	06fH
	DB	05bH
	DB	04fH
	DB	053H
	DB	04fH
	DB	053H
	DB	04fH
	DB	05bH
	DB	04fH
	DB	053H
	DB	06fH
	DB	05bH
	DB	06fH
	DB	05bH
	DB	06fH
	DB	05bH
	DB	06fH
	DB	05bH
	DB	04fH
	DB	053H
	DB	06fH
	DB	05bH
	DB	04fH
	DB	053H
	DB	06fH
	DB	053H
	DB	04fH
	DB	05bH
	DB	06fH
	DB	053H
	DB	04fH
	DB	053H
	DB	04fH
	DB	05bH
	DB	06fH
	DB	05bH
	DB	04fH
	DB	053H
	DB	06fH
	DB	053H
	DB	06fH
	DB	05bH
	DB	04fH
	DB	05bH
	DB	06fH
	DB	053H
	DB	06fH
	DB	05bH
	DB	06fH
	DB	05bH
	DB	04fH
	DB	053H
	DB	06fH
	DB	053H
	DB	06fH
	DB	05bH
	DB	06fH
	DB	053H
	DB	04fH
	DB	053H
	DB	06fH
	DB	05bH
	DB	06fH
	DB	053H
	DB	04fH
	DB	053H
	DB	04fH
	DB	053H
	DB	06fH
	DB	05bH
	DB	04fH
	DB	053H
	DB	04fH
	DB	053H
	DB	04fH
	DB	053H
	DB	04eH
	DB	053H
	DB	04fH
	DB	053H
	DB	04fH
	DB	053H
	DB	04fH
	DB	053H
	DB	04fH
	DB	053H
	DB	04fH
	DB	053H
	DB	06fH
	DB	053H
	DB	04fH
	DB	053H
	DB	04eH
	DB	053H
	DB	04fH
	DB	053H
	DB	04fH
	DB	053H
	DB	04eH
	DB	053H
	DB	04fH
	DB	053H
	DB	04fH
	DB	053H
	DB	02eH
	DB	053H
	DB	02eH
	DB	053H
	DB	04fH
	DB	053H
	DB	02eH
	DB	053H
	DB	04fH
	DB	053H
	DB	0eH
	DB	053H
	DB	0eH
	DB	04bH
	DB	02eH
	DB	053H
	DB	0eH
	DB	04bH
	DB	02eH
	DB	053H
	DB	0eH
	DB	04bH
	DB	02eH
	DB	053H
	DB	02eH
	DB	053H
	DB	02eH
	DB	053H
	DB	02eH
	DB	053H
	DB	02eH
	DB	053H
	DB	02eH
	DB	053H
	DB	02eH
	DB	053H
	DB	02eH
	DB	053H
	DB	02eH
	DB	053H
	DB	02eH
	DB	053H
	DB	02eH
	DB	04bH
	DB	02eH
	DB	053H
	DB	02eH
	DB	053H
	DB	02fH
	DB	053H
	DB	02fH
	DB	053H
	DB	02eH
	DB	053H
	DB	02fH
	DB	053H
	DB	04fH
	DB	053H
	DB	02eH
	DB	053H
	DB	02eH
	DB	04bH
	DB	02fH
	DB	053H
	DB	04fH
	DB	053H
	DB	04fH
	DB	053H
	DB	04fH
	DB	053H
	DB	04fH
	DB	053H
	DB	04eH
	DB	053H
	DB	04fH
	DB	053H
	DB	02fH
	DB	053H
	DB	02eH
	DB	04bH
	DB	04fH
	DB	053H
	DB	04fH
	DB	053H
	DB	04fH
	DB	053H
	DB	04eH
	DB	053H
	DB	04fH
	DB	053H
	DB	02fH
	DB	053H
	DB	04eH
	DB	053H
	DB	04fH
	DB	053H
	DB	04fH
	DB	053H
	DB	04fH
	DB	053H
	DB	04fH
	DB	053H
	DB	04fH
	DB	053H
	DB	04eH
	DB	053H
	DB	04fH
	DB	053H
	DB	04fH
	DB	053H
	DB	04fH
	DB	053H
	DB	04eH
	DB	053H
	DB	04fH
	DB	053H
	DB	04fH
	DB	053H
	DB	06fH
	DB	05bH
	DB	04fH
	DB	053H
	DB	04fH
	DB	053H
	DB	04fH
	DB	053H
	DB	06fH
	DB	05bH
	DB	04fH
	DB	053H
	DB	04fH
	DB	053H
	DB	06fH
	DB	05bH
	DB	06fH
	DB	05bH
	DB	06fH
	DB	053H
	DB	06fH
	DB	05bH
	DB	06fH
	DB	05bH
	DB	04fH
	DB	053H
	DB	06fH
	DB	05bH
	DB	06fH
	DB	05bH
	DB	06fH
	DB	05bH
	DB	06fH
	DB	05bH
	DB	06fH
	DB	053H
	DB	04fH
	DB	053H
	DB	06fH
	DB	05bH
	DB	06fH
	DB	053H
	DB	06fH
	DB	05bH
	DB	06fH
	DB	053H
	DB	06fH
	DB	053H
	DB	06fH
	DB	05bH
	DB	04fH
	DB	053H
	DB	06fH
	DB	053H
	DB	06fH
	DB	05bH
	DB	06fH
	DB	053H
	DB	06fH
	DB	053H
	DB	04fH
	DB	05bH
	DB	06fH
	DB	053H
	DB	06fH
	DB	05bH
	DB	06fH
	DB	05bH
	DB	04fH
	DB	053H
	DB	06fH
	DB	053H
	DB	06fH
	DB	05bH
	DB	06fH
	DB	05bH
	DB	06fH
	DB	05bH
	DB	06fH
	DB	05bH
	DB	070H
	DB	05bH
	DB	06fH
	DB	05bH
	DB	04fH
	DB	05bH
	DB	04eH
	DB	05bH
	DB	04eH
	DB	05bH
	DB	02eH
	DB	063H
	DB	0dH
	DB	05bH
	DB	0ccH
	DB	052H
	DB	08aH
	DB	04aH
	DB	049H
	DB	04aH
	DB	09H
	DB	042H
	DB	06aH
	DB	04aH
	DB	049H
	DB	04aH
	DB	04aH
	DB	042H
	DB	08bH
	DB	04aH
	DB	08bH
	DB	04aH
	DB	06aH
	DB	04aH
	DB	0abH
	DB	04aH
	DB	0abH
	DB	04aH
	DB	0ccH
	DB	052H
	DB	0dH
	DB	053H
	DB	04eH
	DB	053H
	DB	06fH
	DB	05bH
	DB	090H
	DB	05bH
	DB	06fH
	DB	05bH
	DB	06fH
	DB	05bH
	DB	06fH
	DB	05bH
	DB	06fH
	DB	053H
	DB	06fH
	DB	05bH
	DB	06fH
	DB	05bH
	DB	06fH
	DB	05bH
	DB	06fH
	DB	05bH
	DB	090H
	DB	05bH
	DB	06fH
	DB	05bH
	DB	06fH
	DB	053H
	DB	06fH
	DB	05bH
	DB	06fH
	DB	05bH
	DB	06fH
	DB	053H
	DB	06fH
	DB	05bH
	DB	06fH
	DB	05bH
	DB	06fH
	DB	05bH
	DB	06fH
	DB	05bH
	DB	06fH
	DB	053H
	DB	06fH
	DB	05bH
	DB	06fH
	DB	053H
	DB	04fH
	DB	053H
	DB	06fH
	DB	05bH
	DB	04fH
	DB	053H
	DB	06fH
	DB	05bH
	DB	04fH
	DB	053H
	DB	06fH
	DB	05bH
	DB	06fH
	DB	05bH
	DB	06fH
	DB	053H
	DB	04fH
	DB	053H
	DB	04fH
	DB	05bH
	DB	06fH
	DB	05bH
	DB	04fH
	DB	053H
	DB	06fH
	DB	05bH
	DB	06fH
	DB	05bH
	DB	06fH
	DB	05bH
	DB	04fH
	DB	053H
	DB	04fH
	DB	05bH
	DB	06fH
	DB	053H
	DB	04fH
	DB	053H
	DB	06fH
	DB	05bH
	DB	04fH
	DB	053H
	DB	04fH
	DB	053H
	DB	04fH
	DB	053H
	DB	04fH
	DB	053H
	DB	04fH
	DB	053H
	DB	04eH
	DB	053H
	DB	04fH
	DB	05bH
	DB	04eH
	DB	053H
	DB	04eH
	DB	053H
	DB	04fH
	DB	053H
	DB	04fH
	DB	053H
	DB	04fH
	DB	053H
	DB	04fH
	DB	053H
	DB	04eH
	DB	053H
	DB	04fH
	DB	053H
	DB	04fH
	DB	053H
	DB	04fH
	DB	053H
	DB	04fH
	DB	053H
	DB	04fH
	DB	053H
	DB	04fH
	DB	053H
	DB	04fH
	DB	053H
	DB	02eH
	DB	053H
	DB	0eH
	DB	04bH
	DB	02eH
	DB	04bH
	DB	02eH
	DB	053H
	DB	0dH
	DB	04bH
	DB	02eH
	DB	053H
	DB	02eH
	DB	04bH
	DB	0eH
	DB	04bH
	DB	02eH
	DB	053H
	DB	02eH
	DB	04bH
	DB	02eH
	DB	053H
	DB	02eH
	DB	053H
	DB	02eH
	DB	053H
	DB	02eH
	DB	04bH
	DB	02eH
	DB	04bH
	DB	02eH
	DB	053H
	DB	02eH
	DB	053H
	DB	04eH
	DB	053H
	DB	02eH
	DB	053H
	DB	04fH
	DB	053H
	DB	02eH
	DB	04bH
	DB	04fH
	DB	053H
	DB	04fH
	DB	053H
	DB	04fH
	DB	053H
	DB	02eH
	DB	053H
	DB	02eH
	DB	053H
	DB	02fH
	DB	053H
	DB	04fH
	DB	053H
	DB	04eH
	DB	053H
	DB	04eH
	DB	053H
	DB	02fH
	DB	053H
	DB	04fH
	DB	053H
	DB	02eH
	DB	053H
	DB	04fH
	DB	053H
	DB	04fH
	DB	053H
	DB	04fH
	DB	053H
	DB	04fH
	DB	053H
	DB	04eH
	DB	053H
	DB	04fH
	DB	053H
	DB	04fH
	DB	053H
	DB	04fH
	DB	053H
	DB	04fH
	DB	053H
	DB	04fH
	DB	053H
	DB	04fH
	DB	053H
	DB	06fH
	DB	053H
	DB	04fH
	DB	053H
	DB	04fH
	DB	053H
	DB	06fH
	DB	05bH
	DB	06fH
	DB	053H
	DB	04fH
	DB	053H
	DB	04fH
	DB	05bH
	DB	04fH
	DB	053H
	DB	06fH
	DB	05bH
	DB	04eH
	DB	053H
	DB	06fH
	DB	05bH
	DB	06fH
	DB	05bH
	DB	06fH
	DB	053H
	DB	04fH
	DB	053H
	DB	06fH
	DB	05bH
	DB	06fH
	DB	05bH
	DB	04fH
	DB	053H
	DB	06fH
	DB	05bH
	DB	06fH
	DB	053H
	DB	06fH
	DB	053H
	DB	04fH
	DB	053H
	DB	06fH
	DB	05bH
	DB	06fH
	DB	053H
	DB	06fH
	DB	053H
	DB	06fH
	DB	05bH
	DB	06fH
	DB	05bH
	DB	06fH
	DB	053H
	DB	06fH
	DB	05bH
	DB	06fH
	DB	05bH
	DB	06fH
	DB	053H
	DB	06fH
	DB	05bH
	DB	06fH
	DB	05bH
	DB	06fH
	DB	05bH
	DB	04fH
	DB	053H
	DB	06fH
	DB	05bH
	DB	06fH
	DB	053H
	DB	070H
	DB	05bH
	DB	070H
	DB	05bH
	DB	06fH
	DB	05bH
	DB	06fH
	DB	053H
	DB	06fH
	DB	05bH
	DB	06fH
	DB	05bH
	DB	070H
	DB	05bH
	DB	06fH
	DB	053H
	DB	06fH
	DB	05bH
	DB	070H
	DB	05bH
	DB	070H
	DB	05bH
	DB	06fH
	DB	05bH
	DB	090H
	DB	063H
	DB	06fH
	DB	063H
	DB	06fH
	DB	063H
	DB	04eH
	DB	06bH
	DB	0ecH
	DB	062H
	DB	08H
	DB	042H
	DB	08H
	DB	042H
	DB	08H
	DB	042H
	DB	086H
	DB	031H
	DB	045H
	DB	031H
	DB	04H
	DB	029H
	DB	0e4H
	DB	028H
	DB	045H
	DB	039H
	DB	045H
	DB	039H
	DB	065H
	DB	039H
	DB	04H
	DB	031H
	DB	0a3H
	DB	020H
	DB	0a4H
	DB	020H
	DB	05H
	DB	029H
	DB	025H
	DB	031H
	DB	045H
	DB	031H
	DB	05H
	DB	021H
	DB	0a7H
	DB	031H
	DB	0acH
	DB	04aH
	DB	04eH
	DB	05bH
	DB	08fH
	DB	05bH
	DB	06fH
	DB	05bH
	DB	090H
	DB	05bH
	DB	070H
	DB	05bH
	DB	06fH
	DB	05bH
	DB	090H
	DB	05bH
	DB	070H
	DB	05bH
	DB	06fH
	DB	053H
	DB	06fH
	DB	05bH
	DB	090H
	DB	05bH
	DB	090H
	DB	05bH
	DB	070H
	DB	05bH
	DB	090H
	DB	05bH
	DB	06fH
	DB	05bH
	DB	070H
	DB	05bH
	DB	06fH
	DB	05bH
	DB	070H
	DB	05bH
	DB	06fH
	DB	053H
	DB	06fH
	DB	05bH
	DB	06fH
	DB	05bH
	DB	06fH
	DB	05bH
	DB	06fH
	DB	05bH
	DB	06fH
	DB	05bH
	DB	06fH
	DB	05bH
	DB	06fH
	DB	053H
	DB	06fH
	DB	05bH
	DB	06fH
	DB	05bH
	DB	06fH
	DB	053H
	DB	06fH
	DB	053H
	DB	06fH
	DB	05bH
	DB	06fH
	DB	05bH
	DB	04fH
	DB	053H
	DB	06fH
	DB	053H
	DB	06fH
	DB	05bH
	DB	070H
	DB	05bH
	DB	06fH
	DB	053H
	DB	06fH
	DB	053H
	DB	04fH
	DB	053H
	DB	04fH
	DB	05bH
	DB	06fH
	DB	053H
	DB	04eH
	DB	053H
	DB	06fH
	DB	05bH
	DB	06fH
	DB	05bH
	DB	06fH
	DB	05bH
	DB	04fH
	DB	053H
	DB	06fH
	DB	05bH
	DB	04fH
	DB	053H
	DB	04fH
	DB	053H
	DB	06fH
	DB	05bH
	DB	04fH
	DB	053H
	DB	04fH
	DB	053H
	DB	04fH
	DB	053H
	DB	04fH
	DB	053H
	DB	04fH
	DB	053H
	DB	04fH
	DB	053H
	DB	04fH
	DB	053H
	DB	04fH
	DB	053H
	DB	04fH
	DB	053H
	DB	06fH
	DB	053H
	DB	04fH
	DB	053H
	DB	04fH
	DB	053H
	DB	04eH
	DB	053H
	DB	04fH
	DB	053H
	DB	02eH
	DB	053H
	DB	02eH
	DB	04bH
	DB	02eH
	DB	053H
	DB	02eH
	DB	04bH
	DB	02eH
	DB	04bH
	DB	02eH
	DB	053H
	DB	02eH
	DB	053H
	DB	02eH
	DB	04bH
	DB	02eH
	DB	053H
	DB	02eH
	DB	053H
	DB	02eH
	DB	04bH
	DB	02eH
	DB	053H
	DB	02fH
	DB	053H
	DB	02eH
	DB	053H
	DB	02eH
	DB	053H
	DB	02fH
	DB	053H
	DB	02eH
	DB	04bH
	DB	02fH
	DB	053H
	DB	02eH
	DB	053H
	DB	04eH
	DB	053H
	DB	02fH
	DB	053H
	DB	04eH
	DB	053H
	DB	04eH
	DB	053H
	DB	04fH
	DB	053H
	DB	04fH
	DB	053H
	DB	04fH
	DB	053H
	DB	04eH
	DB	053H
	DB	02eH
	DB	053H
	DB	04fH
	DB	053H
	DB	04fH
	DB	053H
	DB	04eH
	DB	053H
	DB	04fH
	DB	053H
	DB	04fH
	DB	053H
	DB	04fH
	DB	053H
	DB	04eH
	DB	053H
	DB	04fH
	DB	053H
	DB	04fH
	DB	053H
	DB	04fH
	DB	053H
	DB	04fH
	DB	053H
	DB	04fH
	DB	053H
	DB	06fH
	DB	053H
	DB	04fH
	DB	053H
	DB	04fH
	DB	053H
	DB	04fH
	DB	053H
	DB	04fH
	DB	053H
	DB	06fH
	DB	05bH
	DB	04fH
	DB	053H
	DB	06fH
	DB	05bH
	DB	04fH
	DB	053H
	DB	06fH
	DB	05bH
	DB	06fH
	DB	053H
	DB	06fH
	DB	053H
	DB	06fH
	DB	05bH
	DB	04fH
	DB	053H
	DB	06fH
	DB	053H
	DB	04fH
	DB	05bH
	DB	06fH
	DB	05bH
	DB	06fH
	DB	053H
	DB	06fH
	DB	05bH
	DB	04fH
	DB	053H
	DB	06fH
	DB	05bH
	DB	06fH
	DB	05bH
	DB	06fH
	DB	05bH
	DB	06fH
	DB	053H
	DB	06fH
	DB	05bH
	DB	06fH
	DB	05bH
	DB	06fH
	DB	05bH
	DB	04fH
	DB	053H
	DB	06fH
	DB	05bH
	DB	070H
	DB	05bH
	DB	06fH
	DB	053H
	DB	070H
	DB	05bH
	DB	06fH
	DB	05bH
	DB	070H
	DB	05bH
	DB	06fH
	DB	053H
	DB	06fH
	DB	05bH
	DB	070H
	DB	05bH
	DB	070H
	DB	05bH
	DB	06fH
	DB	05bH
	DB	06fH
	DB	05bH
	DB	06fH
	DB	05bH
	DB	070H
	DB	05bH
	DB	090H
	DB	053H
	DB	070H
	DB	05bH
	DB	090H
	DB	05bH
	DB	090H
	DB	05bH
	DB	08fH
	DB	05bH
	DB	08fH
	DB	063H
	DB	08fH
	DB	063H
	DB	04eH
	DB	063H
	DB	0cbH
	DB	052H
	DB	08aH
	DB	052H
	DB	049H
	DB	052H
	DB	029H
	DB	052H
	DB	049H
	DB	052H
	DB	069H
	DB	05aH
	DB	049H
	DB	052H
	DB	0e7H
	DB	049H
	DB	0e7H
	DB	049H
	DB	049H
	DB	05aH
	DB	0c7H
	DB	049H
	DB	045H
	DB	039H
	DB	04H
	DB	031H
	DB	065H
	DB	039H
	DB	0e7H
	DB	049H
	DB	0e7H
	DB	049H
	DB	049H
	DB	05aH
	DB	08aH
	DB	062H
	DB	049H
	DB	05aH
	DB	048H
	DB	05aH
	DB	0e7H
	DB	049H
	DB	07H
	DB	052H
	DB	08H
	DB	052H
	DB	0e7H
	DB	049H
	DB	0e8H
	DB	049H
	DB	0a7H
	DB	041H
	DB	0c7H
	DB	041H
	DB	08H
	DB	042H
	DB	06aH
	DB	052H
	DB	049H
	DB	04aH
	DB	08bH
	DB	04aH
	DB	0ccH
	DB	052H
	DB	02dH
	DB	05bH
	DB	04eH
	DB	05bH
	DB	06fH
	DB	05bH
	DB	090H
	DB	053H
	DB	070H
	DB	053H
	DB	090H
	DB	053H
	DB	08fH
	DB	053H
	DB	090H
	DB	05bH
	DB	070H
	DB	053H
	DB	090H
	DB	053H
	DB	06fH
	DB	053H
	DB	090H
	DB	05bH
	DB	06fH
	DB	05bH
	DB	070H
	DB	05bH
	DB	070H
	DB	05bH
	DB	06fH
	DB	053H
	DB	06fH
	DB	05bH
	DB	06fH
	DB	05bH
	DB	070H
	DB	05bH
	DB	06fH
	DB	053H
	DB	06fH
	DB	05bH
	DB	06fH
	DB	05bH
	DB	06fH
	DB	053H
	DB	06fH
	DB	05bH
	DB	070H
	DB	05bH
	DB	070H
	DB	05bH
	DB	06fH
	DB	05bH
	DB	06fH
	DB	05bH
	DB	06fH
	DB	053H
	DB	06fH
	DB	053H
	DB	06fH
	DB	05bH
	DB	06fH
	DB	05bH
	DB	06fH
	DB	053H
	DB	06fH
	DB	05bH
	DB	06fH
	DB	05bH
	DB	06fH
	DB	053H
	DB	06fH
	DB	053H
	DB	06fH
	DB	05bH
	DB	04fH
	DB	053H
	DB	04fH
	DB	053H
	DB	06fH
	DB	05bH
	DB	06fH
	DB	05bH
	DB	06fH
	DB	05bH
	DB	06fH
	DB	053H
	DB	04fH
	DB	053H
	DB	06fH
	DB	05bH
	DB	06fH
	DB	05bH
	DB	06fH
	DB	05bH
	DB	04fH
	DB	053H
	DB	04fH
	DB	053H
	DB	04fH
	DB	05bH
	DB	04fH
	DB	053H
	DB	06fH
	DB	053H
	DB	04fH
	DB	05bH
	DB	04fH
	DB	053H
	DB	04fH
	DB	053H
	DB	04fH
	DB	053H
	DB	04fH
	DB	053H
	DB	02eH
	DB	04bH
	DB	02eH
	DB	053H
	DB	0eH
	DB	053H
	DB	02eH
	DB	053H
	DB	02eH
	DB	053H
	DB	0eH
	DB	04bH
	DB	02eH
	DB	053H
	DB	02eH
	DB	053H
	DB	02eH
	DB	04bH
	DB	02fH
	DB	053H
	DB	02fH
	DB	053H
	DB	02eH
	DB	04bH
	DB	04fH
	DB	053H
	DB	04fH
	DB	053H
	DB	04eH
	DB	053H
	DB	04fH
	DB	053H
	DB	04fH
	DB	053H
	DB	04eH
	DB	053H
	DB	02fH
	DB	04bH
	DB	04fH
	DB	053H
	DB	02eH
	DB	053H
	DB	02fH
	DB	053H
	DB	02eH
	DB	053H
	DB	04fH
	DB	053H
	DB	04fH
	DB	053H
	DB	04fH
	DB	053H
	DB	04fH
	DB	053H
	DB	04fH
	DB	053H
	DB	04fH
	DB	053H
	DB	04eH
	DB	053H
	DB	04fH
	DB	053H
	DB	04fH
	DB	053H
	DB	04eH
	DB	053H
	DB	04fH
	DB	053H
	DB	04fH
	DB	053H
	DB	04fH
	DB	053H
	DB	04fH
	DB	053H
	DB	06fH
	DB	05bH
	DB	04fH
	DB	053H
	DB	04fH
	DB	053H
	DB	06fH
	DB	05bH
	DB	04fH
	DB	053H
	DB	06fH
	DB	053H
	DB	06fH
	DB	05bH
	DB	06fH
	DB	05bH
	DB	04fH
	DB	053H
	DB	06fH
	DB	053H
	DB	06fH
	DB	05bH
	DB	06fH
	DB	05bH
	DB	06fH
	DB	053H
	DB	04fH
	DB	053H
	DB	06fH
	DB	05bH
	DB	04fH
	DB	053H
	DB	04fH
	DB	053H
	DB	06fH
	DB	05bH
	DB	06fH
	DB	05bH
	DB	06fH
	DB	05bH
	DB	06fH
	DB	053H
	DB	06fH
	DB	053H
	DB	06fH
	DB	05bH
	DB	070H
	DB	05bH
	DB	06fH
	DB	05bH
	DB	070H
	DB	05bH
	DB	06fH
	DB	05bH
	DB	06fH
	DB	05bH
	DB	070H
	DB	05bH
	DB	06fH
	DB	053H
	DB	06fH
	DB	05bH
	DB	06fH
	DB	053H
	DB	06fH
	DB	053H
	DB	06fH
	DB	05bH
	DB	06fH
	DB	053H
	DB	06fH
	DB	05bH
	DB	070H
	DB	05bH
	DB	070H
	DB	05bH
	DB	06fH
	DB	053H
	DB	070H
	DB	05bH
	DB	090H
	DB	05bH
	DB	090H
	DB	05bH
	DB	06fH
	DB	05bH
	DB	090H
	DB	05bH
	DB	090H
	DB	05bH
	DB	06fH
	DB	053H
	DB	06fH
	DB	05bH
	DB	08fH
	DB	05bH
	DB	06eH
	DB	05bH
	DB	0dH
	DB	05bH
	DB	0ecH
	DB	05aH
	DB	0ecH
	DB	062H
	DB	049H
	DB	04aH
	DB	0a6H
	DB	039H
	DB	086H
	DB	041H
	DB	086H
	DB	041H
	DB	08H
	DB	052H
	DB	08H
	DB	052H
	DB	028H
	DB	052H
	DB	0aaH
	DB	062H
	DB	089H
	DB	062H
	DB	028H
	DB	05aH
	DB	049H
	DB	05aH
	DB	049H
	DB	05aH
	DB	0c7H
	DB	049H
	DB	08H
	DB	052H
	DB	0e8H
	DB	049H
	DB	066H
	DB	039H
	DB	066H
	DB	041H
	DB	0e7H
	DB	049H
	DB	08H
	DB	052H
	DB	069H
	DB	062H
	DB	0bH
	DB	073H
	DB	0aaH
	DB	062H
	DB	048H
	DB	05aH
	DB	0e7H
	DB	049H
	DB	0aaH
	DB	062H
	DB	08aH
	DB	062H
	DB	086H
	DB	041H
	DB	065H
	DB	039H
	DB	065H
	DB	039H
	DB	0c7H
	DB	041H
	DB	086H
	DB	039H
	DB	066H
	DB	031H
	DB	086H
	DB	031H
	DB	0c8H
	DB	031H
	DB	0ecH
	DB	052H
	DB	06fH
	DB	063H
	DB	08fH
	DB	05bH
	DB	06fH
	DB	05bH
	DB	090H
	DB	05bH
	DB	08fH
	DB	053H
	DB	090H
	DB	05bH
	DB	06fH
	DB	05bH
	DB	090H
	DB	05bH
	DB	08fH
	DB	05bH
	DB	06fH
	DB	05bH
	DB	090H
	DB	05bH
	DB	090H
	DB	05bH
	DB	06fH
	DB	05bH
	DB	090H
	DB	05bH
	DB	06fH
	DB	053H
	DB	070H
	DB	05bH
	DB	070H
	DB	05bH
	DB	090H
	DB	05bH
	DB	06fH
	DB	05bH
	DB	070H
	DB	05bH
	DB	070H
	DB	05bH
	DB	06fH
	DB	05bH
	DB	06fH
	DB	05bH
	DB	090H
	DB	05bH
	DB	06fH
	DB	053H
	DB	090H
	DB	05bH
	DB	06fH
	DB	05bH
	DB	06fH
	DB	053H
	DB	06fH
	DB	05bH
	DB	06fH
	DB	05bH
	DB	06fH
	DB	05bH
	DB	06fH
	DB	05bH
	DB	06fH
	DB	05bH
	DB	070H
	DB	05bH
	DB	06fH
	DB	05bH
	DB	06fH
	DB	05bH
	DB	06fH
	DB	053H
	DB	06fH
	DB	05bH
	DB	06fH
	DB	05bH
	DB	06fH
	DB	053H
	DB	06fH
	DB	053H
	DB	06fH
	DB	05bH
	DB	04fH
	DB	053H
	DB	04fH
	DB	053H
	DB	06fH
	DB	05bH
	DB	06fH
	DB	05bH
	DB	04fH
	DB	053H
	DB	06fH
	DB	05bH
	DB	06fH
	DB	05bH
	DB	04fH
	DB	053H
	DB	04fH
	DB	053H
	DB	04fH
	DB	053H
	DB	04eH
	DB	053H
	DB	04fH
	DB	053H
	DB	06fH
	DB	05bH
	DB	04fH
	DB	053H
	DB	02eH
	DB	053H
	DB	02eH
	DB	053H
	DB	02eH
	DB	04bH
	DB	02eH
	DB	04bH
	DB	02fH
	DB	053H
	DB	04fH
	DB	053H
	DB	02eH
	DB	053H
	DB	02eH
	DB	053H
	DB	02fH
	DB	053H
	DB	02eH
	DB	053H
	DB	04eH
	DB	053H
	DB	02eH
	DB	053H
	DB	02eH
	DB	053H
	DB	04fH
	DB	053H
	DB	02eH
	DB	04bH
	DB	02eH
	DB	053H
	DB	02eH
	DB	053H
	DB	04fH
	DB	053H
	DB	04fH
	DB	053H
	DB	04fH
	DB	053H
	DB	04fH
	DB	053H
	DB	04fH
	DB	053H
	DB	04fH
	DB	053H
	DB	04fH
	DB	053H
	DB	04fH
	DB	053H
	DB	04fH
	DB	053H
	DB	04fH
	DB	053H
	DB	04eH
	DB	053H
	DB	04fH
	DB	053H
	DB	04fH
	DB	053H
	DB	04fH
	DB	053H
	DB	04fH
	DB	053H
	DB	06fH
	DB	053H
	DB	04fH
	DB	053H
	DB	04fH
	DB	05bH
	DB	04eH
	DB	053H
	DB	06fH
	DB	05bH
	DB	04fH
	DB	053H
	DB	06fH
	DB	053H
	DB	04fH
	DB	05bH
	DB	04fH
	DB	053H
	DB	06fH
	DB	05bH
	DB	04fH
	DB	053H
	DB	06fH
	DB	05bH
	DB	06fH
	DB	053H
	DB	06fH
	DB	05bH
	DB	04fH
	DB	053H
	DB	06fH
	DB	053H
	DB	06fH
	DB	05bH
	DB	06fH
	DB	05bH
	DB	04fH
	DB	053H
	DB	04fH
	DB	053H
	DB	06fH
	DB	05bH
	DB	06fH
	DB	05bH
	DB	06fH
	DB	053H
	DB	06fH
	DB	05bH
	DB	070H
	DB	05bH
	DB	06fH
	DB	053H
	DB	06fH
	DB	05bH
	DB	06fH
	DB	05bH
	DB	090H
	DB	05bH
	DB	090H
	DB	05bH
	DB	08fH
	DB	05bH
	DB	06fH
	DB	053H
	DB	070H
	DB	05bH
	DB	070H
	DB	05bH
	DB	090H
	DB	05bH
	DB	070H
	DB	05bH
	DB	06fH
	DB	05bH
	DB	070H
	DB	05bH
	DB	070H
	DB	05bH
	DB	06fH
	DB	05bH
	DB	06fH
	DB	05bH
	DB	090H
	DB	05bH
	DB	08fH
	DB	05bH
	DB	08fH
	DB	05bH
	DB	090H
	DB	05bH
	DB	08fH
	DB	05bH
	DB	06fH
	DB	05bH
	DB	090H
	DB	05bH
	DB	0b0H
	DB	053H
	DB	090H
	DB	053H
	DB	08fH
	DB	05bH
	DB	08fH
	DB	063H
	DB	02dH
	DB	063H
	DB	0cbH
	DB	05aH
	DB	029H
	DB	04aH
	DB	028H
	DB	052H
	DB	08H
	DB	04aH
	DB	0e8H
	DB	049H
	DB	086H
	DB	041H
	DB	087H
	DB	049H
	DB	066H
	DB	039H
	DB	045H
	DB	039H
	DB	086H
	DB	041H
	DB	049H
	DB	05aH
	DB	0aaH
	DB	062H
	DB	0aaH
	DB	062H
	DB	029H
	DB	05aH
	DB	049H
	DB	05aH
	DB	089H
	DB	062H
	DB	08H
	DB	04aH
	DB	0e7H
	DB	049H
	DB	049H
	DB	05aH
	DB	086H
	DB	041H
	DB	0e4H
	DB	028H
	DB	045H
	DB	039H
	DB	065H
	DB	039H
	DB	086H
	DB	041H
	DB	069H
	DB	05aH
	DB	0ecH
	DB	072H
	DB	08aH
	DB	062H
	DB	085H
	DB	039H
	DB	07H
	DB	052H
	DB	02cH
	DB	073H
	DB	0cH
	DB	073H
	DB	08H
	DB	04aH
	DB	065H
	DB	039H
	DB	086H
	DB	041H
	DB	0c7H
	DB	041H
	DB	066H
	DB	039H
	DB	066H
	DB	039H
	DB	05H
	DB	029H
	DB	0a7H
	DB	031H
	DB	04aH
	DB	04aH
	DB	04eH
	DB	063H
	DB	08fH
	DB	063H
	DB	0b0H
	DB	063H
	DB	090H
	DB	05bH
	DB	090H
	DB	05bH
	DB	08fH
	DB	05bH
	DB	06fH
	DB	05bH
	DB	070H
	DB	05bH
	DB	090H
	DB	05bH
	DB	08fH
	DB	053H
	DB	08fH
	DB	05bH
	DB	090H
	DB	05bH
	DB	070H
	DB	05bH
	DB	06fH
	DB	053H
	DB	090H
	DB	05bH
	DB	08fH
	DB	05bH
	DB	08fH
	DB	05bH
	DB	090H
	DB	05bH
	DB	06fH
	DB	053H
	DB	06fH
	DB	05bH
	DB	090H
	DB	05bH
	DB	06fH
	DB	053H
	DB	06fH
	DB	053H
	DB	06fH
	DB	05bH
	DB	070H
	DB	05bH
	DB	090H
	DB	05bH
	DB	090H
	DB	05bH
	DB	070H
	DB	05bH
	DB	070H
	DB	05bH
	DB	070H
	DB	05bH
	DB	06fH
	DB	053H
	DB	070H
	DB	05bH
	DB	06fH
	DB	05bH
	DB	06fH
	DB	05bH
	DB	070H
	DB	05bH
	DB	06fH
	DB	05bH
	DB	06fH
	DB	05bH
	DB	06fH
	DB	05bH
	DB	070H
	DB	05bH
	DB	06fH
	DB	05bH
	DB	06fH
	DB	05bH
	DB	06fH
	DB	05bH
	DB	06fH
	DB	053H
	DB	06fH
	DB	053H
	DB	06fH
	DB	05bH
	DB	04fH
	DB	053H
	DB	06fH
	DB	05bH
	DB	04fH
	DB	053H
	DB	06fH
	DB	05bH
	DB	06fH
	DB	05bH
	DB	06fH
	DB	05bH
	DB	06fH
	DB	05bH
	DB	06fH
	DB	053H
	DB	06fH
	DB	05bH
	DB	04fH
	DB	053H
	DB	02eH
	DB	053H
	DB	02eH
	DB	04bH
	DB	0eH
	DB	04bH
	DB	02eH
	DB	053H
	DB	04fH
	DB	053H
	DB	02eH
	DB	053H
	DB	02fH
	DB	053H
	DB	04fH
	DB	053H
	DB	02eH
	DB	053H
	DB	02eH
	DB	04bH
	DB	04fH
	DB	053H
	DB	02fH
	DB	053H
	DB	02eH
	DB	053H
	DB	04fH
	DB	053H
	DB	02fH
	DB	053H
	DB	04eH
	DB	053H
	DB	04fH
	DB	053H
	DB	04fH
	DB	053H
	DB	04eH
	DB	053H
	DB	04fH
	DB	053H
	DB	04fH
	DB	053H
	DB	04eH
	DB	053H
	DB	04eH
	DB	053H
	DB	04fH
	DB	053H
	DB	06fH
	DB	053H
	DB	04fH
	DB	053H
	DB	06fH
	DB	05bH
	DB	04fH
	DB	053H
	DB	04fH
	DB	053H
	DB	04fH
	DB	053H
	DB	04fH
	DB	053H
	DB	04fH
	DB	053H
	DB	06fH
	DB	05bH
	DB	04fH
	DB	053H
	DB	04fH
	DB	053H
	DB	06fH
	DB	053H
	DB	06fH
	DB	05bH
	DB	04fH
	DB	053H
	DB	06fH
	DB	05bH
	DB	04fH
	DB	053H
	DB	04fH
	DB	053H
	DB	06fH
	DB	05bH
	DB	06fH
	DB	05bH
	DB	06fH
	DB	053H
	DB	06fH
	DB	05bH
	DB	06fH
	DB	05bH
	DB	06fH
	DB	05bH
	DB	04fH
	DB	053H
	DB	06fH
	DB	05bH
	DB	06fH
	DB	05bH
	DB	06fH
	DB	05bH
	DB	06fH
	DB	05bH
	DB	06fH
	DB	05bH
	DB	06fH
	DB	05bH
	DB	070H
	DB	05bH
	DB	06fH
	DB	053H
	DB	06fH
	DB	05bH
	DB	06fH
	DB	05bH
	DB	06fH
	DB	05bH
	DB	070H
	DB	05bH
	DB	06fH
	DB	053H
	DB	090H
	DB	05bH
	DB	08fH
	DB	05bH
	DB	06fH
	DB	05bH
	DB	06fH
	DB	053H
	DB	06fH
	DB	05bH
	DB	08fH
	DB	05bH
	DB	090H
	DB	05bH
	DB	090H
	DB	05bH
	DB	06fH
	DB	05bH
	DB	090H
	DB	05bH
	DB	090H
	DB	05bH
	DB	090H
	DB	05bH
	DB	06fH
	DB	05bH
	DB	090H
	DB	05bH
	DB	090H
	DB	05bH
	DB	090H
	DB	05bH
	DB	06fH
	DB	05bH
	DB	070H
	DB	05bH
	DB	090H
	DB	05bH
	DB	090H
	DB	05bH
	DB	090H
	DB	05bH
	DB	06fH
	DB	05bH
	DB	0ecH
	DB	05aH
	DB	08H
	DB	042H
	DB	086H
	DB	031H
	DB	0c7H
	DB	041H
	DB	0c7H
	DB	049H
	DB	0e7H
	DB	049H
	DB	06aH
	DB	05aH
	DB	0ebH
	DB	06aH
	DB	08H
	DB	052H
	DB	0e7H
	DB	049H
	DB	066H
	DB	039H
	DB	066H
	DB	041H
	DB	0a6H
	DB	041H
	DB	08H
	DB	052H
	DB	08H
	DB	05aH
	DB	0aaH
	DB	062H
	DB	0a6H
	DB	049H
	DB	028H
	DB	052H
	DB	08aH
	DB	062H
	DB	08H
	DB	052H
	DB	086H
	DB	041H
	DB	028H
	DB	05aH
	DB	0a7H
	DB	049H
	DB	086H
	DB	041H
	DB	086H
	DB	041H
	DB	05H
	DB	031H
	DB	04H
	DB	031H
	DB	029H
	DB	052H
	DB	0cbH
	DB	06aH
	DB	0c7H
	DB	049H
	DB	028H
	DB	052H
	DB	028H
	DB	052H
	DB	028H
	DB	052H
	DB	069H
	DB	05aH
	DB	028H
	DB	052H
	DB	0c7H
	DB	049H
	DB	028H
	DB	052H
	DB	0a7H
	DB	041H
	DB	066H
	DB	039H
	DB	045H
	DB	031H
	DB	0c7H
	DB	041H
	DB	069H
	DB	052H
	DB	0e8H
	DB	039H
	DB	04aH
	DB	042H
	DB	0acH
	DB	052H
	DB	0edH
	DB	052H
	DB	04eH
	DB	05bH
	DB	06fH
	DB	05bH
	DB	08fH
	DB	05bH
	DB	090H
	DB	05bH
	DB	090H
	DB	05bH
	DB	090H
	DB	05bH
	DB	090H
	DB	05bH
	DB	090H
	DB	05bH
	DB	06fH
	DB	05bH
	DB	06fH
	DB	05bH
	DB	090H
	DB	05bH
	DB	090H
	DB	05bH
	DB	090H
	DB	05bH
	DB	070H
	DB	05bH
	DB	08fH
	DB	05bH
	DB	090H
	DB	05bH
	DB	090H
	DB	05bH
	DB	090H
	DB	05bH
	DB	06fH
	DB	05bH
	DB	06fH
	DB	05bH
	DB	090H
	DB	05bH
	DB	090H
	DB	05bH
	DB	08fH
	DB	05bH
	DB	06fH
	DB	05bH
	DB	090H
	DB	05bH
	DB	06fH
	DB	053H
	DB	090H
	DB	05bH
	DB	090H
	DB	05bH
	DB	06fH
	DB	053H
	DB	06fH
	DB	05bH
	DB	070H
	DB	053H
	DB	06fH
	DB	053H
	DB	070H
	DB	05bH
	DB	06fH
	DB	053H
	DB	06fH
	DB	05bH
	DB	06fH
	DB	053H
	DB	070H
	DB	05bH
	DB	070H
	DB	05bH
	DB	06fH
	DB	05bH
	DB	06fH
	DB	053H
	DB	070H
	DB	05bH
	DB	08fH
	DB	05bH
	DB	06fH
	DB	053H
	DB	06fH
	DB	053H
	DB	06fH
	DB	05bH
	DB	06fH
	DB	053H
	DB	06fH
	DB	053H
	DB	06fH
	DB	053H
	DB	04fH
	DB	05bH
	DB	06fH
	DB	053H
	DB	06fH
	DB	05bH
	DB	02eH
	DB	053H
	DB	02fH
	DB	053H
	DB	02eH
	DB	053H
	DB	04fH
	DB	053H
	DB	02eH
	DB	053H
	DB	02eH
	DB	053H
	DB	04fH
	DB	053H
	DB	04fH
	DB	053H
	DB	04eH
	DB	053H
	DB	04fH
	DB	053H
	DB	04fH
	DB	053H
	DB	04fH
	DB	053H
	DB	04eH
	DB	053H
	DB	02eH
	DB	053H
	DB	04fH
	DB	053H
	DB	04fH
	DB	053H
	DB	04fH
	DB	053H
	DB	04eH
	DB	053H
	DB	04fH
	DB	053H
	DB	04fH
	DB	053H
	DB	04fH
	DB	053H
	DB	04fH
	DB	053H
	DB	04fH
	DB	053H
	DB	04fH
	DB	053H
	DB	04eH
	DB	053H
	DB	04fH
	DB	053H
	DB	06fH
	DB	053H
	DB	06fH
	DB	05bH
	DB	04eH
	DB	053H
	DB	04fH
	DB	053H
	DB	06fH
	DB	05bH
	DB	04fH
	DB	053H
	DB	06fH
	DB	05bH
	DB	06fH
	DB	05bH
	DB	06fH
	DB	05bH
	DB	04fH
	DB	053H
	DB	04fH
	DB	053H
	DB	06fH
	DB	05bH
	DB	06fH
	DB	05bH
	DB	06fH
	DB	05bH
	DB	06fH
	DB	053H
	DB	06fH
	DB	05bH
	DB	06fH
	DB	05bH
	DB	06fH
	DB	05bH
	DB	06fH
	DB	053H
	DB	06fH
	DB	05bH
	DB	06fH
	DB	05bH
	DB	070H
	DB	05bH
	DB	06fH
	DB	053H
	DB	06fH
	DB	053H
	DB	070H
	DB	05bH
	DB	06fH
	DB	05bH
	DB	06fH
	DB	053H
	DB	090H
	DB	05bH
	DB	090H
	DB	05bH
	DB	070H
	DB	05bH
	DB	090H
	DB	05bH
	DB	06fH
	DB	05bH
	DB	090H
	DB	05bH
	DB	070H
	DB	05bH
	DB	06fH
	DB	05bH
	DB	090H
	DB	05bH
	DB	070H
	DB	05bH
	DB	090H
	DB	05bH
	DB	06fH
	DB	05bH
	DB	090H
	DB	05bH
	DB	06fH
	DB	05bH
	DB	090H
	DB	05bH
	DB	090H
	DB	05bH
	DB	090H
	DB	05bH
	DB	08fH
	DB	05bH
	DB	06fH
	DB	05bH
	DB	090H
	DB	05bH
	DB	06fH
	DB	053H
	DB	090H
	DB	05bH
	DB	090H
	DB	05bH
	DB	08fH
	DB	05bH
	DB	090H
	DB	05bH
	DB	090H
	DB	05bH
	DB	08fH
	DB	05bH
	DB	08fH
	DB	063H
	DB	04eH
	DB	05bH
	DB	0ecH
	DB	05aH
	DB	08H
	DB	042H
	DB	086H
	DB	039H
	DB	087H
	DB	039H
	DB	0e7H
	DB	049H
	DB	08H
	DB	04aH
	DB	0a6H
	DB	041H
	DB	0a6H
	DB	041H
	DB	08H
	DB	04aH
	DB	049H
	DB	052H
	DB	0a7H
	DB	041H
	DB	0e7H
	DB	049H
	DB	045H
	DB	039H
	DB	045H
	DB	041H
	DB	0c7H
	DB	049H
	DB	049H
	DB	062H
	DB	08H
	DB	05aH
	DB	028H
	DB	052H
	DB	0e7H
	DB	049H
	DB	07H
	DB	052H
	DB	0ebH
	DB	072H
	DB	069H
	DB	062H
	DB	045H
	DB	041H
	DB	08H
	DB	052H
	DB	0e7H
	DB	049H
	DB	0c7H
	DB	049H
	DB	0c4H
	DB	028H
	DB	025H
	DB	031H
	DB	04H
	DB	031H
	DB	086H
	DB	041H
	DB	086H
	DB	041H
	DB	0c7H
	DB	049H
	DB	0aaH
	DB	06aH
	DB	089H
	DB	062H
	DB	049H
	DB	05aH
	DB	08aH
	DB	062H
	DB	069H
	DB	05aH
	DB	069H
	DB	05aH
	DB	08H
	DB	04aH
	DB	0c7H
	DB	041H
	DB	08H
	DB	052H
	DB	0aaH
	DB	062H
	DB	08H
	DB	04aH
	DB	0e8H
	DB	049H
	DB	065H
	DB	031H
	DB	0c7H
	DB	031H
	DB	04aH
	DB	042H
	DB	0dH
	DB	05bH
	DB	06fH
	DB	05bH
	DB	08fH
	DB	05bH
	DB	08fH
	DB	05bH
	DB	090H
	DB	05bH
	DB	090H
	DB	05bH
	DB	090H
	DB	05bH
	DB	090H
	DB	05bH
	DB	090H
	DB	05bH
	DB	08fH
	DB	05bH
	DB	06fH
	DB	05bH
	DB	090H
	DB	05bH
	DB	090H
	DB	05bH
	DB	06fH
	DB	05bH
	DB	070H
	DB	05bH
	DB	090H
	DB	05bH
	DB	06fH
	DB	05bH
	DB	090H
	DB	05bH
	DB	090H
	DB	05bH
	DB	090H
	DB	05bH
	DB	08fH
	DB	05bH
	DB	06fH
	DB	05bH
	DB	070H
	DB	05bH
	DB	090H
	DB	05bH
	DB	08fH
	DB	05bH
	DB	090H
	DB	05bH
	DB	090H
	DB	05bH
	DB	090H
	DB	05bH
	DB	08fH
	DB	05bH
	DB	090H
	DB	05bH
	DB	090H
	DB	05bH
	DB	06fH
	DB	05bH
	DB	090H
	DB	05bH
	DB	090H
	DB	05bH
	DB	090H
	DB	05bH
	DB	06fH
	DB	05bH
	DB	090H
	DB	05bH
	DB	070H
	DB	05bH
	DB	06fH
	DB	05bH
	DB	06fH
	DB	05bH
	DB	06fH
	DB	05bH
	DB	06fH
	DB	05bH
	DB	06fH
	DB	05bH
	DB	06fH
	DB	053H
	DB	06fH
	DB	05bH
	DB	06fH
	DB	05bH
	DB	06fH
	DB	05bH
	DB	06fH
	DB	05bH
	DB	06fH
	DB	05bH
	DB	06fH
	DB	05bH
	DB	06fH
	DB	053H
	DB	02eH
	DB	04bH
	DB	02eH
	DB	053H
	DB	02eH
	DB	04bH
	DB	04fH
	DB	053H
	DB	04fH
	DB	053H
	DB	04fH
	DB	053H
	DB	02eH
	DB	053H
	DB	02eH
	DB	04bH
	DB	02eH
	DB	053H
	DB	04fH
	DB	053H
	DB	04fH
	DB	053H
	DB	04fH
	DB	053H
	DB	06fH
	DB	053H
	DB	04fH
	DB	053H
	DB	04fH
	DB	053H
	DB	06fH
	DB	053H
	DB	06fH
	DB	053H
	DB	04fH
	DB	053H
	DB	04fH
	DB	053H
	DB	04fH
	DB	053H
	DB	04fH
	DB	053H
	DB	04eH
	DB	053H
	DB	04fH
	DB	053H
	DB	04fH
	DB	053H
	DB	06fH
	DB	05bH
	DB	06fH
	DB	05bH
	DB	04fH
	DB	053H
	DB	06fH
	DB	05bH
	DB	04fH
	DB	053H
	DB	06fH
	DB	053H
	DB	06fH
	DB	05bH
	DB	04fH
	DB	053H
	DB	06fH
	DB	053H
	DB	06fH
	DB	05bH
	DB	06fH
	DB	05bH
	DB	06fH
	DB	05bH
	DB	06fH
	DB	053H
	DB	06fH
	DB	05bH
	DB	06fH
	DB	05bH
	DB	06fH
	DB	05bH
	DB	06fH
	DB	05bH
	DB	06fH
	DB	053H
	DB	06fH
	DB	053H
	DB	070H
	DB	05bH
	DB	06fH
	DB	05bH
	DB	070H
	DB	053H
	DB	06fH
	DB	053H
	DB	070H
	DB	05bH
	DB	090H
	DB	05bH
	DB	06fH
	DB	05bH
	DB	090H
	DB	05bH
	DB	090H
	DB	05bH
	DB	090H
	DB	05bH
	DB	090H
	DB	05bH
	DB	08fH
	DB	05bH
	DB	090H
	DB	05bH
	DB	06fH
	DB	05bH
	DB	090H
	DB	053H
	DB	090H
	DB	05bH
	DB	06fH
	DB	05bH
	DB	06fH
	DB	053H
	DB	090H
	DB	05bH
	DB	090H
	DB	05bH
	DB	06fH
	DB	053H
	DB	090H
	DB	05bH
	DB	090H
	DB	05bH
	DB	090H
	DB	05bH
	DB	08fH
	DB	05bH
	DB	090H
	DB	05bH
	DB	090H
	DB	05bH
	DB	06fH
	DB	053H
	DB	090H
	DB	05bH
	DB	090H
	DB	05bH
	DB	090H
	DB	05bH
	DB	090H
	DB	05bH
	DB	090H
	DB	05bH
	DB	08fH
	DB	05bH
	DB	090H
	DB	05bH
	DB	090H
	DB	05bH
	DB	090H
	DB	05bH
	DB	0dH
	DB	05bH
	DB	029H
	DB	042H
	DB	0c7H
	DB	041H
	DB	086H
	DB	039H
	DB	087H
	DB	039H
	DB	066H
	DB	039H
	DB	066H
	DB	039H
	DB	046H
	DB	039H
	DB	045H
	DB	031H
	DB	045H
	DB	031H
	DB	05H
	DB	031H
	DB	04H
	DB	029H
	DB	086H
	DB	041H
	DB	0e8H
	DB	049H
	DB	0c7H
	DB	049H
	DB	025H
	DB	039H
	DB	0c3H
	DB	030H
	DB	025H
	DB	041H
	DB	0e7H
	DB	051H
	DB	0e6H
	DB	049H
	DB	0c6H
	DB	049H
	DB	0c7H
	DB	049H
	DB	0a7H
	DB	049H
	DB	0e7H
	DB	051H
	DB	0c7H
	DB	049H
	DB	086H
	DB	041H
	DB	08aH
	DB	062H
	DB	08H
	DB	052H
	DB	086H
	DB	041H
	DB	0e4H
	DB	030H
	DB	04H
	DB	031H
	DB	045H
	DB	039H
	DB	025H
	DB	039H
	DB	04H
	DB	031H
	DB	0aaH
	DB	06aH
	DB	028H
	DB	05aH
	DB	069H
	DB	062H
	DB	069H
	DB	062H
	DB	049H
	DB	05aH
	DB	028H
	DB	052H
	DB	028H
	DB	04aH
	DB	048H
	DB	052H
	DB	0e8H
	DB	049H
	DB	029H
	DB	052H
	DB	049H
	DB	052H
	DB	07H
	DB	04aH
	DB	086H
	DB	039H
	DB	08H
	DB	04aH
	DB	0cbH
	DB	05aH
	DB	04eH
	DB	063H
	DB	08fH
	DB	063H
	DB	08fH
	DB	063H
	DB	090H
	DB	063H
	DB	090H
	DB	05bH
	DB	090H
	DB	05bH
	DB	090H
	DB	05bH
	DB	090H
	DB	05bH
	DB	090H
	DB	05bH
	DB	090H
	DB	05bH
	DB	090H
	DB	05bH
	DB	090H
	DB	05bH
	DB	0b0H
	DB	05bH
	DB	090H
	DB	05bH
	DB	08fH
	DB	05bH
	DB	090H
	DB	05bH
	DB	090H
	DB	05bH
	DB	090H
	DB	05bH
	DB	090H
	DB	05bH
	DB	06fH
	DB	05bH
	DB	090H
	DB	05bH
	DB	090H
	DB	05bH
	DB	06fH
	DB	05bH
	DB	090H
	DB	05bH
	DB	090H
	DB	05bH
	DB	08fH
	DB	05bH
	DB	090H
	DB	05bH
	DB	06fH
	DB	05bH
	DB	090H
	DB	05bH
	DB	06fH
	DB	05bH
	DB	08fH
	DB	05bH
	DB	070H
	DB	05bH
	DB	08fH
	DB	05bH
	DB	090H
	DB	05bH
	DB	090H
	DB	05bH
	DB	06fH
	DB	05bH
	DB	08fH
	DB	05bH
	DB	06fH
	DB	053H
	DB	06fH
	DB	053H
	DB	070H
	DB	05bH
	DB	090H
	DB	05bH
	DB	06fH
	DB	05bH
	DB	070H
	DB	05bH
	DB	070H
	DB	05bH
	DB	06fH
	DB	053H
	DB	06fH
	DB	05bH
	DB	06fH
	DB	053H
	DB	06fH
	DB	05bH
	DB	070H
	DB	05bH
	DB	06fH
	DB	05bH
	DB	06fH
	DB	05bH
	DB	02eH
	DB	053H
	DB	04fH
	DB	053H
	DB	02fH
	DB	053H
	DB	04eH
	DB	053H
	DB	04fH
	DB	053H
	DB	04fH
	DB	053H
	DB	04fH
	DB	053H
	DB	04fH
	DB	053H
	DB	04fH
	DB	053H
	DB	02eH
	DB	053H
	DB	04fH
	DB	053H
	DB	04fH
	DB	053H
	DB	04fH
	DB	053H
	DB	04fH
	DB	053H
	DB	04fH
	DB	053H
	DB	06fH
	DB	053H
	DB	06fH
	DB	05bH
	DB	04fH
	DB	053H
	DB	04fH
	DB	053H
	DB	04fH
	DB	053H
	DB	04eH
	DB	053H
	DB	06fH
	DB	05bH
	DB	04fH
	DB	053H
	DB	06fH
	DB	053H
	DB	04fH
	DB	05bH
	DB	06fH
	DB	05bH
	DB	06fH
	DB	05bH
	DB	06fH
	DB	05bH
	DB	06fH
	DB	053H
	DB	04fH
	DB	053H
	DB	04fH
	DB	05bH
	DB	04fH
	DB	05bH
	DB	06fH
	DB	053H
	DB	06fH
	DB	05bH
	DB	06fH
	DB	05bH
	DB	06fH
	DB	053H
	DB	06fH
	DB	05bH
	DB	090H
	DB	05bH
	DB	06fH
	DB	053H
	DB	070H
	DB	05bH
	DB	06fH
	DB	05bH
	DB	070H
	DB	05bH
	DB	06fH
	DB	05bH
	DB	090H
	DB	05bH
	DB	070H
	DB	05bH
	DB	06fH
	DB	05bH
	DB	08fH
	DB	05bH
	DB	090H
	DB	05bH
	DB	090H
	DB	05bH
	DB	06fH
	DB	05bH
	DB	06fH
	DB	05bH
	DB	090H
	DB	05bH
	DB	090H
	DB	05bH
	DB	090H
	DB	05bH
	DB	08fH
	DB	05bH
	DB	090H
	DB	05bH
	DB	090H
	DB	05bH
	DB	08fH
	DB	05bH
	DB	090H
	DB	05bH
	DB	0b0H
	DB	05bH
	DB	08fH
	DB	05bH
	DB	090H
	DB	05bH
	DB	090H
	DB	05bH
	DB	090H
	DB	05bH
	DB	090H
	DB	05bH
	DB	090H
	DB	05bH
	DB	090H
	DB	05bH
	DB	08fH
	DB	05bH
	DB	08fH
	DB	05bH
	DB	090H
	DB	05bH
	DB	090H
	DB	05bH
	DB	090H
	DB	05bH
	DB	090H
	DB	05bH
	DB	08fH
	DB	05bH
	DB	090H
	DB	05bH
	DB	0b0H
	DB	05bH
	DB	090H
	DB	05bH
	DB	090H
	DB	05bH
	DB	06eH
	DB	063H
	DB	0ecH
	DB	05aH
	DB	08H
	DB	04aH
	DB	0a6H
	DB	041H
	DB	0c7H
	DB	041H
	DB	0a7H
	DB	041H
	DB	066H
	DB	039H
	DB	0e5H
	DB	028H
	DB	0a3H
	DB	020H
	DB	025H
	DB	031H
	DB	066H
	DB	039H
	DB	0e8H
	DB	049H
	DB	086H
	DB	041H
	DB	046H
	DB	039H
	DB	0e4H
	DB	030H
	DB	0e4H
	DB	030H
	DB	066H
	DB	041H
	DB	04H
	DB	039H
	DB	0e4H
	DB	030H
	DB	0e4H
	DB	038H
	DB	024H
	DB	039H
	DB	0c6H
	DB	049H
	DB	048H
	DB	062H
	DB	0e7H
	DB	051H
	DB	08H
	DB	05aH
	DB	0c7H
	DB	049H
	DB	086H
	DB	049H
	DB	0c6H
	DB	051H
	DB	049H
	DB	062H
	DB	028H
	DB	05aH
	DB	08H
	DB	05aH
	DB	0e4H
	DB	030H
	DB	0e4H
	DB	030H
	DB	062H
	DB	020H
	DB	082H
	DB	020H
	DB	082H
	DB	020H
	DB	0c7H
	DB	049H
	DB	08aH
	DB	062H
	DB	0e7H
	DB	049H
	DB	0e7H
	DB	051H
	DB	0c7H
	DB	049H
	DB	0c7H
	DB	049H
	DB	0a6H
	DB	041H
	DB	0e8H
	DB	049H
	DB	029H
	DB	052H
	DB	0e7H
	DB	049H
	DB	028H
	DB	052H
	DB	0c7H
	DB	049H
	DB	086H
	DB	039H
	DB	0a6H
	DB	041H
	DB	048H
	DB	052H
	DB	0e7H
	DB	041H
	DB	08H
	DB	03aH
	DB	0abH
	DB	052H
	DB	02dH
	DB	05bH
	DB	06fH
	DB	05bH
	DB	090H
	DB	05bH
	DB	0b0H
	DB	05bH
	DB	0b0H
	DB	05bH
	DB	08fH
	DB	05bH
	DB	090H
	DB	05bH
	DB	090H
	DB	05bH
	DB	0afH
	DB	05bH
	DB	0b0H
	DB	05bH
	DB	090H
	DB	05bH
	DB	08fH
	DB	05bH
	DB	08fH
	DB	05bH
	DB	090H
	DB	05bH
	DB	090H
	DB	05bH
	DB	090H
	DB	05bH
	DB	090H
	DB	05bH
	DB	090H
	DB	05bH
	DB	090H
	DB	05bH
	DB	090H
	DB	05bH
	DB	090H
	DB	05bH
	DB	090H
	DB	05bH
	DB	08fH
	DB	05bH
	DB	090H
	DB	05bH
	DB	090H
	DB	05bH
	DB	090H
	DB	05bH
	DB	08fH
	DB	05bH
	DB	090H
	DB	05bH
	DB	090H
	DB	05bH
	DB	06fH
	DB	05bH
	DB	06fH
	DB	053H
	DB	06fH
	DB	05bH
	DB	090H
	DB	05bH
	DB	070H
	DB	05bH
	DB	06fH
	DB	05bH
	DB	090H
	DB	05bH
	DB	090H
	DB	05bH
	DB	06fH
	DB	05bH
	DB	090H
	DB	053H
	DB	06fH
	DB	053H
	DB	070H
	DB	05bH
	DB	090H
	DB	05bH
	DB	06fH
	DB	05bH
	DB	070H
	DB	05bH
	DB	070H
	DB	053H
	DB	06fH
	DB	053H
	DB	070H
	DB	05bH
	DB	070H
	DB	05bH
	DB	04fH
	DB	053H
	DB	04fH
	DB	053H
	DB	04fH
	DB	053H
	DB	04fH
	DB	053H
	DB	04eH
	DB	053H
	DB	02eH
	DB	053H
	DB	04fH
	DB	053H
	DB	04fH
	DB	053H
	DB	04fH
	DB	053H
	DB	04eH
	DB	053H
	DB	04fH
	DB	053H
	DB	04fH
	DB	053H
	DB	04fH
	DB	053H
	DB	04fH
	DB	053H
	DB	06fH
	DB	05bH
	DB	04fH
	DB	05bH
	DB	06fH
	DB	05bH
	DB	04fH
	DB	053H
	DB	04fH
	DB	053H
	DB	06fH
	DB	05bH
	DB	04fH
	DB	053H
	DB	06fH
	DB	05bH
	DB	06fH
	DB	053H
	DB	06fH
	DB	05bH
	DB	06fH
	DB	053H
	DB	06fH
	DB	053H
	DB	06fH
	DB	05bH
	DB	04fH
	DB	053H
	DB	06fH
	DB	05bH
	DB	06fH
	DB	05bH
	DB	06fH
	DB	05bH
	DB	06fH
	DB	05bH
	DB	06fH
	DB	05bH
	DB	06fH
	DB	05bH
	DB	070H
	DB	05bH
	DB	070H
	DB	05bH
	DB	090H
	DB	05bH
	DB	090H
	DB	05bH
	DB	08fH
	DB	05bH
	DB	090H
	DB	05bH
	DB	090H
	DB	05bH
	DB	090H
	DB	05bH
	DB	090H
	DB	05bH
	DB	08fH
	DB	05bH
	DB	08fH
	DB	05bH
	DB	070H
	DB	05bH
	DB	090H
	DB	05bH
	DB	08fH
	DB	05bH
	DB	090H
	DB	05bH
	DB	090H
	DB	05bH
	DB	08fH
	DB	05bH
	DB	090H
	DB	05bH
	DB	06fH
	DB	05bH
	DB	090H
	DB	05bH
	DB	090H
	DB	05bH
	DB	090H
	DB	05bH
	DB	0b0H
	DB	05bH
	DB	0afH
	DB	05bH
	DB	090H
	DB	05bH
	DB	0b0H
	DB	05bH
	DB	0afH
	DB	05bH
	DB	090H
	DB	05bH
	DB	0b0H
	DB	05bH
	DB	0b0H
	DB	05bH
	DB	08fH
	DB	05bH
	DB	0b0H
	DB	05bH
	DB	090H
	DB	05bH
	DB	090H
	DB	05bH
	DB	090H
	DB	05bH
	DB	090H
	DB	05bH
	DB	090H
	DB	05bH
	DB	0b0H
	DB	05bH
	DB	090H
	DB	05bH
	DB	090H
	DB	05bH
	DB	0b0H
	DB	05bH
	DB	0b0H
	DB	05bH
	DB	0b0H
	DB	063H
	DB	04eH
	DB	05bH
	DB	069H
	DB	04aH
	DB	08H
	DB	04aH
	DB	08H
	DB	04aH
	DB	0c7H
	DB	041H
	DB	066H
	DB	039H
	DB	025H
	DB	031H
	DB	05H
	DB	031H
	DB	0e4H
	DB	028H
	DB	083H
	DB	018H
	DB	062H
	DB	018H
	DB	0a3H
	DB	020H
	DB	0e4H
	DB	028H
	DB	0c3H
	DB	028H
	DB	0e3H
	DB	028H
	DB	024H
	DB	039H
	DB	04H
	DB	039H
	DB	045H
	DB	041H
	DB	024H
	DB	041H
	DB	024H
	DB	041H
	DB	025H
	DB	041H
	DB	045H
	DB	049H
	DB	065H
	DB	049H
	DB	028H
	DB	062H
	DB	07H
	DB	05aH
	DB	0a6H
	DB	051H
	DB	0e7H
	DB	059H
	DB	045H
	DB	041H
	DB	086H
	DB	049H
	DB	0a6H
	DB	049H
	DB	0c7H
	DB	051H
	DB	0c7H
	DB	051H
	DB	086H
	DB	049H
	DB	0c4H
	DB	030H
	DB	0a3H
	DB	028H
	DB	063H
	DB	020H
	DB	0a3H
	DB	028H
	DB	045H
	DB	039H
	DB	049H
	DB	05aH
	DB	0e7H
	DB	049H
	DB	0a6H
	DB	041H
	DB	066H
	DB	041H
	DB	045H
	DB	039H
	DB	024H
	DB	031H
	DB	045H
	DB	031H
	DB	046H
	DB	039H
	DB	08H
	DB	04aH
	DB	0e7H
	DB	049H
	DB	0e8H
	DB	049H
	DB	049H
	DB	05aH
	DB	08H
	DB	052H
	DB	048H
	DB	052H
	DB	048H
	DB	052H
	DB	0a6H
	DB	039H
	DB	0e7H
	DB	041H
	DB	06aH
	DB	052H
	DB	0abH
	DB	04aH
	DB	04eH
	DB	05bH
	DB	08fH
	DB	05bH
	DB	0b0H
	DB	05bH
	DB	0b0H
	DB	05bH
	DB	0b0H
	DB	05bH
	DB	090H
	DB	05bH
	DB	0b0H
	DB	05bH
	DB	08fH
	DB	05bH
	DB	090H
	DB	05bH
	DB	090H
	DB	05bH
	DB	090H
	DB	05bH
	DB	090H
	DB	05bH
	DB	0b0H
	DB	05bH
	DB	08fH
	DB	05bH
	DB	090H
	DB	05bH
	DB	0b0H
	DB	05bH
	DB	0b0H
	DB	05bH
	DB	0b0H
	DB	05bH
	DB	08fH
	DB	05bH
	DB	090H
	DB	05bH
	DB	0b0H
	DB	05bH
	DB	08fH
	DB	05bH
	DB	0b0H
	DB	05bH
	DB	0b0H
	DB	05bH
	DB	08fH
	DB	05bH
	DB	090H
	DB	05bH
	DB	090H
	DB	05bH
	DB	090H
	DB	05bH
	DB	08fH
	DB	05bH
	DB	090H
	DB	05bH
	DB	090H
	DB	05bH
	DB	090H
	DB	05bH
	DB	08fH
	DB	05bH
	DB	070H
	DB	05bH
	DB	090H
	DB	05bH
	DB	08fH
	DB	05bH
	DB	090H
	DB	05bH
	DB	090H
	DB	05bH
	DB	08fH
	DB	05bH
	DB	090H
	DB	05bH
	DB	06fH
	DB	05bH
	DB	090H
	DB	05bH
	DB	08fH
	DB	05bH
	DB	06fH
	DB	05bH
	DB	090H
	DB	05bH
	DB	08fH
	DB	05bH
	DB	04fH
	DB	053H
	DB	04fH
	DB	053H
	DB	04fH
	DB	053H
	DB	04fH
	DB	053H
	DB	02eH
	DB	053H
	DB	04fH
	DB	053H
	DB	04fH
	DB	053H
	DB	04fH
	DB	053H
	DB	04fH
	DB	053H
	DB	06fH
	DB	053H
	DB	04fH
	DB	053H
	DB	06fH
	DB	05bH
	DB	04fH
	DB	053H
	DB	04fH
	DB	053H
	DB	04fH
	DB	053H
	DB	06fH
	DB	053H
	DB	06fH
	DB	05bH
	DB	06fH
	DB	05bH
	DB	04fH
	DB	053H
	DB	06fH
	DB	05bH
	DB	06fH
	DB	05bH
	DB	06fH
	DB	05bH
	DB	06fH
	DB	05bH
	DB	06fH
	DB	05bH
	DB	04fH
	DB	053H
	DB	070H
	DB	05bH
	DB	06fH
	DB	05bH
	DB	06fH
	DB	053H
	DB	070H
	DB	05bH
	DB	090H
	DB	05bH
	DB	090H
	DB	05bH
	DB	06fH
	DB	053H
	DB	090H
	DB	05bH
	DB	070H
	DB	053H
	DB	08fH
	DB	05bH
	DB	090H
	DB	05bH
	DB	06fH
	DB	05bH
	DB	06fH
	DB	05bH
	DB	070H
	DB	05bH
	DB	06fH
	DB	05bH
	DB	08fH
	DB	05bH
	DB	090H
	DB	05bH
	DB	090H
	DB	05bH
	DB	08fH
	DB	05bH
	DB	070H
	DB	05bH
	DB	090H
	DB	05bH
	DB	090H
	DB	05bH
	DB	08fH
	DB	05bH
	DB	090H
	DB	05bH
	DB	06fH
	DB	05bH
	DB	090H
	DB	05bH
	DB	090H
	DB	05bH
	DB	090H
	DB	05bH
	DB	08fH
	DB	05bH
	DB	090H
	DB	05bH
	DB	090H
	DB	05bH
	DB	090H
	DB	05bH
	DB	0b0H
	DB	05bH
	DB	090H
	DB	05bH
	DB	090H
	DB	05bH
	DB	08fH
	DB	05bH
	DB	090H
	DB	05bH
	DB	0b0H
	DB	05bH
	DB	0b0H
	DB	05bH
	DB	0b0H
	DB	05bH
	DB	0b0H
	DB	05bH
	DB	0b0H
	DB	05bH
	DB	090H
	DB	05bH
	DB	0b0H
	DB	05bH
	DB	0b0H
	DB	05bH
	DB	0b0H
	DB	05bH
	DB	0b0H
	DB	05bH
	DB	090H
	DB	05bH
	DB	0b0H
	DB	05bH
	DB	090H
	DB	05bH
	DB	0b0H
	DB	063H
	DB	04dH
	DB	063H
	DB	069H
	DB	052H
	DB	049H
	DB	052H
	DB	028H
	DB	052H
	DB	046H
	DB	031H
	DB	0e4H
	DB	028H
	DB	0e4H
	DB	020H
	DB	0c4H
	DB	020H
	DB	05H
	DB	029H
	DB	026H
	DB	031H
	DB	0c4H
	DB	020H
	DB	062H
	DB	018H
	DB	0e4H
	DB	030H
	DB	04H
	DB	031H
	DB	0e4H
	DB	030H
	DB	0e4H
	DB	030H
	DB	0e3H
	DB	030H
	DB	04H
	DB	039H
	DB	045H
	DB	049H
	DB	085H
	DB	049H
	DB	065H
	DB	049H
	DB	044H
	DB	049H
	DB	065H
	DB	051H
	DB	065H
	DB	049H
	DB	086H
	DB	051H
	DB	045H
	DB	049H
	DB	065H
	DB	049H
	DB	065H
	DB	049H
	DB	065H
	DB	049H
	DB	024H
	DB	041H
	DB	045H
	DB	041H
	DB	04H
	DB	039H
	DB	065H
	DB	041H
	DB	066H
	DB	049H
	DB	0a3H
	DB	030H
	DB	0c3H
	DB	030H
	DB	0c4H
	DB	030H
	DB	0c3H
	DB	028H
	DB	0e4H
	DB	030H
	DB	045H
	DB	039H
	DB	08H
	DB	052H
	DB	0a6H
	DB	041H
	DB	045H
	DB	031H
	DB	0e7H
	DB	049H
	DB	0c3H
	DB	020H
	DB	0c3H
	DB	020H
	DB	025H
	DB	031H
	DB	045H
	DB	039H
	DB	0c7H
	DB	041H
	DB	025H
	DB	031H
	DB	08H
	DB	04aH
	DB	08H
	DB	04aH
	DB	069H
	DB	05aH
	DB	049H
	DB	052H
	DB	0e7H
	DB	049H
	DB	0c7H
	DB	041H
	DB	0e8H
	DB	049H
	DB	08H
	DB	042H
	DB	06aH
	DB	04aH
	DB	06fH
	DB	063H
	DB	0b0H
	DB	063H
	DB	0b0H
	DB	05bH
	DB	0b0H
	DB	05bH
	DB	0b1H
	DB	05bH
	DB	0b0H
	DB	05bH
	DB	090H
	DB	05bH
	DB	0b0H
	DB	05bH
	DB	090H
	DB	05bH
	DB	090H
	DB	05bH
	DB	0b0H
	DB	05bH
	DB	0b0H
	DB	05bH
	DB	0b0H
	DB	05bH
	DB	0b0H
	DB	05bH
	DB	090H
	DB	05bH
	DB	08fH
	DB	05bH
	DB	0b0H
	DB	05bH
	DB	0b0H
	DB	05bH
	DB	0b0H
	DB	05bH
	DB	090H
	DB	05bH
	DB	0b0H
	DB	05bH
	DB	0b0H
	DB	05bH
	DB	090H
	DB	05bH
	DB	08fH
	DB	053H
	DB	0b0H
	DB	05bH
	DB	090H
	DB	05bH
	DB	090H
	DB	05bH
	DB	090H
	DB	05bH
	DB	090H
	DB	05bH
	DB	090H
	DB	05bH
	DB	090H
	DB	05bH
	DB	090H
	DB	05bH
	DB	08fH
	DB	05bH
	DB	090H
	DB	05bH
	DB	06fH
	DB	05bH
	DB	06fH
	DB	05bH
	DB	090H
	DB	05bH
	DB	090H
	DB	05bH
	DB	08fH
	DB	05bH
	DB	090H
	DB	05bH
	DB	090H
	DB	05bH
	DB	090H
	DB	05bH
	DB	090H
	DB	05bH
	DB	06fH
	DB	05bH
	DB	090H
	DB	05bH
	DB	04eH
	DB	053H
	DB	04eH
	DB	053H
	DB	04fH
	DB	053H
	DB	04fH
	DB	053H
	DB	04fH
	DB	053H
	DB	04fH
	DB	053H
	DB	06fH
	DB	053H
	DB	04fH
	DB	053H
	DB	04fH
	DB	053H
	DB	06fH
	DB	05bH
	DB	06fH
	DB	05bH
	DB	06fH
	DB	053H
	DB	06fH
	DB	05bH
	DB	06fH
	DB	05bH
	DB	06fH
	DB	05bH
	DB	06fH
	DB	053H
	DB	06fH
	DB	05bH
	DB	06fH
	DB	053H
	DB	06fH
	DB	05bH
	DB	06fH
	DB	05bH
	DB	06fH
	DB	053H
	DB	06fH
	DB	053H
	DB	06fH
	DB	05bH
	DB	070H
	DB	05bH
	DB	06fH
	DB	05bH
	DB	090H
	DB	05bH
	DB	06fH
	DB	05bH
	DB	06fH
	DB	05bH
	DB	06fH
	DB	053H
	DB	090H
	DB	05bH
	DB	090H
	DB	05bH
	DB	06fH
	DB	053H
	DB	090H
	DB	05bH
	DB	090H
	DB	05bH
	DB	08fH
	DB	05bH
	DB	08fH
	DB	053H
	DB	090H
	DB	05bH
	DB	090H
	DB	05bH
	DB	090H
	DB	05bH
	DB	090H
	DB	05bH
	DB	08fH
	DB	05bH
	DB	090H
	DB	05bH
	DB	06fH
	DB	05bH
	DB	06fH
	DB	05bH
	DB	090H
	DB	05bH
	DB	090H
	DB	05bH
	DB	08fH
	DB	05bH
	DB	090H
	DB	05bH
	DB	090H
	DB	05bH
	DB	090H
	DB	05bH
	DB	090H
	DB	05bH
	DB	090H
	DB	05bH
	DB	090H
	DB	05bH
	DB	090H
	DB	05bH
	DB	0b0H
	DB	05bH
	DB	0b0H
	DB	05bH
	DB	090H
	DB	05bH
	DB	0b0H
	DB	05bH
	DB	0b0H
	DB	05bH
	DB	0b0H
	DB	05bH
	DB	090H
	DB	05bH
	DB	0b0H
	DB	05bH
	DB	0b0H
	DB	05bH
	DB	0b0H
	DB	05bH
	DB	0b0H
	DB	05bH
	DB	0b0H
	DB	05bH
	DB	0b0H
	DB	05bH
	DB	0b0H
	DB	05bH
	DB	0b0H
	DB	05bH
	DB	0b0H
	DB	05bH
	DB	0b0H
	DB	05bH
	DB	0b0H
	DB	05bH
	DB	0b0H
	DB	05bH
	DB	0b0H
	DB	05bH
	DB	0b0H
	DB	063H
	DB	02dH
	DB	063H
	DB	048H
	DB	052H
	DB	0e6H
	DB	049H
	DB	0c6H
	DB	049H
	DB	045H
	DB	031H
	DB	0e3H
	DB	028H
	DB	045H
	DB	039H
	DB	08H
	DB	052H
	DB	06aH
	DB	062H
	DB	028H
	DB	052H
	DB	0c7H
	DB	049H
	DB	066H
	DB	041H
	DB	045H
	DB	039H
	DB	045H
	DB	039H
	DB	0e3H
	DB	030H
	DB	0c3H
	DB	030H
	DB	045H
	DB	041H
	DB	085H
	DB	051H
	DB	0e6H
	DB	059H
	DB	0e6H
	DB	061H
	DB	07H
	DB	062H
	DB	027H
	DB	06aH
	DB	027H
	DB	06aH
	DB	0e6H
	DB	061H
	DB	0a6H
	DB	059H
	DB	0a5H
	DB	051H
	DB	086H
	DB	051H
	DB	086H
	DB	051H
	DB	065H
	DB	049H
	DB	065H
	DB	049H
	DB	065H
	DB	049H
	DB	045H
	DB	049H
	DB	04H
	DB	039H
	DB	0e4H
	DB	038H
	DB	086H
	DB	049H
	DB	04H
	DB	039H
	DB	0c3H
	DB	030H
	DB	0c3H
	DB	030H
	DB	0a3H
	DB	028H
	DB	0c3H
	DB	030H
	DB	0e4H
	DB	030H
	DB	025H
	DB	039H
	DB	065H
	DB	039H
	DB	0e3H
	DB	028H
	DB	049H
	DB	052H
	DB	024H
	DB	031H
	DB	0e4H
	DB	028H
	DB	086H
	DB	039H
	DB	083H
	DB	018H
	DB	045H
	DB	039H
	DB	045H
	DB	031H
	DB	024H
	DB	031H
	DB	0a6H
	DB	041H
	DB	086H
	DB	039H
	DB	0a7H
	DB	041H
	DB	0a7H
	DB	041H
	DB	0c7H
	DB	049H
	DB	066H
	DB	039H
	DB	0a7H
	DB	041H
	DB	0a7H
	DB	041H
	DB	04aH
	DB	04aH
	DB	02dH
	DB	053H
	DB	08fH
	DB	063H
	DB	090H
	DB	05bH
	DB	0b0H
	DB	05bH
	DB	0b1H
	DB	05bH
	DB	0b0H
	DB	05bH
	DB	0b0H
	DB	05bH
	DB	0b0H
	DB	05bH
	DB	0b0H
	DB	05bH
	DB	0b0H
	DB	05bH
	DB	0b0H
	DB	05bH
	DB	0b0H
	DB	05bH
	DB	0b0H
	DB	05bH
	DB	0b0H
	DB	05bH
	DB	090H
	DB	05bH
	DB	090H
	DB	05bH
	DB	0b0H
	DB	05bH
	DB	0b0H
	DB	05bH
	DB	0b0H
	DB	05bH
	DB	0b0H
	DB	05bH
	DB	090H
	DB	05bH
	DB	090H
	DB	05bH
	DB	0b0H
	DB	05bH
	DB	0b0H
	DB	05bH
	DB	090H
	DB	05bH
	DB	090H
	DB	05bH
	DB	090H
	DB	05bH
	DB	0b0H
	DB	05bH
	DB	08fH
	DB	05bH
	DB	090H
	DB	05bH
	DB	090H
	DB	05bH
	DB	08fH
	DB	05bH
	DB	090H
	DB	05bH
	DB	090H
	DB	05bH
	DB	090H
	DB	05bH
	DB	090H
	DB	05bH
	DB	090H
	DB	05bH
	DB	08fH
	DB	05bH
	DB	070H
	DB	05bH
	DB	090H
	DB	05bH
	DB	06fH
	DB	05bH
	DB	090H
	DB	05bH
	DB	090H
	DB	05bH
	DB	08fH
	DB	053H
	DB	04fH
	DB	053H
	DB	04fH
	DB	053H
	DB	04fH
	DB	053H
	DB	04fH
	DB	053H
	DB	04fH
	DB	053H
	DB	06fH
	DB	05bH
	DB	04fH
	DB	05bH
	DB	06fH
	DB	05bH
	DB	06fH
	DB	05bH
	DB	06fH
	DB	05bH
	DB	06fH
	DB	053H
	DB	04fH
	DB	053H
	DB	06fH
	DB	05bH
	DB	06fH
	DB	05bH
	DB	06fH
	DB	05bH
	DB	06fH
	DB	05bH
	DB	06fH
	DB	05bH
	DB	070H
	DB	05bH
	DB	06fH
	DB	053H
	DB	06fH
	DB	053H
	DB	06fH
	DB	053H
	DB	04fH
	DB	053H
	DB	06fH
	DB	05bH
	DB	090H
	DB	05bH
	DB	070H
	DB	05bH
	DB	06fH
	DB	053H
	DB	070H
	DB	05bH
	DB	06fH
	DB	05bH
	DB	06fH
	DB	05bH
	DB	090H
	DB	05bH
	DB	090H
	DB	05bH
	DB	08fH
	DB	05bH
	DB	090H
	DB	05bH
	DB	090H
	DB	05bH
	DB	090H
	DB	05bH
	DB	090H
	DB	05bH
	DB	090H
	DB	05bH
	DB	090H
	DB	05bH
	DB	090H
	DB	05bH
	DB	090H
	DB	05bH
	DB	090H
	DB	05bH
	DB	090H
	DB	05bH
	DB	06fH
	DB	05bH
	DB	090H
	DB	05bH
	DB	090H
	DB	05bH
	DB	090H
	DB	05bH
	DB	08fH
	DB	05bH
	DB	090H
	DB	05bH
	DB	090H
	DB	05bH
	DB	090H
	DB	05bH
	DB	090H
	DB	05bH
	DB	090H
	DB	05bH
	DB	090H
	DB	05bH
	DB	090H
	DB	063H
	DB	0b0H
	DB	063H
	DB	090H
	DB	05bH
	DB	0b0H
	DB	05bH
	DB	090H
	DB	05bH
	DB	0b0H
	DB	05bH
	DB	0b0H
	DB	05bH
	DB	0b0H
	DB	05bH
	DB	0b0H
	DB	05bH
	DB	090H
	DB	05bH
	DB	090H
	DB	05bH
	DB	0b0H
	DB	05bH
	DB	0b0H
	DB	05bH
	DB	0b0H
	DB	05bH
	DB	0b0H
	DB	05bH
	DB	090H
	DB	05bH
	DB	090H
	DB	05bH
	DB	0b0H
	DB	05bH
	DB	0b0H
	DB	05bH
	DB	0b0H
	DB	05bH
	DB	0b0H
	DB	063H
	DB	06fH
	DB	063H
	DB	08aH
	DB	052H
	DB	0e7H
	DB	049H
	DB	0c6H
	DB	049H
	DB	0a6H
	DB	049H
	DB	0c7H
	DB	049H
	DB	08H
	DB	052H
	DB	049H
	DB	05aH
	DB	069H
	DB	062H
	DB	0c7H
	DB	051H
	DB	065H
	DB	041H
	DB	065H
	DB	041H
	DB	086H
	DB	049H
	DB	066H
	DB	041H
	DB	066H
	DB	049H
	DB	085H
	DB	049H
	DB	0c6H
	DB	059H
	DB	048H
	DB	06aH
	DB	089H
	DB	07aH
	DB	0a9H
	DB	07aH
	DB	0a9H
	DB	07aH
	DB	0bH
	DB	08bH
	DB	0aH
	DB	08bH
	DB	0aH
	DB	08bH
	DB	0a9H
	DB	07aH
	DB	048H
	DB	072H
	DB	027H
	DB	06aH
	DB	07H
	DB	06aH
	DB	0e7H
	DB	061H
	DB	0e6H
	DB	061H
	DB	0c6H
	DB	059H
	DB	086H
	DB	051H
	DB	065H
	DB	049H
	DB	024H
	DB	049H
	DB	0e3H
	DB	038H
	DB	086H
	DB	051H
	DB	045H
	DB	041H
	DB	04H
	DB	041H
	DB	0c3H
	DB	038H
	DB	0c3H
	DB	030H
	DB	0e4H
	DB	030H
	DB	0e3H
	DB	030H
	DB	024H
	DB	039H
	DB	065H
	DB	041H
	DB	04H
	DB	039H
	DB	086H
	DB	041H
	DB	025H
	DB	039H
	DB	0c3H
	DB	020H
	DB	0a7H
	DB	041H
	DB	0c4H
	DB	020H
	DB	082H
	DB	018H
	DB	045H
	DB	031H
	DB	0a3H
	DB	020H
	DB	0e4H
	DB	028H
	DB	04H
	DB	031H
	DB	05H
	DB	031H
	DB	045H
	DB	039H
	DB	066H
	DB	039H
	DB	0a6H
	DB	041H
	DB	066H
	DB	039H
	DB	025H
	DB	031H
	DB	066H
	DB	031H
	DB	04aH
	DB	042H
	DB	04eH
	DB	063H
	DB	08fH
	DB	063H
	DB	0b0H
	DB	05bH
	DB	0d1H
	DB	05bH
	DB	0b0H
	DB	05bH
	DB	0b0H
	DB	05bH
	DB	0b0H
	DB	05bH
	DB	0b0H
	DB	05bH
	DB	0b0H
	DB	05bH
	DB	0b0H
	DB	05bH
	DB	0b0H
	DB	05bH
	DB	0b0H
	DB	05bH
	DB	0b0H
	DB	05bH
	DB	0b0H
	DB	05bH
	DB	0b0H
	DB	05bH
	DB	090H
	DB	05bH
	DB	0b0H
	DB	05bH
	DB	0b0H
	DB	05bH
	DB	0b0H
	DB	05bH
	DB	0b0H
	DB	05bH
	DB	090H
	DB	05bH
	DB	0b0H
	DB	05bH
	DB	0b0H
	DB	05bH
	DB	090H
	DB	05bH
	DB	090H
	DB	05bH
	DB	0b0H
	DB	063H
	DB	090H
	DB	05bH
	DB	090H
	DB	05bH
	DB	090H
	DB	05bH
	DB	090H
	DB	05bH
	DB	090H
	DB	05bH
	DB	090H
	DB	05bH
	DB	090H
	DB	05bH
	DB	090H
	DB	05bH
	DB	090H
	DB	05bH
	DB	090H
	DB	05bH
	DB	090H
	DB	05bH
	DB	090H
	DB	05bH
	DB	08fH
	DB	05bH
	DB	08fH
	DB	05bH
	DB	06fH
	DB	05bH
	DB	090H
	DB	05bH
	DB	08fH
	DB	05bH
	DB	04fH
	DB	053H
	DB	04fH
	DB	05bH
	DB	04fH
	DB	053H
	DB	06fH
	DB	05bH
	DB	04fH
	DB	053H
	DB	06fH
	DB	053H
	DB	06fH
	DB	053H
	DB	06fH
	DB	05bH
	DB	06fH
	DB	053H
	DB	06fH
	DB	053H
	DB	06fH
	DB	05bH
	DB	06fH
	DB	05bH
	DB	06fH
	DB	053H
	DB	04fH
	DB	053H
	DB	06fH
	DB	05bH
	DB	070H
	DB	053H
	DB	06fH
	DB	05bH
	DB	06fH
	DB	05bH
	DB	090H
	DB	05bH
	DB	06fH
	DB	05bH
	DB	070H
	DB	05bH
	DB	070H
	DB	05bH
	DB	06fH
	DB	05bH
	DB	090H
	DB	05bH
	DB	090H
	DB	05bH
	DB	08fH
	DB	05bH
	DB	090H
	DB	05bH
	DB	090H
	DB	05bH
	DB	090H
	DB	05bH
	DB	090H
	DB	05bH
	DB	08fH
	DB	05bH
	DB	090H
	DB	05bH
	DB	090H
	DB	05bH
	DB	090H
	DB	05bH
	DB	08fH
	DB	05bH
	DB	0b0H
	DB	05bH
	DB	090H
	DB	05bH
	DB	08fH
	DB	05bH
	DB	090H
	DB	05bH
	DB	08fH
	DB	05bH
	DB	090H
	DB	05bH
	DB	090H
	DB	05bH
	DB	090H
	DB	05bH
	DB	090H
	DB	05bH
	DB	090H
	DB	05bH
	DB	090H
	DB	05bH
	DB	090H
	DB	05bH
	DB	090H
	DB	05bH
	DB	090H
	DB	05bH
	DB	090H
	DB	063H
	DB	08fH
	DB	05bH
	DB	090H
	DB	05bH
	DB	090H
	DB	05bH
	DB	08fH
	DB	05bH
	DB	0b0H
	DB	063H
	DB	0b0H
	DB	05bH
	DB	0b0H
	DB	05bH
	DB	090H
	DB	05bH
	DB	0b0H
	DB	05bH
	DB	0b0H
	DB	05bH
	DB	0b0H
	DB	05bH
	DB	0b1H
	DB	063H
	DB	0b0H
	DB	05bH
	DB	0b0H
	DB	05bH
	DB	090H
	DB	05bH
	DB	090H
	DB	05bH
	DB	0b0H
	DB	05bH
	DB	0b0H
	DB	063H
	DB	0b0H
	DB	05bH
	DB	0b0H
	DB	05bH
	DB	0d0H
	DB	063H
	DB	0b0H
	DB	063H
	DB	0d0H
	DB	063H
	DB	0b0H
	DB	063H
	DB	0ecH
	DB	05aH
	DB	08H
	DB	04aH
	DB	0e7H
	DB	049H
	DB	08H
	DB	052H
	DB	0c7H
	DB	049H
	DB	0c7H
	DB	041H
	DB	045H
	DB	031H
	DB	045H
	DB	039H
	DB	025H
	DB	031H
	DB	0e4H
	DB	030H
	DB	025H
	DB	039H
	DB	086H
	DB	049H
	DB	065H
	DB	049H
	DB	0e7H
	DB	059H
	DB	049H
	DB	06aH
	DB	0a9H
	DB	07aH
	DB	06cH
	DB	093H
	DB	04bH
	DB	093H
	DB	08cH
	DB	09bH
	DB	06cH
	DB	09bH
	DB	0eeH
	DB	0a3H
	DB	0eH
	DB	0acH
	DB	0edH
	DB	0a3H
	DB	08cH
	DB	09bH
	DB	06bH
	DB	09bH
	DB	0aH
	DB	08bH
	DB	02bH
	DB	08bH
	DB	02bH
	DB	08bH
	DB	02bH
	DB	08bH
	DB	0caH
	DB	082H
	DB	048H
	DB	072H
	DB	07H
	DB	06aH
	DB	07H
	DB	062H
	DB	0c6H
	DB	059H
	DB	085H
	DB	051H
	DB	0e7H
	DB	059H
	DB	0e6H
	DB	059H
	DB	045H
	DB	049H
	DB	044H
	DB	041H
	DB	04H
	DB	039H
	DB	0c3H
	DB	038H
	DB	0c3H
	DB	030H
	DB	0e4H
	DB	030H
	DB	045H
	DB	041H
	DB	0e4H
	DB	038H
	DB	04H
	DB	039H
	DB	0e4H
	DB	030H
	DB	082H
	DB	020H
	DB	046H
	DB	039H
	DB	0c4H
	DB	028H
	DB	022H
	DB	018H
	DB	05H
	DB	031H
	DB	0e4H
	DB	028H
	DB	082H
	DB	020H
	DB	0c4H
	DB	028H
	DB	0c4H
	DB	020H
	DB	0e4H
	DB	028H
	DB	04H
	DB	029H
	DB	0a6H
	DB	041H
	DB	0a7H
	DB	039H
	DB	0c4H
	DB	020H
	DB	0e4H
	DB	020H
	DB	065H
	DB	031H
	DB	04aH
	DB	042H
	DB	02eH
	DB	05bH
	DB	0d0H
	DB	063H
	DB	0b0H
	DB	063H
	DB	0d1H
	DB	063H
	DB	0b0H
	DB	05bH
	DB	0b0H
	DB	063H
	DB	0b0H
	DB	063H
	DB	0b0H
	DB	05bH
	DB	0b0H
	DB	063H
	DB	0b0H
	DB	05bH
	DB	0b0H
	DB	05bH
	DB	0b0H
	DB	063H
	DB	0d0H
	DB	063H
	DB	0b0H
	DB	05bH
	DB	0b0H
	DB	05bH
	DB	0b0H
	DB	063H
	DB	0b0H
	DB	05bH
	DB	0b0H
	DB	05bH
	DB	0b0H
	DB	05bH
	DB	0b0H
	DB	05bH
	DB	0b0H
	DB	05bH
	DB	0b0H
	DB	05bH
	DB	090H
	DB	05bH
	DB	0b0H
	DB	063H
	DB	0b0H
	DB	05bH
	DB	090H
	DB	05bH
	DB	090H
	DB	063H
	DB	08fH
	DB	05bH
	DB	090H
	DB	05bH
	DB	0b0H
	DB	063H
	DB	0b0H
	DB	063H
	DB	08fH
	DB	05bH
	DB	090H
	DB	05bH
	DB	090H
	DB	05bH
	DB	08fH
	DB	05bH
	DB	090H
	DB	05bH
	DB	090H
	DB	05bH
	DB	090H
	DB	05bH
	DB	090H
	DB	05bH
	DB	090H
	DB	05bH
	DB	08fH
	DB	05bH
	DB	090H
	DB	05bH
	DB	04fH
	DB	053H
	DB	06fH
	DB	053H
	DB	04eH
	DB	053H
	DB	06fH
	DB	05bH
	DB	06fH
	DB	05bH
	DB	06fH
	DB	053H
	DB	04fH
	DB	053H
	DB	06fH
	DB	05bH
	DB	06fH
	DB	053H
	DB	06fH
	DB	05bH
	DB	070H
	DB	05bH
	DB	06fH
	DB	05bH
	DB	06fH
	DB	053H
	DB	06fH
	DB	05bH
	DB	090H
	DB	05bH
	DB	06fH
	DB	053H
	DB	070H
	DB	05bH
	DB	090H
	DB	05bH
	DB	090H
	DB	05bH
	DB	06fH
	DB	05bH
	DB	06fH
	DB	05bH
	DB	06fH
	DB	05bH
	DB	090H
	DB	05bH
	DB	06fH
	DB	05bH
	DB	08fH
	DB	05bH
	DB	090H
	DB	05bH
	DB	090H
	DB	05bH
	DB	090H
	DB	05bH
	DB	08fH
	DB	05bH
	DB	090H
	DB	05bH
	DB	090H
	DB	05bH
	DB	08fH
	DB	05bH
	DB	0b0H
	DB	05bH
	DB	08fH
	DB	053H
	DB	0b0H
	DB	05bH
	DB	08fH
	DB	053H
	DB	0b0H
	DB	05bH
	DB	090H
	DB	05bH
	DB	090H
	DB	05bH
	DB	090H
	DB	05bH
	DB	090H
	DB	05bH
	DB	090H
	DB	05bH
	DB	090H
	DB	05bH
	DB	090H
	DB	05bH
	DB	090H
	DB	05bH
	DB	0b0H
	DB	05bH
	DB	0b0H
	DB	063H
	DB	0b0H
	DB	063H
	DB	0b0H
	DB	05bH
	DB	0b0H
	DB	063H
	DB	0b0H
	DB	05bH
	DB	0b0H
	DB	05bH
	DB	0b0H
	DB	063H
	DB	0b0H
	DB	05bH
	DB	0b0H
	DB	05bH
	DB	0b1H
	DB	05bH
	DB	0b0H
	DB	05bH
	DB	0b0H
	DB	05bH
	DB	0d1H
	DB	063H
	DB	0b0H
	DB	05bH
	DB	090H
	DB	05bH
	DB	0b0H
	DB	05bH
	DB	0b0H
	DB	05bH
	DB	0b0H
	DB	05bH
	DB	0b0H
	DB	05bH
	DB	0b0H
	DB	05bH
	DB	0b0H
	DB	05bH
	DB	0b0H
	DB	063H
	DB	0d0H
	DB	063H
	DB	0d1H
	DB	05bH
	DB	0d1H
	DB	063H
	DB	0b0H
	DB	063H
	DB	0d0H
	DB	06bH
	DB	02dH
	DB	05bH
	DB	089H
	DB	05aH
	DB	08aH
	DB	062H
	DB	048H
	DB	05aH
	DB	08H
	DB	052H
	DB	0c7H
	DB	049H
	DB	04H
	DB	029H
	DB	04H
	DB	031H
	DB	045H
	DB	039H
	DB	0e4H
	DB	030H
	DB	04H
	DB	031H
	DB	024H
	DB	041H
	DB	0e7H
	DB	059H
	DB	089H
	DB	072H
	DB	04cH
	DB	08bH
	DB	08cH
	DB	09bH
	DB	0eeH
	DB	0abH
	DB	06fH
	DB	0bcH
	DB	090H
	DB	0c4H
	DB	06fH
	DB	0bcH
	DB	0d0H
	DB	0c4H
	DB	0f1H
	DB	0ccH
	DB	0f1H
	DB	0ccH
	DB	0d0H
	DB	0ccH
	DB	0b0H
	DB	0c4H
	DB	08fH
	DB	0bcH
	DB	06fH
	DB	0bcH
	DB	04eH
	DB	0b4H
	DB	0edH
	DB	0abH
	DB	0cdH
	DB	0a3H
	DB	04aH
	DB	093H
	DB	02aH
	DB	08bH
	DB	0caH
	DB	08aH
	DB	0eaH
	DB	08aH
	DB	089H
	DB	07aH
	DB	0c9H
	DB	07aH
	DB	068H
	DB	072H
	DB	048H
	DB	06aH
	DB	0a6H
	DB	059H
	DB	0c6H
	DB	059H
	DB	065H
	DB	051H
	DB	045H
	DB	049H
	DB	024H
	DB	041H
	DB	04H
	DB	039H
	DB	04H
	DB	039H
	DB	0a2H
	DB	028H
	DB	0e4H
	DB	030H
	DB	04H
	DB	031H
	DB	0c4H
	DB	030H
	DB	0e4H
	DB	030H
	DB	0c4H
	DB	028H
	DB	062H
	DB	020H
	DB	0a3H
	DB	020H
	DB	045H
	DB	039H
	DB	0c4H
	DB	028H
	DB	083H
	DB	020H
	DB	0a3H
	DB	020H
	DB	0c4H
	DB	028H
	DB	025H
	DB	031H
	DB	0e4H
	DB	020H
	DB	066H
	DB	031H
	DB	025H
	DB	029H
	DB	0a3H
	DB	018H
	DB	0a3H
	DB	018H
	DB	086H
	DB	031H
	DB	08aH
	DB	04aH
	DB	06fH
	DB	063H
	DB	0b0H
	DB	063H
	DB	0d1H
	DB	05bH
	DB	0d1H
	DB	063H
	DB	0d1H
	DB	063H
	DB	0d1H
	DB	063H
	DB	0d0H
	DB	05bH
	DB	0d1H
	DB	05bH
	DB	0d1H
	DB	063H
	DB	0b0H
	DB	05bH
	DB	0d1H
	DB	05bH
	DB	0d1H
	DB	063H
	DB	0b0H
	DB	05bH
	DB	0d1H
	DB	05bH
	DB	0d1H
	DB	063H
	DB	0d1H
	DB	063H
	DB	0b1H
	DB	05bH
	DB	0b1H
	DB	05bH
	DB	0b1H
	DB	05bH
	DB	0b0H
	DB	05bH
	DB	0b0H
	DB	05bH
	DB	0b0H
	DB	063H
	DB	0b0H
	DB	05bH
	DB	0b0H
	DB	05bH
	DB	0b0H
	DB	05bH
	DB	0b0H
	DB	063H
	DB	0b0H
	DB	05bH
	DB	0b0H
	DB	063H
	DB	0b0H
	DB	063H
	DB	090H
	DB	05bH
	DB	0b0H
	DB	05bH
	DB	090H
	DB	05bH
	DB	0b0H
	DB	063H
	DB	090H
	DB	063H
	DB	090H
	DB	05bH
	DB	090H
	DB	05bH
	DB	090H
	DB	05bH
	DB	090H
	DB	05bH
	DB	090H
	DB	05bH
	DB	090H
	DB	05bH
	DB	0b0H
	DB	05bH
	DB	06fH
	DB	05bH
	DB	04fH
	DB	053H
	DB	06fH
	DB	053H
	DB	06fH
	DB	05bH
	DB	06fH
	DB	05bH
	DB	06fH
	DB	05bH
	DB	06fH
	DB	05bH
	DB	06fH
	DB	05bH
	DB	06fH
	DB	05bH
	DB	06fH
	DB	053H
	DB	06fH
	DB	05bH
	DB	06fH
	DB	05bH
	DB	070H
	DB	05bH
	DB	070H
	DB	05bH
	DB	06fH
	DB	05bH
	DB	090H
	DB	05bH
	DB	08fH
	DB	05bH
	DB	06fH
	DB	05bH
	DB	06fH
	DB	053H
	DB	090H
	DB	05bH
	DB	090H
	DB	05bH
	DB	090H
	DB	05bH
	DB	090H
	DB	05bH
	DB	090H
	DB	05bH
	DB	06fH
	DB	053H
	DB	090H
	DB	05bH
	DB	090H
	DB	05bH
	DB	090H
	DB	05bH
	DB	08fH
	DB	053H
	DB	090H
	DB	05bH
	DB	090H
	DB	05bH
	DB	0afH
	DB	05bH
	DB	0b0H
	DB	05bH
	DB	090H
	DB	05bH
	DB	0afH
	DB	05bH
	DB	08fH
	DB	05bH
	DB	0b0H
	DB	05bH
	DB	090H
	DB	05bH
	DB	0b0H
	DB	05bH
	DB	090H
	DB	05bH
	DB	0b0H
	DB	05bH
	DB	090H
	DB	05bH
	DB	090H
	DB	05bH
	DB	0b0H
	DB	063H
	DB	090H
	DB	05bH
	DB	090H
	DB	063H
	DB	0b0H
	DB	05bH
	DB	090H
	DB	05bH
	DB	0b0H
	DB	063H
	DB	0b0H
	DB	05bH
	DB	0d1H
	DB	05bH
	DB	0d0H
	DB	05bH
	DB	0b0H
	DB	05bH
	DB	0d1H
	DB	05bH
	DB	0b0H
	DB	05bH
	DB	0b0H
	DB	063H
	DB	0d1H
	DB	05bH
	DB	0b0H
	DB	05bH
	DB	0d1H
	DB	05bH
	DB	0b1H
	DB	05bH
	DB	0b0H
	DB	05bH
	DB	0b0H
	DB	05bH
	DB	0d1H
	DB	05bH
	DB	0d1H
	DB	05bH
	DB	0d1H
	DB	063H
	DB	0d1H
	DB	063H
	DB	0d1H
	DB	05bH
	DB	0b0H
	DB	05bH
	DB	0b1H
	DB	063H
	DB	0d1H
	DB	05bH
	DB	0b1H
	DB	063H
	DB	0afH
	DB	063H
	DB	0cH
	DB	05bH
	DB	0aaH
	DB	05aH
	DB	0aaH
	DB	062H
	DB	08aH
	DB	062H
	DB	048H
	DB	05aH
	DB	0a6H
	DB	049H
	DB	0e7H
	DB	049H
	DB	089H
	DB	062H
	DB	0ebH
	DB	072H
	DB	049H
	DB	062H
	DB	08H
	DB	05aH
	DB	0e7H
	DB	059H
	DB	069H
	DB	072H
	DB	04bH
	DB	08bH
	DB	0eH
	DB	0acH
	DB	06fH
	DB	0bcH
	DB	070H
	DB	0bcH
	DB	0b0H
	DB	0ccH
	DB	0f1H
	DB	0d4H
	DB	011H
	DB	0d5H
	DB	032H
	DB	0ddH
	DB	072H
	DB	0ddH
	DB	073H
	DB	0ddH
	DB	093H
	DB	0e5H
	DB	093H
	DB	0e5H
	DB	093H
	DB	0e5H
	DB	093H
	DB	0e5H
	DB	052H
	DB	0ddH
	DB	011H
	DB	0cdH
	DB	0d0H
	DB	0c4H
	DB	0b0H
	DB	0c4H
	DB	02eH
	DB	0b4H
	DB	0edH
	DB	0abH
	DB	06cH
	DB	09bH
	DB	04bH
	DB	09bH
	DB	02bH
	DB	093H
	DB	06cH
	DB	09bH
	DB	0eaH
	DB	08aH
	DB	0eaH
	DB	082H
	DB	0caH
	DB	07aH
	DB	048H
	DB	06aH
	DB	0e7H
	DB	061H
	DB	0a6H
	DB	059H
	DB	065H
	DB	049H
	DB	065H
	DB	049H
	DB	04H
	DB	039H
	DB	0e3H
	DB	030H
	DB	0c3H
	DB	030H
	DB	045H
	DB	039H
	DB	045H
	DB	039H
	DB	0c3H
	DB	030H
	DB	083H
	DB	028H
	DB	083H
	DB	020H
	DB	0a4H
	DB	028H
	DB	025H
	DB	031H
	DB	025H
	DB	031H
	DB	083H
	DB	018H
	DB	0a3H
	DB	020H
	DB	0e5H
	DB	028H
	DB	0a4H
	DB	020H
	DB	0a3H
	DB	020H
	DB	05H
	DB	029H
	DB	087H
	DB	039H
	DB	083H
	DB	018H
	DB	0a3H
	DB	018H
	DB	0c3H
	DB	018H
	DB	0c8H
	DB	041H
	DB	0dH
	DB	063H
	DB	0b0H
	DB	063H
	DB	0d1H
	DB	05bH
	DB	0d1H
	DB	05bH
	DB	0d1H
	DB	063H
	DB	0d1H
	DB	05bH
	DB	0d1H
	DB	05bH
	DB	0d1H
	DB	063H
	DB	0d1H
	DB	063H
	DB	0d1H
	DB	063H
	DB	0d1H
	DB	063H
	DB	0d1H
	DB	063H
	DB	0d1H
	DB	05bH
	DB	0b0H
	DB	05bH
	DB	0d0H
	DB	05bH
	DB	0d1H
	DB	05bH
	DB	0d1H
	DB	063H
	DB	0d0H
	DB	063H
	DB	0b1H
	DB	05bH
	DB	0b0H
	DB	05bH
	DB	0b1H
	DB	05bH
	DB	0d1H
	DB	063H
	DB	0d1H
	DB	063H
	DB	0b0H
	DB	05bH
	DB	0d1H
	DB	05bH
	DB	0d1H
	DB	05bH
	DB	0b0H
	DB	05bH
	DB	0b0H
	DB	05bH
	DB	0b1H
	DB	063H
	DB	0b0H
	DB	05bH
	DB	090H
	DB	05bH
	DB	0b0H
	DB	063H
	DB	0b0H
	DB	063H
	DB	0b0H
	DB	05bH
	DB	0b0H
	DB	063H
	DB	090H
	DB	05bH
	DB	0b0H
	DB	063H
	DB	0b0H
	DB	063H
	DB	090H
	DB	05bH
	DB	090H
	DB	05bH
	DB	090H
	DB	05bH
	DB	06fH
	DB	05bH
	DB	06fH
	DB	05bH
	DB	06fH
	DB	05bH
	DB	070H
	DB	05bH
	DB	070H
	DB	05bH
	DB	06fH
	DB	053H
	DB	06fH
	DB	05bH
	DB	070H
	DB	05bH
	DB	070H
	DB	05bH
	DB	070H
	DB	05bH
	DB	090H
	DB	05bH
	DB	06fH
	DB	053H
	DB	06fH
	DB	05bH
	DB	090H
	DB	05bH
	DB	090H
	DB	05bH
	DB	090H
	DB	05bH
	DB	06fH
	DB	05bH
	DB	090H
	DB	05bH
	DB	090H
	DB	05bH
	DB	090H
	DB	05bH
	DB	090H
	DB	05bH
	DB	090H
	DB	05bH
	DB	090H
	DB	05bH
	DB	08fH
	DB	05bH
	DB	08fH
	DB	05bH
	DB	090H
	DB	05bH
	DB	0b0H
	DB	05bH
	DB	0b0H
	DB	05bH
	DB	0b0H
	DB	05bH
	DB	090H
	DB	05bH
	DB	090H
	DB	05bH
	DB	090H
	DB	053H
	DB	0b0H
	DB	05bH
	DB	090H
	DB	05bH
	DB	090H
	DB	05bH
	DB	0b0H
	DB	05bH
	DB	0b0H
	DB	05bH
	DB	0b0H
	DB	05bH
	DB	0b0H
	DB	05bH
	DB	0b0H
	DB	05bH
	DB	090H
	DB	05bH
	DB	090H
	DB	05bH
	DB	090H
	DB	05bH
	DB	0b0H
	DB	05bH
	DB	0b0H
	DB	05bH
	DB	0b1H
	DB	05bH
	DB	0b0H
	DB	063H
	DB	0b1H
	DB	05bH
	DB	0b0H
	DB	05bH
	DB	0b0H
	DB	05bH
	DB	0b1H
	DB	05bH
	DB	0b0H
	DB	05bH
	DB	0b0H
	DB	05bH
	DB	0d1H
	DB	063H
	DB	0d1H
	DB	063H
	DB	0d0H
	DB	05bH
	DB	0d1H
	DB	063H
	DB	0b1H
	DB	05bH
	DB	0d0H
	DB	05bH
	DB	0d1H
	DB	063H
	DB	0d1H
	DB	05bH
	DB	0d1H
	DB	063H
	DB	0d1H
	DB	063H
	DB	0d0H
	DB	05bH
	DB	0d1H
	DB	063H
	DB	0d1H
	DB	063H
	DB	0d1H
	DB	05bH
	DB	0d1H
	DB	063H
	DB	0d1H
	DB	05bH
	DB	0d0H
	DB	05bH
	DB	0b0H
	DB	063H
	DB	02dH
	DB	063H
	DB	049H
	DB	04aH
	DB	08H
	DB	052H
	DB	069H
	DB	05aH
	DB	08aH
	DB	062H
	DB	07H
	DB	052H
	DB	0c6H
	DB	049H
	DB	0aaH
	DB	06aH
	DB	02cH
	DB	07bH
	DB	0bH
	DB	073H
	DB	0bH
	DB	07bH
	DB	0eaH
	DB	07aH
	DB	04cH
	DB	08bH
	DB	0eeH
	DB	0a3H
	DB	06fH
	DB	0b4H
	DB	0b0H
	DB	0c4H
	DB	0f1H
	DB	0ccH
	DB	0f1H
	DB	0ccH
	DB	011H
	DB	0d5H
	DB	052H
	DB	0ddH
	DB	052H
	DB	0e5H
	DB	073H
	DB	0e5H
	DB	093H
	DB	0e5H
	DB	0b4H
	DB	0edH
	DB	0b4H
	DB	0edH
	DB	0d4H
	DB	0e5H
	DB	0d4H
	DB	0edH
	DB	0f5H
	DB	0edH
	DB	0b4H
	DB	0edH
	DB	0b4H
	DB	0e5H
	DB	093H
	DB	0e5H
	DB	093H
	DB	0e5H
	DB	072H
	DB	0ddH
	DB	0f1H
	DB	0ccH
	DB	0b0H
	DB	0ccH
	DB	0d1H
	DB	0ccH
	DB	04fH
	DB	0bcH
	DB	06fH
	DB	0bcH
	DB	0adH
	DB	0a3H
	DB	0cdH
	DB	0abH
	DB	0cdH
	DB	0a3H
	DB	04cH
	DB	093H
	DB	0eaH
	DB	082H
	DB	068H
	DB	072H
	DB	0e7H
	DB	059H
	DB	0e7H
	DB	059H
	DB	085H
	DB	049H
	DB	024H
	DB	041H
	DB	024H
	DB	039H
	DB	065H
	DB	049H
	DB	065H
	DB	041H
	DB	0e4H
	DB	038H
	DB	0a3H
	DB	030H
	DB	0c4H
	DB	030H
	DB	0a3H
	DB	028H
	DB	0e4H
	DB	030H
	DB	0c4H
	DB	028H
	DB	083H
	DB	020H
	DB	083H
	DB	020H
	DB	0e4H
	DB	028H
	DB	062H
	DB	018H
	DB	083H
	DB	018H
	DB	0c4H
	DB	020H
	DB	04H
	DB	029H
	DB	0a3H
	DB	020H
	DB	083H
	DB	018H
	DB	083H
	DB	010H
	DB	025H
	DB	029H
	DB	049H
	DB	04aH
	DB	0afH
	DB	063H
	DB	0d1H
	DB	063H
	DB	0d1H
	DB	063H
	DB	0d0H
	DB	05bH
	DB	0d1H
	DB	063H
	DB	0d1H
	DB	063H
	DB	0d0H
	DB	05bH
	DB	0d1H
	DB	05bH
	DB	0f1H
	DB	063H
	DB	0d1H
	DB	063H
	DB	0d0H
	DB	05bH
	DB	0d1H
	DB	063H
	DB	0d1H
	DB	063H
	DB	0d1H
	DB	05bH
	DB	0d0H
	DB	05bH
	DB	0d1H
	DB	063H
	DB	0d1H
	DB	05bH
	DB	0d1H
	DB	063H
	DB	0d1H
	DB	063H
	DB	0d1H
	DB	05bH
	DB	0d1H
	DB	05bH
	DB	0d1H
	DB	063H
	DB	0d1H
	DB	05bH
	DB	0d0H
	DB	063H
	DB	0d1H
	DB	063H
	DB	0b1H
	DB	05bH
	DB	0b0H
	DB	05bH
	DB	0b1H
	DB	063H
	DB	0d1H
	DB	063H
	DB	0b1H
	DB	063H
	DB	0b0H
	DB	05bH
	DB	0b1H
	DB	05bH
	DB	0b1H
	DB	05bH
	DB	0b0H
	DB	05bH
	DB	0b0H
	DB	05bH
	DB	0b1H
	DB	05bH
	DB	0b0H
	DB	063H
	DB	0b0H
	DB	05bH
	DB	0b0H
	DB	05bH
	DB	0b0H
	DB	05bH
	DB	06fH
	DB	053H
	DB	06fH
	DB	05bH
	DB	06fH
	DB	05bH
	DB	06fH
	DB	05bH
	DB	090H
	DB	05bH
	DB	06fH
	DB	053H
	DB	070H
	DB	05bH
	DB	08fH
	DB	05bH
	DB	06fH
	DB	053H
	DB	090H
	DB	05bH
	DB	090H
	DB	05bH
	DB	090H
	DB	05bH
	DB	08fH
	DB	05bH
	DB	090H
	DB	05bH
	DB	090H
	DB	05bH
	DB	090H
	DB	05bH
	DB	0b0H
	DB	05bH
	DB	090H
	DB	05bH
	DB	090H
	DB	05bH
	DB	08fH
	DB	05bH
	DB	090H
	DB	05bH
	DB	090H
	DB	05bH
	DB	090H
	DB	05bH
	DB	090H
	DB	05bH
	DB	090H
	DB	05bH
	DB	0b0H
	DB	05bH
	DB	090H
	DB	05bH
	DB	090H
	DB	05bH
	DB	08fH
	DB	05bH
	DB	0b0H
	DB	05bH
	DB	090H
	DB	05bH
	DB	0b0H
	DB	05bH
	DB	0b0H
	DB	05bH
	DB	0b0H
	DB	05bH
	DB	0b0H
	DB	05bH
	DB	0b0H
	DB	05bH
	DB	0b0H
	DB	05bH
	DB	0b1H
	DB	05bH
	DB	0b1H
	DB	063H
	DB	0b1H
	DB	063H
	DB	0b0H
	DB	05bH
	DB	0b0H
	DB	05bH
	DB	0b0H
	DB	063H
	DB	0b1H
	DB	05bH
	DB	0b1H
	DB	05bH
	DB	0d1H
	DB	063H
	DB	0b0H
	DB	05bH
	DB	0b1H
	DB	063H
	DB	0b1H
	DB	05bH
	DB	0d1H
	DB	05bH
	DB	0d1H
	DB	063H
	DB	0b1H
	DB	063H
	DB	0d1H
	DB	05bH
	DB	0d1H
	DB	063H
	DB	0d1H
	DB	05bH
	DB	0d1H
	DB	05bH
	DB	0b0H
	DB	05bH
	DB	0d1H
	DB	063H
	DB	0d0H
	DB	05bH
	DB	0d1H
	DB	063H
	DB	0d1H
	DB	063H
	DB	0d1H
	DB	05bH
	DB	0d1H
	DB	063H
	DB	0d1H
	DB	063H
	DB	0d0H
	DB	05bH
	DB	0d1H
	DB	063H
	DB	0d1H
	DB	05bH
	DB	0f1H
	DB	063H
	DB	0d0H
	DB	063H
	DB	0b0H
	DB	063H
	DB	04eH
	DB	063H
	DB	029H
	DB	04aH
	DB	045H
	DB	031H
	DB	024H
	DB	031H
	DB	089H
	DB	062H
	DB	028H
	DB	05aH
	DB	0a6H
	DB	049H
	DB	07H
	DB	052H
	DB	089H
	DB	06aH
	DB	0bH
	DB	07bH
	DB	0adH
	DB	08bH
	DB	0cdH
	DB	09bH
	DB	0cdH
	DB	09bH
	DB	090H
	DB	0bcH
	DB	0d1H
	DB	0c4H
	DB	0d1H
	DB	0ccH
	DB	011H
	DB	0d5H
	DB	032H
	DB	0ddH
	DB	052H
	DB	0ddH
	DB	072H
	DB	0e5H
	DB	093H
	DB	0e5H
	DB	0b3H
	DB	0edH
	DB	0b3H
	DB	0edH
	DB	0b4H
	DB	0e5H
	DB	0d4H
	DB	0edH
	DB	0d4H
	DB	0edH
	DB	0f4H
	DB	0edH
	DB	0f5H
	DB	0f5H
	DB	015H
	DB	0f6H
	DB	036H
	DB	0f6H
	DB	015H
	DB	0f6H
	DB	015H
	DB	0f6H
	DB	015H
	DB	0f6H
	DB	015H
	DB	0f6H
	DB	0f5H
	DB	0f5H
	DB	0b3H
	DB	0edH
	DB	093H
	DB	0edH
	DB	032H
	DB	0ddH
	DB	052H
	DB	0ddH
	DB	0b0H
	DB	0ccH
	DB	090H
	DB	0ccH
	DB	090H
	DB	0c4H
	DB	04fH
	DB	0bcH
	DB	0cdH
	DB	0abH
	DB	02bH
	DB	093H
	DB	0caH
	DB	082H
	DB	089H
	DB	072H
	DB	0e6H
	DB	059H
	DB	085H
	DB	051H
	DB	085H
	DB	051H
	DB	065H
	DB	049H
	DB	0a6H
	DB	051H
	DB	024H
	DB	041H
	DB	024H
	DB	039H
	DB	0e4H
	DB	030H
	DB	0c3H
	DB	028H
	DB	0c4H
	DB	030H
	DB	0a3H
	DB	028H
	DB	083H
	DB	020H
	DB	0c4H
	DB	028H
	DB	0a3H
	DB	020H
	DB	062H
	DB	018H
	DB	063H
	DB	018H
	DB	0c4H
	DB	020H
	DB	063H
	DB	018H
	DB	0e4H
	DB	028H
	DB	083H
	DB	018H
	DB	083H
	DB	010H
	DB	0e4H
	DB	020H
	DB	0a6H
	DB	031H
	DB	04eH
	DB	063H
	DB	0d1H
	DB	06bH
	DB	0f1H
	DB	063H
	DB	0d1H
	DB	05bH
	DB	0f1H
	DB	063H
	DB	0d1H
	DB	063H
	DB	0d1H
	DB	063H
	DB	0d0H
	DB	05bH
	DB	0f1H
	DB	063H
	DB	0d1H
	DB	05bH
	DB	0d0H
	DB	05bH
	DB	0d1H
	DB	063H
	DB	0d1H
	DB	063H
	DB	0d1H
	DB	063H
	DB	0d1H
	DB	063H
	DB	0d1H
	DB	063H
	DB	0d0H
	DB	05bH
	DB	0d1H
	DB	063H
	DB	0d1H
	DB	063H
	DB	0d1H
	DB	063H
	DB	0d0H
	DB	05bH
	DB	0d1H
	DB	063H
	DB	0d0H
	DB	05bH
	DB	0d1H
	DB	05bH
	DB	0d1H
	DB	063H
	DB	0d0H
	DB	05bH
	DB	0d1H
	DB	063H
	DB	0b1H
	DB	05bH
	DB	0d1H
	DB	063H
	DB	0b0H
	DB	05bH
	DB	0b1H
	DB	05bH
	DB	0b0H
	DB	05bH
	DB	0b1H
	DB	063H
	DB	0b1H
	DB	063H
	DB	0b1H
	DB	063H
	DB	0b0H
	DB	05bH
	DB	0b0H
	DB	05bH
	DB	0b1H
	DB	05bH
	DB	090H
	DB	05bH
	DB	0b0H
	DB	05bH
	DB	06fH
	DB	05bH
	DB	070H
	DB	05bH
	DB	090H
	DB	05bH
	DB	06fH
	DB	053H
	DB	06fH
	DB	05bH
	DB	090H
	DB	05bH
	DB	08fH
	DB	05bH
	DB	090H
	DB	05bH
	DB	06fH
	DB	05bH
	DB	06fH
	DB	05bH
	DB	08fH
	DB	05bH
	DB	090H
	DB	05bH
	DB	090H
	DB	05bH
	DB	090H
	DB	05bH
	DB	08fH
	DB	05bH
	DB	090H
	DB	05bH
	DB	0b0H
	DB	05bH
	DB	090H
	DB	05bH
	DB	090H
	DB	05bH
	DB	090H
	DB	05bH
	DB	090H
	DB	05bH
	DB	090H
	DB	05bH
	DB	08fH
	DB	05bH
	DB	090H
	DB	05bH
	DB	090H
	DB	05bH
	DB	090H
	DB	05bH
	DB	0b0H
	DB	05bH
	DB	090H
	DB	05bH
	DB	0b0H
	DB	05bH
	DB	0b0H
	DB	05bH
	DB	0b0H
	DB	05bH
	DB	0b0H
	DB	05bH
	DB	0b0H
	DB	05bH
	DB	0b0H
	DB	05bH
	DB	090H
	DB	05bH
	DB	0b0H
	DB	05bH
	DB	0b0H
	DB	05bH
	DB	0b1H
	DB	05bH
	DB	0d0H
	DB	05bH
	DB	0b0H
	DB	05bH
	DB	0b1H
	DB	05bH
	DB	0d1H
	DB	063H
	DB	0d1H
	DB	063H
	DB	0d1H
	DB	063H
	DB	0d0H
	DB	05bH
	DB	0d0H
	DB	063H
	DB	0d1H
	DB	05bH
	DB	0b0H
	DB	05bH
	DB	0d0H
	DB	063H
	DB	0d1H
	DB	063H
	DB	0d1H
	DB	063H
	DB	0d1H
	DB	05bH
	DB	0d1H
	DB	063H
	DB	0d1H
	DB	063H
	DB	0d1H
	DB	063H
	DB	0d0H
	DB	05bH
	DB	0b1H
	DB	05bH
	DB	0d1H
	DB	063H
	DB	0d1H
	DB	063H
	DB	0d1H
	DB	05bH
	DB	0d1H
	DB	063H
	DB	0f1H
	DB	063H
	DB	0d1H
	DB	05bH
	DB	0f1H
	DB	063H
	DB	0d1H
	DB	063H
	DB	0f1H
	DB	063H
	DB	0d1H
	DB	063H
	DB	0d1H
	DB	063H
	DB	0d0H
	DB	063H
	DB	06eH
	DB	063H
	DB	06aH
	DB	04aH
	DB	025H
	DB	031H
	DB	024H
	DB	031H
	DB	0e7H
	DB	049H
	DB	0e8H
	DB	051H
	DB	0c6H
	DB	049H
	DB	028H
	DB	05aH
	DB	069H
	DB	062H
	DB	0a9H
	DB	072H
	DB	0eaH
	DB	07aH
	DB	02bH
	DB	083H
	DB	0cdH
	DB	09bH
	DB	04fH
	DB	0b4H
	DB	011H
	DB	0cdH
	DB	011H
	DB	0d5H
	DB	011H
	DB	0d5H
	DB	052H
	DB	0ddH
	DB	052H
	DB	0ddH
	DB	073H
	DB	0e5H
	DB	093H
	DB	0e5H
	DB	093H
	DB	0e5H
	DB	0b3H
	DB	0edH
	DB	0b4H
	DB	0edH
	DB	0d4H
	DB	0edH
	DB	0f4H
	DB	0edH
	DB	0d4H
	DB	0edH
	DB	015H
	DB	0f6H
	DB	015H
	DB	0f6H
	DB	036H
	DB	0f6H
	DB	056H
	DB	0feH
	DB	035H
	DB	0f6H
	DB	036H
	DB	0f6H
	DB	036H
	DB	0feH
	DB	036H
	DB	0f6H
	DB	035H
	DB	0f6H
	DB	0f5H
	DB	0f5H
	DB	015H
	DB	0f6H
	DB	0b4H
	DB	0edH
	DB	0f5H
	DB	0edH
	DB	0b4H
	DB	0edH
	DB	093H
	DB	0e5H
	DB	073H
	DB	0ddH
	DB	032H
	DB	0ddH
	DB	090H
	DB	0c4H
	DB	02fH
	DB	0b4H
	DB	04bH
	DB	09bH
	DB	0a9H
	DB	082H
	DB	068H
	DB	072H
	DB	027H
	DB	06aH
	DB	0e7H
	DB	061H
	DB	0a6H
	DB	059H
	DB	0c6H
	DB	059H
	DB	065H
	DB	049H
	DB	065H
	DB	041H
	DB	044H
	DB	041H
	DB	04H
	DB	039H
	DB	0e3H
	DB	030H
	DB	0a2H
	DB	028H
	DB	0a3H
	DB	020H
	DB	0c3H
	DB	028H
	DB	083H
	DB	020H
	DB	062H
	DB	018H
	DB	083H
	DB	020H
	DB	0a3H
	DB	020H
	DB	063H
	DB	018H
	DB	0c4H
	DB	020H
	DB	083H
	DB	018H
	DB	063H
	DB	010H
	DB	083H
	DB	018H
	DB	066H
	DB	031H
	DB	06bH
	DB	052H
	DB	0d0H
	DB	06bH
	DB	0f1H
	DB	063H
	DB	0f1H
	DB	063H
	DB	0f1H
	DB	063H
	DB	0f1H
	DB	063H
	DB	0d1H
	DB	063H
	DB	0d1H
	DB	063H
	DB	0f1H
	DB	063H
	DB	0d1H
	DB	05bH
	DB	0d1H
	DB	063H
	DB	0f1H
	DB	063H
	DB	0d1H
	DB	05bH
	DB	0d1H
	DB	05bH
	DB	0d1H
	DB	063H
	DB	0d1H
	DB	063H
	DB	0d1H
	DB	05bH
	DB	0d0H
	DB	05bH
	DB	0d1H
	DB	063H
	DB	0d1H
	DB	063H
	DB	0d1H
	DB	05bH
	DB	0d1H
	DB	063H
	DB	0d0H
	DB	05bH
	DB	0d1H
	DB	063H
	DB	0d1H
	DB	063H
	DB	0d0H
	DB	05bH
	DB	0d1H
	DB	063H
	DB	0d1H
	DB	05bH
	DB	0d1H
	DB	05bH
	DB	0d0H
	DB	05bH
	DB	0d1H
	DB	063H
	DB	0b0H
	DB	05bH
	DB	0b0H
	DB	05bH
	DB	0d0H
	DB	05bH
	DB	0b0H
	DB	05bH
	DB	0b1H
	DB	05bH
	DB	0d1H
	DB	063H
	DB	0b1H
	DB	05bH
	DB	0b0H
	DB	05bH
	DB	0d0H
	DB	063H
	DB	06fH
	DB	05bH
	DB	06fH
	DB	053H
	DB	06fH
	DB	053H
	DB	06fH
	DB	05bH
	DB	070H
	DB	05bH
	DB	090H
	DB	05bH
	DB	06fH
	DB	05bH
	DB	090H
	DB	05bH
	DB	070H
	DB	05bH
	DB	08fH
	DB	05bH
	DB	090H
	DB	05bH
	DB	090H
	DB	05bH
	DB	06fH
	DB	05bH
	DB	090H
	DB	05bH
	DB	090H
	DB	05bH
	DB	090H
	DB	05bH
	DB	090H
	DB	05bH
	DB	090H
	DB	05bH
	DB	0b0H
	DB	063H
	DB	090H
	DB	05bH
	DB	0b0H
	DB	063H
	DB	0b0H
	DB	063H
	DB	090H
	DB	05bH
	DB	0b0H
	DB	05bH
	DB	090H
	DB	05bH
	DB	0b0H
	DB	05bH
	DB	0b0H
	DB	05bH
	DB	0b0H
	DB	05bH
	DB	090H
	DB	05bH
	DB	0b0H
	DB	05bH
	DB	0b0H
	DB	05bH
	DB	090H
	DB	05bH
	DB	0b0H
	DB	05bH
	DB	0b0H
	DB	05bH
	DB	0b1H
	DB	05bH
	DB	0b1H
	DB	063H
	DB	0b1H
	DB	063H
	DB	0d1H
	DB	063H
	DB	0d1H
	DB	063H
	DB	0d1H
	DB	05bH
	DB	0b0H
	DB	05bH
	DB	0d1H
	DB	05bH
	DB	0d1H
	DB	05bH
	DB	0d0H
	DB	05bH
	DB	0d1H
	DB	063H
	DB	0b0H
	DB	05bH
	DB	0d1H
	DB	063H
	DB	0d1H
	DB	063H
	DB	0d0H
	DB	05bH
	DB	0d0H
	DB	05bH
	DB	0d1H
	DB	05bH
	DB	0f1H
	DB	063H
	DB	0d0H
	DB	063H
	DB	0d1H
	DB	05bH
	DB	0d1H
	DB	063H
	DB	0d1H
	DB	063H
	DB	0d1H
	DB	063H
	DB	0d1H
	DB	05bH
	DB	0f1H
	DB	063H
	DB	0d1H
	DB	063H
	DB	0d1H
	DB	05bH
	DB	0f1H
	DB	063H
	DB	0f1H
	DB	063H
	DB	0d1H
	DB	05bH
	DB	0f1H
	DB	063H
	DB	0f1H
	DB	063H
	DB	0f1H
	DB	063H
	DB	0f1H
	DB	063H
	DB	06eH
	DB	063H
	DB	08aH
	DB	052H
	DB	086H
	DB	039H
	DB	024H
	DB	031H
	DB	0a6H
	DB	041H
	DB	0e8H
	DB	049H
	DB	08H
	DB	04aH
	DB	07H
	DB	052H
	DB	028H
	DB	05aH
	DB	027H
	DB	05aH
	DB	0eaH
	DB	072H
	DB	0adH
	DB	093H
	DB	0cdH
	DB	09bH
	DB	090H
	DB	0b4H
	DB	0d0H
	DB	0c4H
	DB	0f1H
	DB	0ccH
	DB	011H
	DB	0d5H
	DB	012H
	DB	0ddH
	DB	052H
	DB	0e5H
	DB	073H
	DB	0e5H
	DB	093H
	DB	0edH
	DB	093H
	DB	0edH
	DB	0b3H
	DB	0edH
	DB	0b4H
	DB	0edH
	DB	0f5H
	DB	0f5H
	DB	0f5H
	DB	0f5H
	DB	0f5H
	DB	0f5H
	DB	015H
	DB	0f6H
	DB	036H
	DB	0feH
	DB	015H
	DB	0feH
	DB	036H
	DB	0feH
	DB	056H
	DB	0f6H
	DB	035H
	DB	0f6H
	DB	035H
	DB	0f6H
	DB	056H
	DB	0feH
	DB	076H
	DB	0feH
	DB	076H
	DB	0feH
	DB	076H
	DB	0feH
	DB	056H
	DB	0f6H
	DB	056H
	DB	0f6H
	DB	036H
	DB	0feH
	DB	036H
	DB	0feH
	DB	015H
	DB	0f6H
	DB	0f4H
	DB	0edH
	DB	0b3H
	DB	0e5H
	DB	032H
	DB	0ddH
	DB	0b1H
	DB	0ccH
	DB	04fH
	DB	0bcH
	DB	0cdH
	DB	0abH
	DB	04cH
	DB	09bH
	DB	02bH
	DB	093H
	DB	068H
	DB	072H
	DB	027H
	DB	06aH
	DB	068H
	DB	06aH
	DB	028H
	DB	062H
	DB	0e7H
	DB	059H
	DB	085H
	DB	051H
	DB	024H
	DB	041H
	DB	0c3H
	DB	030H
	DB	0e4H
	DB	030H
	DB	0e4H
	DB	030H
	DB	0a3H
	DB	028H
	DB	082H
	DB	020H
	DB	062H
	DB	018H
	DB	063H
	DB	018H
	DB	083H
	DB	020H
	DB	083H
	DB	018H
	DB	084H
	DB	020H
	DB	084H
	DB	018H
	DB	022H
	DB	08H
	DB	0a3H
	DB	018H
	DB	046H
	DB	031H
	DB	0a7H
	DB	039H
	DB	06eH
	DB	063H
	DB	0f1H
	DB	063H
	DB	0f1H
	DB	063H
	DB	0d1H
	DB	063H
	DB	0f1H
	DB	063H
	DB	0f1H
	DB	063H
	DB	0f1H
	DB	063H
	DB	0f1H
	DB	063H
	DB	0d1H
	DB	063H
	DB	0d1H
	DB	063H
	DB	0f1H
	DB	063H
	DB	0f1H
	DB	063H
	DB	0d1H
	DB	063H
	DB	0f1H
	DB	063H
	DB	0f1H
	DB	063H
	DB	0d1H
	DB	063H
	DB	0f1H
	DB	063H
	DB	0f1H
	DB	063H
	DB	0f1H
	DB	063H
	DB	0d1H
	DB	05bH
	DB	0d1H
	DB	05bH
	DB	0d1H
	DB	063H
	DB	0d1H
	DB	063H
	DB	0d1H
	DB	063H
	DB	0d1H
	DB	05bH
	DB	0d1H
	DB	05bH
	DB	0d0H
	DB	063H
	DB	0b0H
	DB	05bH
	DB	0d1H
	DB	063H
	DB	0d1H
	DB	063H
	DB	0d0H
	DB	05bH
	DB	0d1H
	DB	063H
	DB	0f1H
	DB	063H
	DB	0d1H
	DB	05bH
	DB	0b0H
	DB	05bH
	DB	0d1H
	DB	063H
	DB	0d1H
	DB	05bH
	DB	0b0H
	DB	05bH
	DB	0d0H
	DB	063H
	DB	090H
	DB	05bH
	DB	06fH
	DB	05bH
	DB	090H
	DB	05bH
	DB	090H
	DB	05bH
	DB	090H
	DB	05bH
	DB	090H
	DB	05bH
	DB	08fH
	DB	053H
	DB	090H
	DB	05bH
	DB	08fH
	DB	05bH
	DB	090H
	DB	053H
	DB	090H
	DB	05bH
	DB	090H
	DB	05bH
	DB	090H
	DB	05bH
	DB	090H
	DB	05bH
	DB	090H
	DB	05bH
	DB	090H
	DB	05bH
	DB	090H
	DB	063H
	DB	090H
	DB	05bH
	DB	090H
	DB	05bH
	DB	0b0H
	DB	05bH
	DB	090H
	DB	05bH
	DB	0b0H
	DB	05bH
	DB	0b0H
	DB	063H
	DB	0b0H
	DB	063H
	DB	0b0H
	DB	05bH
	DB	0b0H
	DB	05bH
	DB	0b0H
	DB	05bH
	DB	0b0H
	DB	05bH
	DB	0b0H
	DB	05bH
	DB	0d0H
	DB	063H
	DB	0b0H
	DB	05bH
	DB	0b0H
	DB	05bH
	DB	0d1H
	DB	063H
	DB	0b1H
	DB	05bH
	DB	0b0H
	DB	05bH
	DB	0d1H
	DB	063H
	DB	0d1H
	DB	063H
	DB	0d0H
	DB	05bH
	DB	0d1H
	DB	063H
	DB	0d1H
	DB	063H
	DB	0d0H
	DB	05bH
	DB	0d1H
	DB	063H
	DB	0d0H
	DB	05bH
	DB	0d1H
	DB	063H
	DB	0d1H
	DB	05bH
	DB	0d1H
	DB	063H
	DB	0d1H
	DB	05bH
	DB	0d1H
	DB	063H
	DB	0d1H
	DB	063H
	DB	0d1H
	DB	063H
	DB	0d1H
	DB	063H
	DB	0f1H
	DB	063H
	DB	0f1H
	DB	063H
	DB	0d1H
	DB	05bH
	DB	0f1H
	DB	063H
	DB	0f1H
	DB	063H
	DB	0f1H
	DB	063H
	DB	0d1H
	DB	063H
	DB	0f1H
	DB	063H
	DB	0f1H
	DB	063H
	DB	0d1H
	DB	063H
	DB	0f1H
	DB	063H
	DB	0f1H
	DB	063H
	DB	0d1H
	DB	063H
	DB	0d1H
	DB	063H
	DB	0d1H
	DB	063H
	DB	0d1H
	DB	063H
	DB	0d0H
	DB	06bH
	DB	0dH
	DB	063H
	DB	0e8H
	DB	041H
	DB	065H
	DB	039H
	DB	024H
	DB	031H
	DB	045H
	DB	031H
	DB	0a7H
	DB	039H
	DB	045H
	DB	039H
	DB	0a6H
	DB	041H
	DB	028H
	DB	05aH
	DB	0bH
	DB	07bH
	DB	08cH
	DB	08bH
	DB	0cdH
	DB	093H
	DB	0eH
	DB	0acH
	DB	06fH
	DB	0b4H
	DB	0b0H
	DB	0c4H
	DB	011H
	DB	0cdH
	DB	012H
	DB	0d5H
	DB	032H
	DB	0ddH
	DB	052H
	DB	0e5H
	DB	073H
	DB	0e5H
	DB	093H
	DB	0edH
	DB	093H
	DB	0edH
	DB	0b4H
	DB	0edH
	DB	0d4H
	DB	0f5H
	DB	0f5H
	DB	0f5H
	DB	0f4H
	DB	0f5H
	DB	0f4H
	DB	0f5H
	DB	015H
	DB	0f6H
	DB	015H
	DB	0f6H
	DB	035H
	DB	0feH
	DB	035H
	DB	0f6H
	DB	056H
	DB	0feH
	DB	056H
	DB	0feH
	DB	076H
	DB	0feH
	DB	076H
	DB	0feH
	DB	097H
	DB	0feH
	DB	096H
	DB	0feH
	DB	076H
	DB	0feH
	DB	076H
	DB	0feH
	DB	077H
	DB	0feH
	DB	077H
	DB	0feH
	DB	077H
	DB	0feH
	DB	056H
	DB	0f6H
	DB	056H
	DB	0f6H
	DB	015H
	DB	0f6H
	DB	0d4H
	DB	0edH
	DB	094H
	DB	0edH
	DB	012H
	DB	0ddH
	DB	0d1H
	DB	0ccH
	DB	0d1H
	DB	0ccH
	DB	0b1H
	DB	0c4H
	DB	08dH
	DB	09bH
	DB	02bH
	DB	08bH
	DB	0eaH
	DB	082H
	DB	0a9H
	DB	07aH
	DB	068H
	DB	06aH
	DB	07H
	DB	062H
	DB	0c6H
	DB	051H
	DB	04H
	DB	039H
	DB	045H
	DB	041H
	DB	025H
	DB	039H
	DB	0e3H
	DB	028H
	DB	082H
	DB	020H
	DB	082H
	DB	020H
	DB	063H
	DB	018H
	DB	083H
	DB	020H
	DB	063H
	DB	018H
	DB	083H
	DB	020H
	DB	042H
	DB	010H
	DB	022H
	DB	08H
	DB	0c4H
	DB	020H
	DB	04H
	DB	029H
	DB	025H
	DB	029H
	DB	06bH
	DB	04aH
	DB	0d0H
	DB	063H
	DB	0f1H
	DB	063H
	DB	0f1H
	DB	05bH
	DB	0f1H
	DB	063H
	DB	0f1H
	DB	063H
	DB	0f1H
	DB	063H
	DB	0f1H
	DB	05bH
	DB	0f1H
	DB	063H
	DB	0d1H
	DB	063H
	DB	0f1H
	DB	063H
	DB	0d1H
	DB	063H
	DB	0f1H
	DB	063H
	DB	0f1H
	DB	063H
	DB	0d1H
	DB	05bH
	DB	0f1H
	DB	063H
	DB	0f1H
	DB	063H
	DB	0d1H
	DB	05bH
	DB	0f1H
	DB	063H
	DB	0d1H
	DB	063H
	DB	0d1H
	DB	063H
	DB	0d1H
	DB	063H
	DB	0d1H
	DB	05bH
	DB	0f1H
	DB	063H
	DB	0d1H
	DB	05bH
	DB	0d1H
	DB	063H
	DB	0d1H
	DB	063H
	DB	0d1H
	DB	05bH
	DB	0d1H
	DB	063H
	DB	0f1H
	DB	063H
	DB	0d1H
	DB	05bH
	DB	0d1H
	DB	05bH
	DB	0f1H
	DB	063H
	DB	0d1H
	DB	05bH
	DB	0d1H
	DB	063H
	DB	0f1H
	DB	063H
	DB	0d1H
	DB	063H
	DB	0d1H
	DB	063H
	DB	0b0H
	DB	05bH
	DB	090H
	DB	053H
	DB	090H
	DB	05bH
	DB	08fH
	DB	053H
	DB	090H
	DB	05bH
	DB	090H
	DB	05bH
	DB	090H
	DB	05bH
	DB	0afH
	DB	05bH
	DB	0b0H
	DB	05bH
	DB	090H
	DB	05bH
	DB	08fH
	DB	05bH
	DB	0b0H
	DB	05bH
	DB	0b0H
	DB	05bH
	DB	0b0H
	DB	05bH
	DB	0b0H
	DB	05bH
	DB	090H
	DB	05bH
	DB	0b0H
	DB	063H
	DB	0b0H
	DB	063H
	DB	0b0H
	DB	05bH
	DB	0b0H
	DB	05bH
	DB	0b0H
	DB	05bH
	DB	090H
	DB	05bH
	DB	0b0H
	DB	05bH
	DB	0b0H
	DB	05bH
	DB	0b1H
	DB	063H
	DB	0b0H
	DB	05bH
	DB	0b0H
	DB	05bH
	DB	0b0H
	DB	05bH
	DB	0d0H
	DB	05bH
	DB	0d1H
	DB	05bH
	DB	0d1H
	DB	05bH
	DB	0b1H
	DB	05bH
	DB	0d1H
	DB	063H
	DB	0d1H
	DB	05bH
	DB	0d1H
	DB	063H
	DB	0d1H
	DB	063H
	DB	0d0H
	DB	05bH
	DB	0d1H
	DB	05bH
	DB	0d1H
	DB	05bH
	DB	0f1H
	DB	063H
	DB	0f1H
	DB	063H
	DB	0d1H
	DB	063H
	DB	0d1H
	DB	063H
	DB	0d1H
	DB	063H
	DB	0d1H
	DB	05bH
	DB	0d1H
	DB	063H
	DB	0f1H
	DB	063H
	DB	0f1H
	DB	063H
	DB	0f1H
	DB	063H
	DB	0d1H
	DB	05bH
	DB	0f1H
	DB	063H
	DB	0f1H
	DB	063H
	DB	0f1H
	DB	063H
	DB	0f1H
	DB	063H
	DB	0d1H
	DB	063H
	DB	0f1H
	DB	063H
	DB	0f1H
	DB	063H
	DB	0f1H
	DB	063H
	DB	0f1H
	DB	063H
	DB	0f1H
	DB	063H
	DB	0f1H
	DB	063H
	DB	0f1H
	DB	063H
	DB	0f1H
	DB	063H
	DB	0d1H
	DB	063H
	DB	0f1H
	DB	063H
	DB	0f2H
	DB	063H
	DB	0d1H
	DB	063H
	DB	0d0H
	DB	063H
	DB	06eH
	DB	06bH
	DB	029H
	DB	052H
	DB	0c7H
	DB	049H
	DB	0a6H
	DB	041H
	DB	0a7H
	DB	041H
	DB	0c7H
	DB	049H
	DB	0a7H
	DB	049H
	DB	086H
	DB	041H
	DB	028H
	DB	05aH
	DB	08aH
	DB	06aH
	DB	02bH
	DB	083H
	DB	0edH
	DB	09bH
	DB	02eH
	DB	0acH
	DB	04fH
	DB	0b4H
	DB	08fH
	DB	0bcH
	DB	0f1H
	DB	0ccH
	DB	031H
	DB	0d5H
	DB	032H
	DB	0ddH
	DB	032H
	DB	0ddH
	DB	032H
	DB	0e5H
	DB	093H
	DB	0edH
	DB	0b3H
	DB	0edH
	DB	093H
	DB	0edH
	DB	0b4H
	DB	0edH
	DB	0d4H
	DB	0f5H
	DB	0f4H
	DB	0f5H
	DB	015H
	DB	0f6H
	DB	015H
	DB	0feH
	DB	014H
	DB	0f6H
	DB	015H
	DB	0f6H
	DB	035H
	DB	0feH
	DB	035H
	DB	0feH
	DB	055H
	DB	0feH
	DB	056H
	DB	0feH
	DB	056H
	DB	0feH
	DB	076H
	DB	0f6H
	DB	097H
	DB	0feH
	DB	097H
	DB	0feH
	DB	077H
	DB	0feH
	DB	077H
	DB	0feH
	DB	097H
	DB	0feH
	DB	097H
	DB	0feH
	DB	077H
	DB	0feH
	DB	077H
	DB	0f6H
	DB	056H
	DB	0f6H
	DB	056H
	DB	0feH
	DB	035H
	DB	0f6H
	DB	015H
	DB	0f6H
	DB	0d5H
	DB	0edH
	DB	074H
	DB	0e5H
	DB	032H
	DB	0ddH
	DB	012H
	DB	0d5H
	DB	070H
	DB	0c4H
	DB	04fH
	DB	0b4H
	DB	0cdH
	DB	0a3H
	DB	08cH
	DB	09bH
	DB	0eaH
	DB	08aH
	DB	0caH
	DB	07aH
	DB	027H
	DB	062H
	DB	085H
	DB	049H
	DB	065H
	DB	041H
	DB	024H
	DB	041H
	DB	024H
	DB	039H
	DB	0e4H
	DB	030H
	DB	0a3H
	DB	028H
	DB	0a3H
	DB	020H
	DB	0a3H
	DB	020H
	DB	083H
	DB	020H
	DB	083H
	DB	018H
	DB	042H
	DB	010H
	DB	042H
	DB	010H
	DB	0c4H
	DB	020H
	DB	0c4H
	DB	020H
	DB	0e4H
	DB	020H
	DB	067H
	DB	031H
	DB	02eH
	DB	063H
	DB	0d0H
	DB	063H
	DB	0f1H
	DB	05bH
	DB	0f2H
	DB	063H
	DB	0f1H
	DB	063H
	DB	0f1H
	DB	063H
	DB	0f2H
	DB	063H
	DB	0f2H
	DB	063H
	DB	0f2H
	DB	063H
	DB	0f1H
	DB	063H
	DB	0d1H
	DB	063H
	DB	0f2H
	DB	063H
	DB	0f1H
	DB	063H
	DB	0f1H
	DB	063H
	DB	0f1H
	DB	063H
	DB	0f1H
	DB	063H
	DB	0f1H
	DB	063H
	DB	0f1H
	DB	063H
	DB	0f1H
	DB	063H
	DB	0f1H
	DB	063H
	DB	0f1H
	DB	063H
	DB	0f1H
	DB	063H
	DB	0f1H
	DB	063H
	DB	0d1H
	DB	063H
	DB	0d1H
	DB	063H
	DB	0d1H
	DB	05bH
	DB	0f1H
	DB	063H
	DB	0f1H
	DB	063H
	DB	0f1H
	DB	063H
	DB	0d1H
	DB	063H
	DB	0d1H
	DB	063H
	DB	0d1H
	DB	05bH
	DB	0d1H
	DB	063H
	DB	0d1H
	DB	05bH
	DB	0d1H
	DB	063H
	DB	0d1H
	DB	063H
	DB	0f1H
	DB	063H
	DB	0d1H
	DB	063H
	DB	090H
	DB	05bH
	DB	090H
	DB	05bH
	DB	08fH
	DB	053H
	DB	090H
	DB	05bH
	DB	090H
	DB	05bH
	DB	08fH
	DB	05bH
	DB	090H
	DB	05bH
	DB	0b0H
	DB	05bH
	DB	0b0H
	DB	05bH
	DB	090H
	DB	05bH
	DB	0b0H
	DB	05bH
	DB	0b0H
	DB	05bH
	DB	0b0H
	DB	05bH
	DB	0b0H
	DB	05bH
	DB	0b0H
	DB	05bH
	DB	0b0H
	DB	05bH
	DB	0b0H
	DB	05bH
	DB	090H
	DB	05bH
	DB	0b0H
	DB	063H
	DB	0b0H
	DB	05bH
	DB	0b0H
	DB	05bH
	DB	0b0H
	DB	05bH
	DB	0b0H
	DB	05bH
	DB	0b1H
	DB	05bH
	DB	0b1H
	DB	05bH
	DB	0d0H
	DB	05bH
	DB	0d1H
	DB	063H
	DB	0d1H
	DB	063H
	DB	0d1H
	DB	063H
	DB	0d1H
	DB	063H
	DB	0d0H
	DB	05bH
	DB	0d1H
	DB	063H
	DB	0d1H
	DB	05bH
	DB	0d0H
	DB	05bH
	DB	0d1H
	DB	063H
	DB	0d1H
	DB	05bH
	DB	0d0H
	DB	05bH
	DB	0d1H
	DB	063H
	DB	0d1H
	DB	063H
	DB	0d1H
	DB	05bH
	DB	0d1H
	DB	05bH
	DB	0d1H
	DB	063H
	DB	0d1H
	DB	05bH
	DB	0f1H
	DB	063H
	DB	0d1H
	DB	063H
	DB	0f1H
	DB	063H
	DB	0f1H
	DB	063H
	DB	0f1H
	DB	063H
	DB	0f1H
	DB	063H
	DB	0f1H
	DB	063H
	DB	0f1H
	DB	063H
	DB	0d1H
	DB	05bH
	DB	0d1H
	DB	063H
	DB	0f1H
	DB	063H
	DB	0f1H
	DB	063H
	DB	0d1H
	DB	05bH
	DB	0f1H
	DB	063H
	DB	0f1H
	DB	063H
	DB	0f1H
	DB	063H
	DB	0f1H
	DB	063H
	DB	0f1H
	DB	063H
	DB	0f1H
	DB	063H
	DB	0f1H
	DB	063H
	DB	0f2H
	DB	063H
	DB	012H
	DB	05cH
	DB	0f1H
	DB	063H
	DB	0afH
	DB	06bH
	DB	0ecH
	DB	062H
	DB	069H
	DB	05aH
	DB	069H
	DB	05aH
	DB	029H
	DB	052H
	DB	049H
	DB	052H
	DB	0a7H
	DB	041H
	DB	0c8H
	DB	051H
	DB	08H
	DB	052H
	DB	069H
	DB	062H
	DB	0caH
	DB	072H
	DB	02bH
	DB	083H
	DB	0eeH
	DB	09bH
	DB	06fH
	DB	0b4H
	DB	090H
	DB	0bcH
	DB	0d1H
	DB	0c4H
	DB	0f1H
	DB	0ccH
	DB	011H
	DB	0d5H
	DB	052H
	DB	0ddH
	DB	052H
	DB	0e5H
	DB	052H
	DB	0e5H
	DB	072H
	DB	0e5H
	DB	093H
	DB	0edH
	DB	0b3H
	DB	0edH
	DB	0b3H
	DB	0edH
	DB	0b4H
	DB	0f5H
	DB	0d4H
	DB	0f5H
	DB	0f4H
	DB	0f5H
	DB	015H
	DB	0feH
	DB	015H
	DB	0f6H
	DB	035H
	DB	0feH
	DB	035H
	DB	0feH
	DB	035H
	DB	0feH
	DB	076H
	DB	0feH
	DB	076H
	DB	0feH
	DB	056H
	DB	0f6H
	DB	076H
	DB	0feH
	DB	097H
	DB	0feH
	DB	097H
	DB	0feH
	DB	0b8H
	DB	0feH
	DB	097H
	DB	0feH
	DB	097H
	DB	0feH
	DB	097H
	DB	0feH
	DB	077H
	DB	0feH
	DB	076H
	DB	0feH
	DB	076H
	DB	0feH
	DB	076H
	DB	0feH
	DB	056H
	DB	0f6H
	DB	036H
	DB	0f6H
	DB	036H
	DB	0f6H
	DB	015H
	DB	0f6H
	DB	0b4H
	DB	0edH
	DB	073H
	DB	0e5H
	DB	012H
	DB	0d5H
	DB	0f1H
	DB	0ccH
	DB	0b0H
	DB	0c4H
	DB	090H
	DB	0bcH
	DB	0fH
	DB	0b4H
	DB	08dH
	DB	09bH
	DB	0eaH
	DB	082H
	DB	027H
	DB	062H
	DB	0c7H
	DB	059H
	DB	0c7H
	DB	059H
	DB	086H
	DB	049H
	DB	045H
	DB	039H
	DB	04H
	DB	031H
	DB	0c4H
	DB	028H
	DB	0a3H
	DB	020H
	DB	083H
	DB	018H
	DB	062H
	DB	018H
	DB	042H
	DB	010H
	DB	062H
	DB	010H
	DB	0a3H
	DB	018H
	DB	0c4H
	DB	018H
	DB	0a3H
	DB	018H
	DB	05H
	DB	021H
	DB	06aH
	DB	042H
	DB	0f1H
	DB	063H
	DB	012H
	DB	064H
	DB	0f2H
	DB	063H
	DB	0f1H
	DB	063H
	DB	0f1H
	DB	063H
	DB	0f2H
	DB	063H
	DB	012H
	DB	064H
	DB	0f2H
	DB	063H
	DB	0d1H
	DB	063H
	DB	0f2H
	DB	063H
	DB	0f2H
	DB	063H
	DB	0f1H
	DB	063H
	DB	0f1H
	DB	063H
	DB	0f1H
	DB	063H
	DB	0f1H
	DB	063H
	DB	0f1H
	DB	063H
	DB	0f1H
	DB	063H
	DB	0f1H
	DB	063H
	DB	0f1H
	DB	063H
	DB	0f1H
	DB	063H
	DB	0f1H
	DB	063H
	DB	0f1H
	DB	063H
	DB	0f1H
	DB	063H
	DB	0f1H
	DB	063H
	DB	0f1H
	DB	063H
	DB	0d1H
	DB	063H
	DB	0f1H
	DB	063H
	DB	0d1H
	DB	05bH
	DB	0f1H
	DB	063H
	DB	0f1H
	DB	063H
	DB	0d1H
	DB	063H
	DB	0d1H
	DB	063H
	DB	0d0H
	DB	05bH
	DB	0d1H
	DB	063H
	DB	0f1H
	DB	063H
	DB	0d1H
	DB	05bH
	DB	0d1H
	DB	05bH
	DB	090H
	DB	05bH
	DB	090H
	DB	05bH
	DB	090H
	DB	05bH
	DB	0b0H
	DB	05bH
	DB	0b0H
	DB	05bH
	DB	0b0H
	DB	05bH
	DB	090H
	DB	05bH
	DB	0b0H
	DB	05bH
	DB	0b0H
	DB	05bH
	DB	090H
	DB	05bH
	DB	0b0H
	DB	05bH
	DB	0b0H
	DB	05bH
	DB	0b0H
	DB	063H
	DB	090H
	DB	05bH
	DB	0b1H
	DB	05bH
	DB	0b0H
	DB	063H
	DB	0b1H
	DB	05bH
	DB	0b1H
	DB	063H
	DB	0b1H
	DB	063H
	DB	0b0H
	DB	05bH
	DB	0d1H
	DB	063H
	DB	0b1H
	DB	05bH
	DB	0d1H
	DB	063H
	DB	0d1H
	DB	063H
	DB	0d1H
	DB	063H
	DB	0d1H
	DB	05bH
	DB	0b0H
	DB	05bH
	DB	0d1H
	DB	063H
	DB	0d1H
	DB	063H
	DB	0d1H
	DB	05bH
	DB	0d1H
	DB	063H
	DB	0d0H
	DB	05bH
	DB	0d1H
	DB	063H
	DB	0d1H
	DB	05bH
	DB	0d1H
	DB	063H
	DB	0d1H
	DB	063H
	DB	0f1H
	DB	063H
	DB	0d1H
	DB	063H
	DB	0f1H
	DB	063H
	DB	0d1H
	DB	063H
	DB	0d0H
	DB	05bH
	DB	0d1H
	DB	063H
	DB	0d1H
	DB	063H
	DB	0f1H
	DB	063H
	DB	0f1H
	DB	063H
	DB	0f1H
	DB	063H
	DB	0f1H
	DB	063H
	DB	0d1H
	DB	05bH
	DB	0f1H
	DB	063H
	DB	0f1H
	DB	063H
	DB	0f1H
	DB	063H
	DB	0f1H
	DB	063H
	DB	0f1H
	DB	063H
	DB	0f1H
	DB	063H
	DB	0f1H
	DB	063H
	DB	0f1H
	DB	063H
	DB	0f2H
	DB	063H
	DB	0f1H
	DB	063H
	DB	0f1H
	DB	063H
	DB	0f2H
	DB	063H
	DB	0f1H
	DB	063H
	DB	0f1H
	DB	063H
	DB	0f1H
	DB	063H
	DB	0f2H
	DB	063H
	DB	011H
	DB	064H
	DB	0f1H
	DB	06bH
	DB	04eH
	DB	06bH
	DB	069H
	DB	05aH
	DB	048H
	DB	052H
	DB	048H
	DB	052H
	DB	049H
	DB	052H
	DB	066H
	DB	039H
	DB	025H
	DB	039H
	DB	045H
	DB	041H
	DB	0a6H
	DB	049H
	DB	048H
	DB	062H
	DB	0aaH
	DB	072H
	DB	0bH
	DB	083H
	DB	0adH
	DB	09bH
	DB	0eH
	DB	0a4H
	DB	06fH
	DB	0bcH
	DB	0b0H
	DB	0c4H
	DB	0f0H
	DB	0ccH
	DB	010H
	DB	0d5H
	DB	031H
	DB	0ddH
	DB	052H
	DB	0e5H
	DB	052H
	DB	0e5H
	DB	052H
	DB	0e5H
	DB	093H
	DB	0edH
	DB	0b3H
	DB	0edH
	DB	0d4H
	DB	0f5H
	DB	014H
	DB	0feH
	DB	0d3H
	DB	0edH
	DB	0f4H
	DB	0f5H
	DB	015H
	DB	0feH
	DB	035H
	DB	0feH
	DB	035H
	DB	0f6H
	DB	015H
	DB	0f6H
	DB	015H
	DB	0f6H
	DB	035H
	DB	0f6H
	DB	056H
	DB	0feH
	DB	076H
	DB	0feH
	DB	097H
	DB	0feH
	DB	097H
	DB	0feH
	DB	0d8H
	DB	0feH
	DB	0d8H
	DB	0feH
	DB	0b8H
	DB	0feH
	DB	0b8H
	DB	0feH
	DB	097H
	DB	0feH
	DB	097H
	DB	0feH
	DB	077H
	DB	0f6H
	DB	077H
	DB	0feH
	DB	077H
	DB	0feH
	DB	056H
	DB	0f6H
	DB	056H
	DB	0feH
	DB	036H
	DB	0f6H
	DB	015H
	DB	0f6H
	DB	0f5H
	DB	0f5H
	DB	0d4H
	DB	0edH
	DB	073H
	DB	0ddH
	DB	032H
	DB	0ddH
	DB	032H
	DB	0d5H
	DB	011H
	DB	0d5H
	DB	0b0H
	DB	0c4H
	DB	0eeH
	DB	0abH
	DB	08cH
	DB	09bH
	DB	0aH
	DB	08bH
	DB	0a9H
	DB	07aH
	DB	027H
	DB	062H
	DB	0e7H
	DB	059H
	DB	0c6H
	DB	051H
	DB	066H
	DB	041H
	DB	04H
	DB	031H
	DB	0a3H
	DB	020H
	DB	063H
	DB	018H
	DB	042H
	DB	010H
	DB	042H
	DB	010H
	DB	042H
	DB	010H
	DB	082H
	DB	010H
	DB	0a3H
	DB	018H
	DB	0a3H
	DB	018H
	DB	087H
	DB	031H
	DB	04aH
	DB	042H
	DB	0d0H
	DB	06bH
	DB	011H
	DB	064H
	DB	0f2H
	DB	063H
	DB	012H
	DB	064H
	DB	011H
	DB	064H
	DB	0f1H
	DB	063H
	DB	0f2H
	DB	063H
	DB	0f2H
	DB	063H
	DB	0f1H
	DB	063H
	DB	0f1H
	DB	063H
	DB	0f2H
	DB	063H
	DB	0f1H
	DB	063H
	DB	0f1H
	DB	063H
	DB	0f2H
	DB	063H
	DB	0f1H
	DB	063H
	DB	0f1H
	DB	063H
	DB	0f1H
	DB	063H
	DB	0f2H
	DB	063H
	DB	0f1H
	DB	063H
	DB	0f1H
	DB	063H
	DB	0f1H
	DB	063H
	DB	0f1H
	DB	063H
	DB	0f1H
	DB	063H
	DB	0f1H
	DB	063H
	DB	0f1H
	DB	063H
	DB	0f1H
	DB	063H
	DB	0f1H
	DB	063H
	DB	0d1H
	DB	063H
	DB	0f1H
	DB	063H
	DB	0f1H
	DB	063H
	DB	0f1H
	DB	063H
	DB	0f1H
	DB	063H
	DB	0f1H
	DB	063H
	DB	0f1H
	DB	063H
	DB	0f1H
	DB	063H
	DB	0f1H
	DB	063H
	DB	0f1H
	DB	063H
	DB	090H
	DB	05bH
	DB	0b0H
	DB	05bH
	DB	090H
	DB	05bH
	DB	0b0H
	DB	05bH
	DB	08fH
	DB	05bH
	DB	090H
	DB	05bH
	DB	0b0H
	DB	05bH
	DB	0b0H
	DB	05bH
	DB	0b0H
	DB	05bH
	DB	0b0H
	DB	05bH
	DB	090H
	DB	05bH
	DB	0b0H
	DB	05bH
	DB	0b0H
	DB	05bH
	DB	0b0H
	DB	05bH
	DB	0b1H
	DB	05bH
	DB	0b0H
	DB	05bH
	DB	0b0H
	DB	05bH
	DB	0d1H
	DB	05bH
	DB	0d1H
	DB	05bH
	DB	0d1H
	DB	05bH
	DB	0d1H
	DB	05bH
	DB	0d1H
	DB	063H
	DB	0f1H
	DB	063H
	DB	0d0H
	DB	05bH
	DB	0d1H
	DB	063H
	DB	0d1H
	DB	05bH
	DB	0d0H
	DB	05bH
	DB	0d1H
	DB	063H
	DB	0d1H
	DB	05bH
	DB	0d0H
	DB	05bH
	DB	0d1H
	DB	063H
	DB	0d1H
	DB	063H
	DB	0f1H
	DB	063H
	DB	0d1H
	DB	063H
	DB	0d1H
	DB	063H
	DB	0d1H
	DB	063H
	DB	0f1H
	DB	063H
	DB	0f1H
	DB	063H
	DB	0f1H
	DB	063H
	DB	0f1H
	DB	063H
	DB	0f1H
	DB	063H
	DB	0f1H
	DB	063H
	DB	0f1H
	DB	063H
	DB	0f1H
	DB	063H
	DB	0f1H
	DB	063H
	DB	0f1H
	DB	063H
	DB	0f1H
	DB	063H
	DB	0f2H
	DB	063H
	DB	0f1H
	DB	063H
	DB	0f1H
	DB	063H
	DB	0f2H
	DB	063H
	DB	0f1H
	DB	063H
	DB	0f2H
	DB	063H
	DB	0f1H
	DB	063H
	DB	0f2H
	DB	063H
	DB	0f1H
	DB	063H
	DB	0f1H
	DB	063H
	DB	0f1H
	DB	063H
	DB	0f2H
	DB	063H
	DB	012H
	DB	064H
	DB	012H
	DB	064H
	DB	0f2H
	DB	06bH
	DB	0f1H
	DB	063H
	DB	011H
	DB	064H
	DB	011H
	DB	064H
	DB	0f0H
	DB	073H
	DB	0cH
	DB	06bH
	DB	029H
	DB	05aH
	DB	028H
	DB	052H
	DB	086H
	DB	039H
	DB	05H
	DB	029H
	DB	04H
	DB	031H
	DB	024H
	DB	039H
	DB	086H
	DB	049H
	DB	049H
	DB	062H
	DB	0eaH
	DB	07aH
	DB	02bH
	DB	083H
	DB	04bH
	DB	08bH
	DB	0cdH
	DB	0a3H
	DB	0acH
	DB	09bH
	DB	0dH
	DB	0acH
	DB	08fH
	DB	0c4H
	DB	0f0H
	DB	0ccH
	DB	011H
	DB	0d5H
	DB	031H
	DB	0ddH
	DB	032H
	DB	0e5H
	DB	052H
	DB	0e5H
	DB	052H
	DB	0edH
	DB	092H
	DB	0edH
	DB	093H
	DB	0edH
	DB	0d3H
	DB	0f5H
	DB	0f4H
	DB	0f5H
	DB	0f4H
	DB	0f5H
	DB	015H
	DB	0feH
	DB	015H
	DB	0f6H
	DB	035H
	DB	0feH
	DB	035H
	DB	0feH
	DB	035H
	DB	0feH
	DB	035H
	DB	0f6H
	DB	056H
	DB	0f6H
	DB	056H
	DB	0f6H
	DB	076H
	DB	0feH
	DB	097H
	DB	0feH
	DB	0b7H
	DB	0feH
	DB	0b7H
	DB	0feH
	DB	0b8H
	DB	0feH
	DB	0b8H
	DB	0feH
	DB	0b8H
	DB	0feH
	DB	0d8H
	DB	0feH
	DB	0b8H
	DB	0feH
	DB	097H
	DB	0feH
	DB	097H
	DB	0feH
	DB	077H
	DB	0feH
	DB	056H
	DB	0f6H
	DB	056H
	DB	0feH
	DB	036H
	DB	0f6H
	DB	015H
	DB	0f6H
	DB	0f5H
	DB	0f5H
	DB	0f5H
	DB	0edH
	DB	093H
	DB	0e5H
	DB	073H
	DB	0e5H
	DB	052H
	DB	0ddH
	DB	031H
	DB	0d5H
	DB	011H
	DB	0d5H
	DB	0f1H
	DB	0d4H
	DB	08fH
	DB	0c4H
	DB	0eH
	DB	0b4H
	DB	0adH
	DB	0a3H
	DB	02bH
	DB	08bH
	DB	0a9H
	DB	072H
	DB	07H
	DB	062H
	DB	0c7H
	DB	051H
	DB	025H
	DB	039H
	DB	0c3H
	DB	028H
	DB	062H
	DB	018H
	DB	042H
	DB	010H
	DB	021H
	DB	08H
	DB	022H
	DB	08H
	DB	042H
	DB	010H
	DB	042H
	DB	010H
	DB	0a3H
	DB	018H
	DB	066H
	DB	031H
	DB	0ccH
	DB	05aH
	DB	0f0H
	DB	06bH
	DB	012H
	DB	06cH
	DB	012H
	DB	064H
	DB	0f2H
	DB	063H
	DB	012H
	DB	064H
	DB	0f2H
	DB	06bH
	DB	0f2H
	DB	063H
	DB	012H
	DB	064H
	DB	0f2H
	DB	063H
	DB	0f2H
	DB	063H
	DB	0f1H
	DB	063H
	DB	0f2H
	DB	063H
	DB	0f1H
	DB	063H
	DB	0f2H
	DB	063H
	DB	0f2H
	DB	063H
	DB	0f2H
	DB	063H
	DB	0f1H
	DB	063H
	DB	0f1H
	DB	063H
	DB	0f2H
	DB	063H
	DB	0f2H
	DB	063H
	DB	0f1H
	DB	063H
	DB	0f1H
	DB	063H
	DB	0f1H
	DB	063H
	DB	0f2H
	DB	063H
	DB	0f1H
	DB	063H
	DB	0f1H
	DB	063H
	DB	0f1H
	DB	063H
	DB	0f1H
	DB	063H
	DB	0f1H
	DB	063H
	DB	0f1H
	DB	063H
	DB	0f1H
	DB	063H
	DB	0f1H
	DB	063H
	DB	0f1H
	DB	063H
	DB	0d1H
	DB	063H
	DB	0f1H
	DB	063H
	DB	0f1H
	DB	063H
	DB	0f1H
	DB	063H
	DB	0b0H
	DB	05bH
	DB	090H
	DB	05bH
	DB	08fH
	DB	05bH
	DB	0b0H
	DB	05bH
	DB	090H
	DB	05bH
	DB	0b0H
	DB	05bH
	DB	0b0H
	DB	05bH
	DB	0b1H
	DB	05bH
	DB	0b1H
	DB	063H
	DB	0b0H
	DB	05bH
	DB	0b0H
	DB	05bH
	DB	0d1H
	DB	063H
	DB	0b0H
	DB	05bH
	DB	0d1H
	DB	063H
	DB	0d1H
	DB	063H
	DB	0b0H
	DB	05bH
	DB	0d1H
	DB	063H
	DB	0d1H
	DB	063H
	DB	0d1H
	DB	063H
	DB	0d0H
	DB	05bH
	DB	0d1H
	DB	05bH
	DB	0d1H
	DB	05bH
	DB	0d0H
	DB	05bH
	DB	0d1H
	DB	05bH
	DB	0d0H
	DB	05bH
	DB	0d1H
	DB	063H
	DB	0d1H
	DB	063H
	DB	0d1H
	DB	063H
	DB	0d1H
	DB	063H
	DB	0d1H
	DB	063H
	DB	0f1H
	DB	063H
	DB	0f1H
	DB	063H
	DB	0f1H
	DB	063H
	DB	0f1H
	DB	063H
	DB	0f1H
	DB	05bH
	DB	0d1H
	DB	063H
	DB	0f1H
	DB	063H
	DB	0f1H
	DB	063H
	DB	0f1H
	DB	063H
	DB	0f1H
	DB	063H
	DB	0f1H
	DB	063H
	DB	0f1H
	DB	063H
	DB	0f1H
	DB	063H
	DB	0f1H
	DB	063H
	DB	0f2H
	DB	063H
	DB	0f1H
	DB	063H
	DB	0f1H
	DB	063H
	DB	0f1H
	DB	063H
	DB	0f2H
	DB	063H
	DB	0f2H
	DB	063H
	DB	0f2H
	DB	063H
	DB	0f1H
	DB	063H
	DB	012H
	DB	064H
	DB	012H
	DB	064H
	DB	0f1H
	DB	063H
	DB	012H
	DB	064H
	DB	0f1H
	DB	063H
	DB	0f2H
	DB	063H
	DB	012H
	DB	06cH
	DB	011H
	DB	064H
	DB	0f1H
	DB	063H
	DB	0f2H
	DB	063H
	DB	012H
	DB	064H
	DB	0f1H
	DB	063H
	DB	0f1H
	DB	06bH
	DB	04eH
	DB	06bH
	DB	0aaH
	DB	062H
	DB	069H
	DB	05aH
	DB	0c7H
	DB	041H
	DB	05H
	DB	031H
	DB	05H
	DB	031H
	DB	0e4H
	DB	028H
	DB	066H
	DB	041H
	DB	0c7H
	DB	051H
	DB	048H
	DB	062H
	DB	089H
	DB	072H
	DB	0caH
	DB	07aH
	DB	06bH
	DB	093H
	DB	0acH
	DB	09bH
	DB	0cdH
	DB	0a3H
	DB	04eH
	DB	0bcH
	DB	0b0H
	DB	0c4H
	DB	010H
	DB	0d5H
	DB	031H
	DB	0ddH
	DB	010H
	DB	0ddH
	DB	031H
	DB	0e5H
	DB	032H
	DB	0edH
	DB	072H
	DB	0edH
	DB	093H
	DB	0edH
	DB	0b3H
	DB	0edH
	DB	0d4H
	DB	0f5H
	DB	0d4H
	DB	0f5H
	DB	0f4H
	DB	0f5H
	DB	0f4H
	DB	0f5H
	DB	015H
	DB	0feH
	DB	035H
	DB	0feH
	DB	035H
	DB	0feH
	DB	035H
	DB	0feH
	DB	055H
	DB	0feH
	DB	056H
	DB	0feH
	DB	056H
	DB	0feH
	DB	076H
	DB	0feH
	DB	097H
	DB	0f6H
	DB	0b7H
	DB	0feH
	DB	0b7H
	DB	0feH
	DB	098H
	DB	0feH
	DB	0b8H
	DB	0feH
	DB	0b8H
	DB	0feH
	DB	0d8H
	DB	0feH
	DB	0d8H
	DB	0feH
	DB	0b8H
	DB	0feH
	DB	0b7H
	DB	0feH
	DB	097H
	DB	0feH
	DB	077H
	DB	0feH
	DB	056H
	DB	0feH
	DB	056H
	DB	0f6H
	DB	035H
	DB	0f6H
	DB	015H
	DB	0f6H
	DB	0d5H
	DB	0edH
	DB	0b4H
	DB	0e5H
	DB	093H
	DB	0e5H
	DB	073H
	DB	0ddH
	DB	052H
	DB	0ddH
	DB	011H
	DB	0ddH
	DB	0f0H
	DB	0d4H
	DB	090H
	DB	0ccH
	DB	090H
	DB	0c4H
	DB	02eH
	DB	0b4H
	DB	0edH
	DB	0a3H
	DB	04bH
	DB	08bH
	DB	068H
	DB	072H
	DB	028H
	DB	062H
	DB	065H
	DB	049H
	DB	0e4H
	DB	030H
	DB	0a3H
	DB	028H
	DB	042H
	DB	010H
	DB	042H
	DB	010H
	DB	042H
	DB	010H
	DB	021H
	DB	08H
	DB	042H
	DB	010H
	DB	062H
	DB	010H
	DB	0c4H
	DB	020H
	DB	029H
	DB	042H
	DB	08fH
	DB	063H
	DB	012H
	DB	06cH
	DB	012H
	DB	06cH
	DB	0f2H
	DB	063H
	DB	012H
	DB	064H
	DB	0f2H
	DB	06bH
	DB	0f1H
	DB	063H
	DB	012H
	DB	06cH
	DB	012H
	DB	06cH
	DB	0f2H
	DB	063H
	DB	0f2H
	DB	063H
	DB	012H
	DB	064H
	DB	011H
	DB	064H
	DB	011H
	DB	064H
	DB	012H
	DB	064H
	DB	012H
	DB	064H
	DB	0f1H
	DB	063H
	DB	012H
	DB	064H
	DB	0f1H
	DB	063H
	DB	0f1H
	DB	063H
	DB	0f2H
	DB	063H
	DB	012H
	DB	064H
	DB	0f2H
	DB	063H
	DB	0f1H
	DB	063H
	DB	0f1H
	DB	063H
	DB	0f1H
	DB	063H
	DB	0f2H
	DB	063H
	DB	0f2H
	DB	063H
	DB	0f1H
	DB	063H
	DB	0f2H
	DB	063H
	DB	0f1H
	DB	063H
	DB	0f2H
	DB	063H
	DB	0f1H
	DB	063H
	DB	0d1H
	DB	05bH
	DB	0f1H
	DB	063H
	DB	0f1H
	DB	063H
	DB	0f1H
	DB	063H
	DB	090H
	DB	05bH
	DB	0b0H
	DB	05bH
	DB	0b0H
	DB	05bH
	DB	0b0H
	DB	05bH
	DB	0b0H
	DB	05bH
	DB	0b0H
	DB	063H
	DB	0b0H
	DB	05bH
	DB	0b1H
	DB	05bH
	DB	0b0H
	DB	063H
	DB	0d1H
	DB	063H
	DB	0b0H
	DB	05bH
	DB	0b1H
	DB	05bH
	DB	0b1H
	DB	05bH
	DB	0d1H
	DB	063H
	DB	0d1H
	DB	063H
	DB	0d1H
	DB	05bH
	DB	0d1H
	DB	05bH
	DB	0d0H
	DB	05bH
	DB	0d1H
	DB	063H
	DB	0d0H
	DB	05bH
	DB	0d1H
	DB	063H
	DB	0d1H
	DB	063H
	DB	0d1H
	DB	05bH
	DB	0d1H
	DB	063H
	DB	0d1H
	DB	063H
	DB	0d1H
	DB	05bH
	DB	0d1H
	DB	063H
	DB	0f1H
	DB	063H
	DB	0d1H
	DB	05bH
	DB	0f1H
	DB	063H
	DB	0f1H
	DB	063H
	DB	0f1H
	DB	063H
	DB	0f1H
	DB	063H
	DB	0f1H
	DB	063H
	DB	0f1H
	DB	063H
	DB	0f1H
	DB	063H
	DB	0d1H
	DB	05bH
	DB	0f1H
	DB	063H
	DB	0f1H
	DB	063H
	DB	0f1H
	DB	063H
	DB	0d1H
	DB	05bH
	DB	0f2H
	DB	063H
	DB	0f1H
	DB	063H
	DB	0f1H
	DB	063H
	DB	012H
	DB	064H
	DB	012H
	DB	064H
	DB	0f2H
	DB	063H
	DB	0f2H
	DB	063H
	DB	011H
	DB	064H
	DB	012H
	DB	064H
	DB	0f1H
	DB	063H
	DB	0f1H
	DB	063H
	DB	012H
	DB	064H
	DB	0f1H
	DB	063H
	DB	012H
	DB	064H
	DB	012H
	DB	064H
	DB	011H
	DB	064H
	DB	012H
	DB	064H
	DB	011H
	DB	064H
	DB	0f1H
	DB	063H
	DB	012H
	DB	06cH
	DB	012H
	DB	064H
	DB	012H
	DB	064H
	DB	012H
	DB	06cH
	DB	0d1H
	DB	073H
	DB	0abH
	DB	05aH
	DB	0aaH
	DB	05aH
	DB	0e7H
	DB	041H
	DB	046H
	DB	031H
	DB	0c4H
	DB	020H
	DB	063H
	DB	018H
	DB	0e5H
	DB	030H
	DB	0a7H
	DB	049H
	DB	08H
	DB	05aH
	DB	07H
	DB	05aH
	DB	027H
	DB	06aH
	DB	0a9H
	DB	072H
	DB	02bH
	DB	08bH
	DB	04bH
	DB	093H
	DB	0cdH
	DB	0a3H
	DB	06fH
	DB	0bcH
	DB	0cfH
	DB	0ccH
	DB	011H
	DB	0d5H
	DB	031H
	DB	0ddH
	DB	010H
	DB	0e5H
	DB	031H
	DB	0e5H
	DB	051H
	DB	0edH
	DB	072H
	DB	0edH
	DB	092H
	DB	0f5H
	DB	0b3H
	DB	0f5H
	DB	0f4H
	DB	0f5H
	DB	0f4H
	DB	0f5H
	DB	0f4H
	DB	0f5H
	DB	0f4H
	DB	0fdH
	DB	035H
	DB	0feH
	DB	035H
	DB	0feH
	DB	035H
	DB	0feH
	DB	056H
	DB	0feH
	DB	076H
	DB	0feH
	DB	077H
	DB	0feH
	DB	097H
	DB	0feH
	DB	097H
	DB	0feH
	DB	0b7H
	DB	0feH
	DB	0b8H
	DB	0feH
	DB	0b7H
	DB	0feH
	DB	0b8H
	DB	0feH
	DB	0b8H
	DB	0feH
	DB	0b8H
	DB	0feH
	DB	0b8H
	DB	0feH
	DB	0b8H
	DB	0feH
	DB	0b8H
	DB	0f6H
	DB	0b8H
	DB	0feH
	DB	0b8H
	DB	0feH
	DB	077H
	DB	0feH
	DB	076H
	DB	0feH
	DB	056H
	DB	0feH
	DB	015H
	DB	0f6H
	DB	015H
	DB	0f6H
	DB	0d5H
	DB	0edH
	DB	0b4H
	DB	0e5H
	DB	0b3H
	DB	0e5H
	DB	0b3H
	DB	0e5H
	DB	093H
	DB	0e5H
	DB	052H
	DB	0ddH
	DB	011H
	DB	0ddH
	DB	0d0H
	DB	0d4H
	DB	0b0H
	DB	0ccH
	DB	06fH
	DB	0bcH
	DB	0eH
	DB	0acH
	DB	0acH
	DB	09bH
	DB	0aH
	DB	08bH
	DB	0a9H
	DB	07aH
	DB	07H
	DB	062H
	DB	066H
	DB	049H
	DB	0e4H
	DB	030H
	DB	082H
	DB	020H
	DB	042H
	DB	010H
	DB	021H
	DB	08H
	DB	021H
	DB	08H
	DB	021H
	DB	08H
	DB	062H
	DB	010H
	DB	0a3H
	DB	018H
	DB	066H
	DB	031H
	DB	0abH
	DB	04aH
	DB	0f1H
	DB	063H
	DB	012H
	DB	06cH
	DB	012H
	DB	064H
	DB	012H
	DB	064H
	DB	012H
	DB	06cH
	DB	012H
	DB	06cH
	DB	012H
	DB	064H
	DB	012H
	DB	064H
	DB	0f2H
	DB	063H
	DB	012H
	DB	06cH
	DB	012H
	DB	06cH
	DB	012H
	DB	064H
	DB	012H
	DB	06cH
	DB	012H
	DB	06cH
	DB	012H
	DB	06cH
	DB	012H
	DB	064H
	DB	011H
	DB	064H
	DB	012H
	DB	06cH
	DB	012H
	DB	064H
	DB	0f1H
	DB	063H
	DB	0f1H
	DB	063H
	DB	0f1H
	DB	063H
	DB	0f2H
	DB	063H
	DB	0f1H
	DB	063H
	DB	0f1H
	DB	063H
	DB	0f2H
	DB	063H
	DB	0f1H
	DB	063H
	DB	0f1H
	DB	063H
	DB	0f1H
	DB	063H
	DB	0f1H
	DB	063H
	DB	0f1H
	DB	063H
	DB	0f1H
	DB	063H
	DB	012H
	DB	064H
	DB	0f1H
	DB	063H
	DB	0f2H
	DB	063H
	DB	0f1H
	DB	063H
	DB	0b0H
	DB	05bH
	DB	090H
	DB	05bH
	DB	0b0H
	DB	05bH
	DB	090H
	DB	05bH
	DB	090H
	DB	05bH
	DB	0b1H
	DB	063H
	DB	0d0H
	DB	05bH
	DB	0b0H
	DB	05bH
	DB	0d1H
	DB	05bH
	DB	0d1H
	DB	05bH
	DB	0d1H
	DB	063H
	DB	0d0H
	DB	05bH
	DB	0d1H
	DB	05bH
	DB	0d0H
	DB	05bH
	DB	0b0H
	DB	05bH
	DB	0d1H
	DB	05bH
	DB	0d1H
	DB	063H
	DB	0d1H
	DB	063H
	DB	0f1H
	DB	063H
	DB	0f1H
	DB	063H
	DB	0d1H
	DB	063H
	DB	0d1H
	DB	063H
	DB	0d1H
	DB	063H
	DB	0d1H
	DB	063H
	DB	0d1H
	DB	063H
	DB	0f1H
	DB	063H
	DB	0f1H
	DB	063H
	DB	0f1H
	DB	063H
	DB	0f1H
	DB	063H
	DB	0d1H
	DB	05bH
	DB	0f1H
	DB	063H
	DB	0f1H
	DB	063H
	DB	0d1H
	DB	063H
	DB	0f1H
	DB	063H
	DB	0f1H
	DB	063H
	DB	0f1H
	DB	063H
	DB	0f1H
	DB	063H
	DB	0f2H
	DB	063H
	DB	0f2H
	DB	063H
	DB	0f2H
	DB	063H
	DB	0f2H
	DB	063H
	DB	0f2H
	DB	063H
	DB	0f2H
	DB	063H
	DB	0f2H
	DB	063H
	DB	0f2H
	DB	063H
	DB	011H
	DB	064H
	DB	0f2H
	DB	063H
	DB	0f2H
	DB	063H
	DB	012H
	DB	064H
	DB	0f2H
	DB	063H
	DB	0f2H
	DB	063H
	DB	012H
	DB	06cH
	DB	0f2H
	DB	063H
	DB	0f2H
	DB	063H
	DB	012H
	DB	06cH
	DB	012H
	DB	06cH
	DB	012H
	DB	06cH
	DB	012H
	DB	064H
	DB	0f2H
	DB	063H
	DB	012H
	DB	064H
	DB	012H
	DB	064H
	DB	012H
	DB	06cH
	DB	012H
	DB	064H
	DB	012H
	DB	06cH
	DB	04eH
	DB	063H
	DB	089H
	DB	05aH
	DB	0e7H
	DB	049H
	DB	025H
	DB	031H
	DB	05H
	DB	029H
	DB	083H
	DB	018H
	DB	0c4H
	DB	028H
	DB	066H
	DB	041H
	DB	0e7H
	DB	051H
	DB	028H
	DB	062H
	DB	089H
	DB	072H
	DB	028H
	DB	062H
	DB	027H
	DB	06aH
	DB	088H
	DB	07aH
	DB	02aH
	DB	093H
	DB	0ccH
	DB	0a3H
	DB	06fH
	DB	0bcH
	DB	0d0H
	DB	0ccH
	DB	011H
	DB	0ddH
	DB	031H
	DB	0e5H
	DB	052H
	DB	0edH
	DB	052H
	DB	0edH
	DB	052H
	DB	0edH
	DB	072H
	DB	0edH
	DB	093H
	DB	0f5H
	DB	0b3H
	DB	0edH
	DB	0d4H
	DB	0f5H
	DB	014H
	DB	0f6H
	DB	0f4H
	DB	0f5H
	DB	015H
	DB	0feH
	DB	015H
	DB	0feH
	DB	035H
	DB	0feH
	DB	036H
	DB	0f6H
	DB	036H
	DB	0f6H
	DB	077H
	DB	0feH
	DB	097H
	DB	0feH
	DB	097H
	DB	0feH
	DB	097H
	DB	0feH
	DB	0b8H
	DB	0feH
	DB	0b8H
	DB	0feH
	DB	0b8H
	DB	0feH
	DB	0b8H
	DB	0f6H
	DB	0b8H
	DB	0feH
	DB	0b8H
	DB	0feH
	DB	0b8H
	DB	0feH
	DB	0b9H
	DB	0feH
	DB	0b9H
	DB	0feH
	DB	0b8H
	DB	0feH
	DB	0b8H
	DB	0feH
	DB	077H
	DB	0f6H
	DB	097H
	DB	0feH
	DB	056H
	DB	0f6H
	DB	016H
	DB	0f6H
	DB	0f5H
	DB	0edH
	DB	0f4H
	DB	0edH
	DB	0d4H
	DB	0edH
	DB	093H
	DB	0e5H
	DB	0b4H
	DB	0edH
	DB	073H
	DB	0e5H
	DB	052H
	DB	0e5H
	DB	031H
	DB	0ddH
	DB	011H
	DB	0d5H
	DB	0d0H
	DB	0ccH
	DB	0b0H
	DB	0ccH
	DB	04eH
	DB	0bcH
	DB	0edH
	DB	0abH
	DB	0acH
	DB	0a3H
	DB	02bH
	DB	08bH
	DB	0a9H
	DB	072H
	DB	028H
	DB	062H
	DB	0a6H
	DB	049H
	DB	04H
	DB	031H
	DB	062H
	DB	018H
	DB	021H
	DB	010H
	DB	021H
	DB	00H
	DB	021H
	DB	00H
	DB	01H
	DB	00H
	DB	083H
	DB	010H
	DB	0a7H
	DB	031H
	DB	06aH
	DB	04aH
	DB	08fH
	DB	063H
	DB	012H
	DB	06cH
	DB	013H
	DB	064H
	DB	012H
	DB	06cH
	DB	012H
	DB	064H
	DB	012H
	DB	06cH
	DB	012H
	DB	064H
	DB	012H
	DB	06cH
	DB	012H
	DB	064H
	DB	012H
	DB	064H
	DB	012H
	DB	064H
	DB	012H
	DB	06cH
	DB	0f2H
	DB	063H
	DB	012H
	DB	064H
	DB	012H
	DB	064H
	DB	0f2H
	DB	063H
	DB	0f2H
	DB	06bH
	DB	012H
	DB	06cH
	DB	012H
	DB	064H
	DB	0f2H
	DB	063H
	DB	0f2H
	DB	063H
	DB	012H
	DB	064H
	DB	012H
	DB	064H
	DB	012H
	DB	06cH
	DB	0f2H
	DB	063H
	DB	0f2H
	DB	063H
	DB	012H
	DB	064H
	DB	0f2H
	DB	063H
	DB	0f2H
	DB	063H
	DB	012H
	DB	064H
	DB	0f1H
	DB	063H
	DB	0f2H
	DB	063H
	DB	0f2H
	DB	063H
	DB	0f1H
	DB	063H
	DB	0f2H
	DB	063H
	DB	0f1H
	DB	063H
	DB	0b0H
	DB	05bH
	DB	0b0H
	DB	063H
	DB	0b1H
	DB	063H
	DB	0b0H
	DB	05bH
	DB	0b0H
	DB	05bH
	DB	0b1H
	DB	05bH
	DB	0b0H
	DB	05bH
	DB	0d1H
	DB	063H
	DB	0d1H
	DB	05bH
	DB	0b0H
	DB	05bH
	DB	0d1H
	DB	063H
	DB	0d1H
	DB	063H
	DB	0d0H
	DB	05bH
	DB	0d1H
	DB	063H
	DB	0d1H
	DB	063H
	DB	0d1H
	DB	063H
	DB	0d0H
	DB	05bH
	DB	0d1H
	DB	05bH
	DB	0d1H
	DB	063H
	DB	0d1H
	DB	05bH
	DB	0d1H
	DB	05bH
	DB	0d1H
	DB	063H
	DB	0f1H
	DB	063H
	DB	0d1H
	DB	05bH
	DB	0d1H
	DB	05bH
	DB	0f1H
	DB	063H
	DB	0f1H
	DB	063H
	DB	0f1H
	DB	063H
	DB	0f1H
	DB	063H
	DB	0d1H
	DB	063H
	DB	0f1H
	DB	063H
	DB	0f1H
	DB	063H
	DB	0d1H
	DB	05bH
	DB	0f2H
	DB	063H
	DB	0f1H
	DB	063H
	DB	0f1H
	DB	063H
	DB	0f2H
	DB	063H
	DB	0f2H
	DB	063H
	DB	0f2H
	DB	063H
	DB	0f1H
	DB	063H
	DB	0f2H
	DB	063H
	DB	0f1H
	DB	063H
	DB	012H
	DB	064H
	DB	012H
	DB	064H
	DB	0f2H
	DB	063H
	DB	012H
	DB	064H
	DB	0f1H
	DB	063H
	DB	0f2H
	DB	063H
	DB	012H
	DB	064H
	DB	012H
	DB	06cH
	DB	0f2H
	DB	06bH
	DB	012H
	DB	06cH
	DB	0f2H
	DB	063H
	DB	0f1H
	DB	063H
	DB	012H
	DB	06cH
	DB	012H
	DB	064H
	DB	0f2H
	DB	063H
	DB	012H
	DB	064H
	DB	012H
	DB	06cH
	DB	012H
	DB	06cH
	DB	012H
	DB	064H
	DB	012H
	DB	064H
	DB	012H
	DB	06cH
	DB	011H
	DB	06cH
	DB	0ecH
	DB	05aH
	DB	049H
	DB	05aH
	DB	066H
	DB	039H
	DB	066H
	DB	039H
	DB	0e4H
	DB	020H
	DB	0a4H
	DB	020H
	DB	0c4H
	DB	028H
	DB	045H
	DB	041H
	DB	049H
	DB	062H
	DB	089H
	DB	06aH
	DB	07H
	DB	062H
	DB	07H
	DB	062H
	DB	068H
	DB	072H
	DB	0aH
	DB	08bH
	DB	06bH
	DB	09bH
	DB	0dH
	DB	0acH
	DB	0f0H
	DB	0ccH
	DB	010H
	DB	0d5H
	DB	031H
	DB	0e5H
	DB	052H
	DB	0e5H
	DB	031H
	DB	0e5H
	DB	052H
	DB	0e5H
	DB	051H
	DB	0e5H
	DB	072H
	DB	0edH
	DB	072H
	DB	0edH
	DB	092H
	DB	0edH
	DB	0d3H
	DB	0f5H
	DB	015H
	DB	0f6H
	DB	015H
	DB	0feH
	DB	015H
	DB	0feH
	DB	035H
	DB	0feH
	DB	056H
	DB	0feH
	DB	056H
	DB	0feH
	DB	077H
	DB	0feH
	DB	0b8H
	DB	0feH
	DB	0b8H
	DB	0feH
	DB	0b8H
	DB	0feH
	DB	0d8H
	DB	0feH
	DB	0b8H
	DB	0f6H
	DB	0b9H
	DB	0feH
	DB	0d9H
	DB	0feH
	DB	0d9H
	DB	0feH
	DB	0d8H
	DB	0feH
	DB	0b8H
	DB	0feH
	DB	0d9H
	DB	0feH
	DB	0d9H
	DB	0feH
	DB	0d8H
	DB	0feH
	DB	0f9H
	DB	0feH
	DB	0b8H
	DB	0feH
	DB	098H
	DB	0feH
	DB	097H
	DB	0feH
	DB	077H
	DB	0f6H
	DB	036H
	DB	0f6H
	DB	015H
	DB	0f6H
	DB	0f5H
	DB	0edH
	DB	0d4H
	DB	0edH
	DB	0b4H
	DB	0edH
	DB	0b4H
	DB	0e5H
	DB	093H
	DB	0e5H
	DB	072H
	DB	0e5H
	DB	032H
	DB	0ddH
	DB	031H
	DB	0ddH
	DB	0f1H
	DB	0d4H
	DB	0d0H
	DB	0ccH
	DB	06fH
	DB	0c4H
	DB	02eH
	DB	0b4H
	DB	0edH
	DB	0abH
	DB	0acH
	DB	0a3H
	DB	0bH
	DB	08bH
	DB	088H
	DB	072H
	DB	027H
	DB	062H
	DB	086H
	DB	049H
	DB	0c3H
	DB	028H
	DB	041H
	DB	010H
	DB	042H
	DB	08H
	DB	042H
	DB	08H
	DB	021H
	DB	08H
	DB	062H
	DB	010H
	DB	066H
	DB	031H
	DB	066H
	DB	031H
	DB	02eH
	DB	05bH
	DB	013H
	DB	06cH
	DB	013H
	DB	064H
	DB	032H
	DB	06cH
	DB	012H
	DB	064H
	DB	013H
	DB	064H
	DB	012H
	DB	06cH
	DB	013H
	DB	06cH
	DB	012H
	DB	06cH
	DB	013H
	DB	064H
	DB	012H
	DB	064H
	DB	012H
	DB	06cH
	DB	012H
	DB	064H
	DB	012H
	DB	064H
	DB	012H
	DB	064H
	DB	0f1H
	DB	063H
	DB	012H
	DB	064H
	DB	0f2H
	DB	063H
	DB	012H
	DB	06cH
	DB	0f2H
	DB	06bH
	DB	012H
	DB	064H
	DB	0f2H
	DB	06bH
	DB	0f2H
	DB	063H
	DB	012H
	DB	064H
	DB	012H
	DB	064H
	DB	012H
	DB	06cH
	DB	012H
	DB	064H
	DB	0f2H
	DB	063H
	DB	012H
	DB	064H
	DB	0f1H
	DB	063H
	DB	0f1H
	DB	063H
	DB	012H
	DB	064H
	DB	0f1H
	DB	063H
	DB	0f1H
	DB	063H
	DB	012H
	DB	064H
	DB	0f1H
	DB	063H
	DB	0b0H
	DB	05bH
	DB	0b1H
	DB	05bH
	DB	0b1H
	DB	063H
	DB	0b0H
	DB	05bH
	DB	0b1H
	DB	063H
	DB	0d1H
	DB	063H
	DB	0d1H
	DB	063H
	DB	0d1H
	DB	05bH
	DB	0d0H
	DB	05bH
	DB	0d1H
	DB	063H
	DB	0d1H
	DB	05bH
	DB	0d1H
	DB	063H
	DB	0d1H
	DB	063H
	DB	0d1H
	DB	063H
	DB	0f1H
	DB	063H
	DB	0d1H
	DB	063H
	DB	0f1H
	DB	063H
	DB	0d1H
	DB	063H
	DB	0f1H
	DB	063H
	DB	0f1H
	DB	063H
	DB	0f1H
	DB	063H
	DB	0f1H
	DB	063H
	DB	0f1H
	DB	063H
	DB	0f1H
	DB	063H
	DB	0f1H
	DB	063H
	DB	0f1H
	DB	063H
	DB	0f1H
	DB	063H
	DB	0f1H
	DB	063H
	DB	0f1H
	DB	063H
	DB	0f1H
	DB	063H
	DB	0f2H
	DB	063H
	DB	0f1H
	DB	063H
	DB	0f1H
	DB	063H
	DB	0f2H
	DB	063H
	DB	012H
	DB	064H
	DB	0f1H
	DB	063H
	DB	0f2H
	DB	063H
	DB	0f1H
	DB	063H
	DB	0d1H
	DB	063H
	DB	0f2H
	DB	063H
	DB	0f2H
	DB	063H
	DB	0f1H
	DB	063H
	DB	0f2H
	DB	06bH
	DB	012H
	DB	064H
	DB	0f1H
	DB	063H
	DB	012H
	DB	064H
	DB	0f2H
	DB	063H
	DB	011H
	DB	064H
	DB	012H
	DB	06cH
	DB	012H
	DB	064H
	DB	012H
	DB	064H
	DB	012H
	DB	06cH
	DB	012H
	DB	064H
	DB	012H
	DB	064H
	DB	012H
	DB	06cH
	DB	012H
	DB	06cH
	DB	012H
	DB	064H
	DB	012H
	DB	06cH
	DB	012H
	DB	06cH
	DB	012H
	DB	064H
	DB	012H
	DB	06cH
	DB	032H
	DB	06cH
	DB	012H
	DB	06cH
	DB	0f1H
	DB	06bH
	DB	02dH
	DB	06bH
	DB	08H
	DB	052H
	DB	086H
	DB	039H
	DB	087H
	DB	039H
	DB	0e5H
	DB	028H
	DB	083H
	DB	020H
	DB	0e4H
	DB	028H
	DB	066H
	DB	041H
	DB	0a6H
	DB	051H
	DB	07H
	DB	05aH
	DB	0a6H
	DB	051H
	DB	0e6H
	DB	059H
	DB	068H
	DB	072H
	DB	0e9H
	DB	082H
	DB	0acH
	DB	09bH
	DB	04eH
	DB	0b4H
	DB	011H
	DB	0d5H
	DB	051H
	DB	0ddH
	DB	052H
	DB	0e5H
	DB	052H
	DB	0edH
	DB	052H
	DB	0edH
	DB	052H
	DB	0e5H
	DB	072H
	DB	0edH
	DB	092H
	DB	0edH
	DB	093H
	DB	0edH
	DB	0b3H
	DB	0edH
	DB	0d4H
	DB	0f5H
	DB	014H
	DB	0f6H
	DB	035H
	DB	0feH
	DB	056H
	DB	0feH
	DB	056H
	DB	0f6H
	DB	056H
	DB	0feH
	DB	077H
	DB	0feH
	DB	0b8H
	DB	0feH
	DB	0d8H
	DB	0feH
	DB	0d9H
	DB	0feH
	DB	0f9H
	DB	0feH
	DB	0f9H
	DB	0feH
	DB	01aH
	DB	0ffH
	DB	0faH
	DB	0feH
	DB	0f9H
	DB	0feH
	DB	0f9H
	DB	0feH
	DB	0f9H
	DB	0feH
	DB	0d9H
	DB	0feH
	DB	0d9H
	DB	0feH
	DB	0b8H
	DB	0feH
	DB	0b8H
	DB	0feH
	DB	0d8H
	DB	0f6H
	DB	0d9H
	DB	0feH
	DB	0b8H
	DB	0feH
	DB	097H
	DB	0f6H
	DB	077H
	DB	0feH
	DB	056H
	DB	0f6H
	DB	035H
	DB	0f6H
	DB	036H
	DB	0f6H
	DB	0f5H
	DB	0edH
	DB	0d4H
	DB	0edH
	DB	0b4H
	DB	0e5H
	DB	093H
	DB	0e5H
	DB	072H
	DB	0ddH
	DB	052H
	DB	0ddH
	DB	032H
	DB	0ddH
	DB	011H
	DB	0d5H
	DB	0d0H
	DB	0ccH
	DB	08fH
	DB	0c4H
	DB	02dH
	DB	0b4H
	DB	0dH
	DB	0b4H
	DB	0ccH
	DB	0abH
	DB	06bH
	DB	09bH
	DB	0caH
	DB	082H
	DB	068H
	DB	072H
	DB	07H
	DB	05aH
	DB	086H
	DB	049H
	DB	0a3H
	DB	020H
	DB	042H
	DB	010H
	DB	063H
	DB	010H
	DB	022H
	DB	08H
	DB	022H
	DB	08H
	DB	046H
	DB	031H
	DB	0a7H
	DB	031H
	DB	06fH
	DB	063H
	DB	033H
	DB	06cH
	DB	033H
	DB	06cH
	DB	032H
	DB	06cH
	DB	033H
	DB	06cH
	DB	033H
	DB	06cH
	DB	012H
	DB	064H
	DB	033H
	DB	06cH
	DB	033H
	DB	06cH
	DB	032H
	DB	06cH
	DB	012H
	DB	06cH
	DB	032H
	DB	06cH
	DB	032H
	DB	06cH
	DB	012H
	DB	06cH
	DB	012H
	DB	06cH
	DB	012H
	DB	06cH
	DB	012H
	DB	064H
	DB	012H
	DB	064H
	DB	012H
	DB	064H
	DB	012H
	DB	064H
	DB	012H
	DB	06cH
	DB	012H
	DB	06cH
	DB	012H
	DB	06cH
	DB	0f2H
	DB	063H
	DB	012H
	DB	06cH
	DB	012H
	DB	06cH
	DB	012H
	DB	064H
	DB	0f2H
	DB	063H
	DB	012H
	DB	06cH
	DB	0f1H
	DB	063H
	DB	012H
	DB	064H
	DB	0f1H
	DB	063H
	DB	0f1H
	DB	063H
	DB	012H
	DB	064H
	DB	011H
	DB	064H
	DB	012H
	DB	06cH
	DB	0b1H
	DB	05bH
	DB	0d1H
	DB	063H
	DB	0d1H
	DB	05bH
	DB	0d1H
	DB	063H
	DB	0d1H
	DB	063H
	DB	0d1H
	DB	063H
	DB	0f1H
	DB	063H
	DB	0d1H
	DB	063H
	DB	0d1H
	DB	063H
	DB	0d1H
	DB	063H
	DB	0d1H
	DB	05bH
	DB	0d1H
	DB	063H
	DB	0f1H
	DB	063H
	DB	0d1H
	DB	05bH
	DB	0f1H
	DB	063H
	DB	0f1H
	DB	063H
	DB	0f1H
	DB	063H
	DB	0d1H
	DB	063H
	DB	0f1H
	DB	063H
	DB	0f1H
	DB	063H
	DB	0f1H
	DB	063H
	DB	0f1H
	DB	063H
	DB	0f1H
	DB	063H
	DB	0f1H
	DB	063H
	DB	0f1H
	DB	063H
	DB	0f1H
	DB	063H
	DB	0f2H
	DB	063H
	DB	0f2H
	DB	063H
	DB	012H
	DB	064H
	DB	012H
	DB	064H
	DB	012H
	DB	064H
	DB	0f1H
	DB	063H
	DB	0f1H
	DB	063H
	DB	012H
	DB	064H
	DB	012H
	DB	064H
	DB	011H
	DB	064H
	DB	012H
	DB	064H
	DB	0f2H
	DB	063H
	DB	0f1H
	DB	063H
	DB	012H
	DB	06cH
	DB	012H
	DB	06cH
	DB	0f2H
	DB	063H
	DB	012H
	DB	06cH
	DB	012H
	DB	06cH
	DB	0f2H
	DB	063H
	DB	012H
	DB	06cH
	DB	012H
	DB	06cH
	DB	012H
	DB	064H
	DB	012H
	DB	064H
	DB	012H
	DB	064H
	DB	012H
	DB	06cH
	DB	012H
	DB	06cH
	DB	012H
	DB	064H
	DB	032H
	DB	06cH
	DB	012H
	DB	06cH
	DB	032H
	DB	06cH
	DB	032H
	DB	06cH
	DB	012H
	DB	064H
	DB	012H
	DB	064H
	DB	032H
	DB	06cH
	DB	033H
	DB	06cH
	DB	033H
	DB	064H
	DB	012H
	DB	064H
	DB	0f1H
	DB	06bH
	DB	0cbH
	DB	05aH
	DB	0a6H
	DB	041H
	DB	087H
	DB	039H
	DB	047H
	DB	031H
	DB	084H
	DB	020H
	DB	0a4H
	DB	028H
	DB	0e4H
	DB	030H
	DB	086H
	DB	049H
	DB	07H
	DB	05aH
	DB	0a6H
	DB	051H
	DB	0a6H
	DB	059H
	DB	027H
	DB	062H
	DB	0c9H
	DB	082H
	DB	08cH
	DB	09bH
	DB	02eH
	DB	0b4H
	DB	08fH
	DB	0c4H
	DB	031H
	DB	0ddH
	DB	052H
	DB	0e5H
	DB	072H
	DB	0e5H
	DB	072H
	DB	0edH
	DB	052H
	DB	0edH
	DB	072H
	DB	0edH
	DB	093H
	DB	0edH
	DB	0b3H
	DB	0edH
	DB	0b3H
	DB	0edH
	DB	0f4H
	DB	0f5H
	DB	0f5H
	DB	0f5H
	DB	015H
	DB	0f6H
	DB	035H
	DB	0f6H
	DB	056H
	DB	0feH
	DB	056H
	DB	0feH
	DB	077H
	DB	0f6H
	DB	0b8H
	DB	0feH
	DB	0d8H
	DB	0feH
	DB	0d9H
	DB	0feH
	DB	0f9H
	DB	0feH
	DB	01aH
	DB	0ffH
	DB	01aH
	DB	0ffH
	DB	0faH
	DB	0feH
	DB	01aH
	DB	0ffH
	DB	01aH
	DB	0ffH
	DB	0f9H
	DB	0feH
	DB	0f9H
	DB	0feH
	DB	0d9H
	DB	0feH
	DB	0f9H
	DB	0feH
	DB	0f9H
	DB	0feH
	DB	0f9H
	DB	0feH
	DB	0d9H
	DB	0f6H
	DB	0d9H
	DB	0feH
	DB	0b8H
	DB	0feH
	DB	097H
	DB	0f6H
	DB	097H
	DB	0feH
	DB	056H
	DB	0f6H
	DB	056H
	DB	0f6H
	DB	056H
	DB	0f6H
	DB	015H
	DB	0f6H
	DB	0f4H
	DB	0edH
	DB	0d4H
	DB	0edH
	DB	0b4H
	DB	0e5H
	DB	073H
	DB	0e5H
	DB	052H
	DB	0ddH
	DB	052H
	DB	0ddH
	DB	011H
	DB	0d5H
	DB	0d0H
	DB	0d4H
	DB	0afH
	DB	0c4H
	DB	04eH
	DB	0bcH
	DB	0dH
	DB	0b4H
	DB	0ccH
	DB	0abH
	DB	04bH
	DB	09bH
	DB	0eaH
	DB	08aH
	DB	0eaH
	DB	082H
	DB	048H
	DB	06aH
	DB	07H
	DB	05aH
	DB	045H
	DB	041H
	DB	0a3H
	DB	020H
	DB	062H
	DB	010H
	DB	041H
	DB	08H
	DB	062H
	DB	010H
	DB	025H
	DB	029H
	DB	0a7H
	DB	039H
	DB	04eH
	DB	05bH
	DB	013H
	DB	06cH
	DB	032H
	DB	06cH
	DB	032H
	DB	06cH
	DB	033H
	DB	06cH
	DB	012H
	DB	064H
	DB	033H
	DB	06cH
	DB	012H
	DB	064H
	DB	033H
	DB	06cH
	DB	033H
	DB	06cH
	DB	012H
	DB	064H
	DB	032H
	DB	06cH
	DB	012H
	DB	06cH
	DB	012H
	DB	064H
	DB	012H
	DB	064H
	DB	032H
	DB	06cH
	DB	012H
	DB	06cH
	DB	012H
	DB	06cH
	DB	032H
	DB	06cH
	DB	012H
	DB	064H
	DB	012H
	DB	064H
	DB	012H
	DB	064H
	DB	012H
	DB	06cH
	DB	012H
	DB	064H
	DB	012H
	DB	064H
	DB	012H
	DB	06cH
	DB	012H
	DB	06cH
	DB	012H
	DB	064H
	DB	012H
	DB	06cH
	DB	012H
	DB	06cH
	DB	0f1H
	DB	063H
	DB	0f1H
	DB	063H
	DB	012H
	DB	06cH
	DB	0f2H
	DB	063H
	DB	0f1H
	DB	063H
	DB	012H
	DB	06cH
	DB	0b0H
	DB	05bH
	DB	0d0H
	DB	05bH
	DB	0d1H
	DB	063H
	DB	0d0H
	DB	05bH
	DB	0d1H
	DB	05bH
	DB	0d1H
	DB	063H
	DB	0d1H
	DB	05bH
	DB	0f1H
	DB	063H
	DB	0d1H
	DB	063H
	DB	0f1H
	DB	063H
	DB	0f1H
	DB	063H
	DB	0d1H
	DB	063H
	DB	0f1H
	DB	063H
	DB	0f1H
	DB	063H
	DB	0d1H
	DB	05bH
	DB	0f1H
	DB	063H
	DB	0f1H
	DB	063H
	DB	0f1H
	DB	063H
	DB	0f1H
	DB	063H
	DB	0f1H
	DB	063H
	DB	0f1H
	DB	063H
	DB	0f1H
	DB	063H
	DB	0f1H
	DB	063H
	DB	0f1H
	DB	063H
	DB	0f1H
	DB	063H
	DB	012H
	DB	064H
	DB	0f1H
	DB	063H
	DB	011H
	DB	064H
	DB	0f1H
	DB	063H
	DB	012H
	DB	06cH
	DB	011H
	DB	064H
	DB	012H
	DB	064H
	DB	012H
	DB	06cH
	DB	012H
	DB	06cH
	DB	012H
	DB	06cH
	DB	012H
	DB	06cH
	DB	011H
	DB	064H
	DB	012H
	DB	06cH
	DB	012H
	DB	06cH
	DB	012H
	DB	06cH
	DB	012H
	DB	064H
	DB	012H
	DB	064H
	DB	012H
	DB	06cH
	DB	012H
	DB	064H
	DB	012H
	DB	064H
	DB	012H
	DB	06cH
	DB	012H
	DB	064H
	DB	012H
	DB	06cH
	DB	012H
	DB	064H
	DB	032H
	DB	064H
	DB	032H
	DB	06cH
	DB	032H
	DB	064H
	DB	012H
	DB	064H
	DB	032H
	DB	06cH
	DB	032H
	DB	064H
	DB	033H
	DB	06cH
	DB	032H
	DB	06cH
	DB	033H
	DB	06cH
	DB	032H
	DB	06cH
	DB	032H
	DB	06cH
	DB	032H
	DB	06cH
	DB	033H
	DB	064H
	DB	033H
	DB	06cH
	DB	0d0H
	DB	06bH
	DB	08H
	DB	04aH
	DB	086H
	DB	041H
	DB	086H
	DB	041H
	DB	0c5H
	DB	020H
	DB	084H
	DB	020H
	DB	0e4H
	DB	028H
	DB	065H
	DB	039H
	DB	0e7H
	DB	051H
	DB	0c6H
	DB	051H
	DB	0a6H
	DB	051H
	DB	027H
	DB	06aH
	DB	0c9H
	DB	07aH
	DB	02bH
	DB	08bH
	DB	0acH
	DB	0a3H
	DB	0dH
	DB	0b4H
	DB	0d0H
	DB	0ccH
	DB	031H
	DB	0ddH
	DB	072H
	DB	0e5H
	DB	073H
	DB	0edH
	DB	093H
	DB	0edH
	DB	072H
	DB	0edH
	DB	092H
	DB	0edH
	DB	0d3H
	DB	0f5H
	DB	0f4H
	DB	0f5H
	DB	0f4H
	DB	0f5H
	DB	0f5H
	DB	0f5H
	DB	015H
	DB	0feH
	DB	015H
	DB	0feH
	DB	036H
	DB	0feH
	DB	056H
	DB	0feH
	DB	077H
	DB	0feH
	DB	097H
	DB	0feH
	DB	098H
	DB	0feH
	DB	0b8H
	DB	0feH
	DB	0d9H
	DB	0feH
	DB	0f9H
	DB	0feH
	DB	0f9H
	DB	0feH
	DB	01aH
	DB	0ffH
	DB	01aH
	DB	0ffH
	DB	01aH
	DB	0ffH
	DB	01aH
	DB	0ffH
	DB	01aH
	DB	0ffH
	DB	0faH
	DB	0feH
	DB	0d9H
	DB	0f6H
	DB	0d9H
	DB	0feH
	DB	0faH
	DB	0feH
	DB	0faH
	DB	0feH
	DB	0f9H
	DB	0feH
	DB	0f9H
	DB	0feH
	DB	0d9H
	DB	0feH
	DB	0b8H
	DB	0feH
	DB	097H
	DB	0f6H
	DB	077H
	DB	0f6H
	DB	056H
	DB	0feH
	DB	056H
	DB	0f6H
	DB	036H
	DB	0f6H
	DB	0f5H
	DB	0edH
	DB	0d4H
	DB	0edH
	DB	0d4H
	DB	0edH
	DB	093H
	DB	0e5H
	DB	052H
	DB	0ddH
	DB	032H
	DB	0ddH
	DB	011H
	DB	0d5H
	DB	0d0H
	DB	0d4H
	DB	0afH
	DB	0ccH
	DB	06fH
	DB	0c4H
	DB	0dH
	DB	0b4H
	DB	0ccH
	DB	0abH
	DB	06bH
	DB	09bH
	DB	0aH
	DB	093H
	DB	0eaH
	DB	08aH
	DB	089H
	DB	072H
	DB	048H
	DB	06aH
	DB	0e7H
	DB	051H
	DB	045H
	DB	031H
	DB	04H
	DB	029H
	DB	062H
	DB	018H
	DB	0a3H
	DB	018H
	DB	05H
	DB	029H
	DB	0e8H
	DB	041H
	DB	0acH
	DB	04aH
	DB	033H
	DB	06cH
	DB	033H
	DB	06cH
	DB	033H
	DB	06cH
	DB	033H
	DB	06cH
	DB	033H
	DB	06cH
	DB	033H
	DB	06cH
	DB	033H
	DB	06cH
	DB	033H
	DB	06cH
	DB	033H
	DB	06cH
	DB	032H
	DB	06cH
	DB	033H
	DB	06cH
	DB	033H
	DB	06cH
	DB	033H
	DB	06cH
	DB	032H
	DB	06cH
	DB	033H
	DB	06cH
	DB	032H
	DB	064H
	DB	012H
	DB	064H
	DB	012H
	DB	064H
	DB	032H
	DB	06cH
	DB	012H
	DB	064H
	DB	012H
	DB	064H
	DB	012H
	DB	064H
	DB	012H
	DB	064H
	DB	012H
	DB	064H
	DB	012H
	DB	064H
	DB	032H
	DB	064H
	DB	012H
	DB	064H
	DB	012H
	DB	064H
	DB	012H
	DB	06cH
	DB	012H
	DB	064H
	DB	012H
	DB	06cH
	DB	012H
	DB	06cH
	DB	012H
	DB	06cH
	DB	011H
	DB	064H
	DB	012H
	DB	06cH
	DB	0d1H
	DB	063H
	DB	0d1H
	DB	063H
	DB	0d1H
	DB	05bH
	DB	0f1H
	DB	063H
	DB	0d1H
	DB	063H
	DB	0f1H
	DB	063H
	DB	0f1H
	DB	05bH
	DB	0d1H
	DB	05bH
	DB	0d1H
	DB	05bH
	DB	0f1H
	DB	063H
	DB	0d1H
	DB	05bH
	DB	0f1H
	DB	063H
	DB	0f1H
	DB	063H
	DB	0f1H
	DB	063H
	DB	0f1H
	DB	063H
	DB	0d1H
	DB	063H
	DB	0f1H
	DB	063H
	DB	0f2H
	DB	063H
	DB	0f1H
	DB	063H
	DB	0f2H
	DB	063H
	DB	0f1H
	DB	063H
	DB	012H
	DB	064H
	DB	0f2H
	DB	063H
	DB	0f1H
	DB	063H
	DB	0f2H
	DB	063H
	DB	012H
	DB	064H
	DB	0f1H
	DB	063H
	DB	012H
	DB	064H
	DB	012H
	DB	06cH
	DB	0f1H
	DB	063H
	DB	0f1H
	DB	063H
	DB	0f2H
	DB	063H
	DB	012H
	DB	06cH
	DB	0f1H
	DB	063H
	DB	0f1H
	DB	063H
	DB	012H
	DB	06cH
	DB	0f2H
	DB	063H
	DB	0f2H
	DB	063H
	DB	0f2H
	DB	063H
	DB	012H
	DB	064H
	DB	012H
	DB	06cH
	DB	012H
	DB	06cH
	DB	012H
	DB	064H
	DB	012H
	DB	06cH
	DB	032H
	DB	06cH
	DB	032H
	DB	06cH
	DB	032H
	DB	06cH
	DB	032H
	DB	06cH
	DB	012H
	DB	06cH
	DB	032H
	DB	06cH
	DB	012H
	DB	064H
	DB	012H
	DB	064H
	DB	012H
	DB	064H
	DB	033H
	DB	06cH
	DB	032H
	DB	064H
	DB	012H
	DB	064H
	DB	033H
	DB	06cH
	DB	033H
	DB	06cH
	DB	032H
	DB	06cH
	DB	033H
	DB	06cH
	DB	033H
	DB	06cH
	DB	032H
	DB	064H
	DB	032H
	DB	06cH
	DB	08fH
	DB	063H
	DB	08H
	DB	04aH
	DB	0c7H
	DB	049H
	DB	066H
	DB	039H
	DB	084H
	DB	018H
	DB	064H
	DB	018H
	DB	05H
	DB	031H
	DB	0c7H
	DB	049H
	DB	0c6H
	DB	051H
	DB	0e7H
	DB	059H
	DB	0e6H
	DB	061H
	DB	068H
	DB	072H
	DB	0caH
	DB	082H
	DB	04bH
	DB	093H
	DB	0eH
	DB	0b4H
	DB	08fH
	DB	0c4H
	DB	0f0H
	DB	0ccH
	DB	052H
	DB	0ddH
	DB	073H
	DB	0e5H
	DB	093H
	DB	0edH
	DB	093H
	DB	0edH
	DB	093H
	DB	0edH
	DB	0b3H
	DB	0f5H
	DB	0f4H
	DB	0f5H
	DB	0f4H
	DB	0f5H
	DB	0f4H
	DB	0f5H
	DB	015H
	DB	0f6H
	DB	015H
	DB	0feH
	DB	035H
	DB	0feH
	DB	036H
	DB	0feH
	DB	056H
	DB	0feH
	DB	077H
	DB	0feH
	DB	098H
	DB	0feH
	DB	0b8H
	DB	0feH
	DB	0b8H
	DB	0feH
	DB	0d9H
	DB	0feH
	DB	0f9H
	DB	0feH
	DB	0f9H
	DB	0feH
	DB	0f9H
	DB	0feH
	DB	01aH
	DB	0ffH
	DB	03aH
	DB	0ffH
	DB	03aH
	DB	0ffH
	DB	01aH
	DB	0ffH
	DB	01aH
	DB	0ffH
	DB	0f9H
	DB	0feH
	DB	0faH
	DB	0feH
	DB	0f9H
	DB	0feH
	DB	0f9H
	DB	0feH
	DB	0f9H
	DB	0feH
	DB	0f9H
	DB	0feH
	DB	0d8H
	DB	0feH
	DB	0b8H
	DB	0f6H
	DB	098H
	DB	0feH
	DB	076H
	DB	0f6H
	DB	077H
	DB	0feH
	DB	056H
	DB	0f6H
	DB	036H
	DB	0f6H
	DB	015H
	DB	0f6H
	DB	0f4H
	DB	0edH
	DB	0b4H
	DB	0e5H
	DB	093H
	DB	0e5H
	DB	073H
	DB	0ddH
	DB	032H
	DB	0ddH
	DB	011H
	DB	0d5H
	DB	0d0H
	DB	0ccH
	DB	0afH
	DB	0ccH
	DB	06eH
	DB	0c4H
	DB	0dH
	DB	0b4H
	DB	0acH
	DB	0abH
	DB	04bH
	DB	09bH
	DB	02bH
	DB	093H
	DB	0aH
	DB	093H
	DB	0c9H
	DB	07aH
	DB	088H
	DB	072H
	DB	07H
	DB	05aH
	DB	0a6H
	DB	041H
	DB	025H
	DB	031H
	DB	0e4H
	DB	028H
	DB	0e3H
	DB	020H
	DB	0e4H
	DB	020H
	DB	066H
	DB	031H
	DB	02aH
	DB	042H
	DB	033H
	DB	074H
	DB	033H
	DB	06cH
	DB	032H
	DB	06cH
	DB	033H
	DB	06cH
	DB	033H
	DB	06cH
	DB	032H
	DB	06cH
	DB	033H
	DB	06cH
	DB	033H
	DB	06cH
	DB	033H
	DB	06cH
	DB	032H
	DB	06cH
	DB	033H
	DB	06cH
	DB	032H
	DB	06cH
	DB	033H
	DB	06cH
	DB	033H
	DB	06cH
	DB	032H
	DB	06cH
	DB	032H
	DB	064H
	DB	032H
	DB	064H
	DB	032H
	DB	06cH
	DB	033H
	DB	06cH
	DB	032H
	DB	06cH
	DB	032H
	DB	06cH
	DB	032H
	DB	064H
	DB	032H
	DB	064H
	DB	032H
	DB	064H
	DB	032H
	DB	06cH
	DB	032H
	DB	06cH
	DB	032H
	DB	06cH
	DB	012H
	DB	064H
	DB	032H
	DB	06cH
	DB	012H
	DB	06cH
	DB	032H
	DB	06cH
	DB	012H
	DB	06cH
	DB	032H
	DB	06cH
	DB	012H
	DB	064H
	DB	012H
	DB	064H
	DB	0d1H
	DB	05bH
	DB	0d1H
	DB	063H
	DB	0f1H
	DB	063H
	DB	0d1H
	DB	063H
	DB	0d1H
	DB	05bH
	DB	0f1H
	DB	063H
	DB	0d1H
	DB	063H
	DB	0d1H
	DB	063H
	DB	0f1H
	DB	063H
	DB	0f1H
	DB	063H
	DB	0f1H
	DB	063H
	DB	0f1H
	DB	063H
	DB	0f1H
	DB	063H
	DB	0f1H
	DB	063H
	DB	0f1H
	DB	063H
	DB	0f1H
	DB	063H
	DB	0f1H
	DB	063H
	DB	0f1H
	DB	063H
	DB	012H
	DB	064H
	DB	0f2H
	DB	063H
	DB	0f1H
	DB	063H
	DB	0f2H
	DB	063H
	DB	012H
	DB	064H
	DB	012H
	DB	064H
	DB	012H
	DB	064H
	DB	0f2H
	DB	06bH
	DB	012H
	DB	064H
	DB	0f2H
	DB	06bH
	DB	012H
	DB	064H
	DB	012H
	DB	06cH
	DB	012H
	DB	06cH
	DB	012H
	DB	064H
	DB	012H
	DB	064H
	DB	012H
	DB	064H
	DB	012H
	DB	064H
	DB	012H
	DB	06cH
	DB	012H
	DB	06cH
	DB	012H
	DB	064H
	DB	012H
	DB	064H
	DB	012H
	DB	06cH
	DB	012H
	DB	06cH
	DB	012H
	DB	06cH
	DB	032H
	DB	064H
	DB	012H
	DB	06cH
	DB	032H
	DB	06cH
	DB	012H
	DB	064H
	DB	012H
	DB	064H
	DB	032H
	DB	06cH
	DB	033H
	DB	06cH
	DB	032H
	DB	06cH
	DB	032H
	DB	06cH
	DB	033H
	DB	06cH
	DB	032H
	DB	06cH
	DB	032H
	DB	06cH
	DB	032H
	DB	06cH
	DB	012H
	DB	064H
	DB	033H
	DB	06cH
	DB	033H
	DB	06cH
	DB	033H
	DB	06cH
	DB	033H
	DB	06cH
	DB	033H
	DB	06cH
	DB	033H
	DB	06cH
	DB	012H
	DB	06cH
	DB	04eH
	DB	06bH
	DB	08aH
	DB	05aH
	DB	04aH
	DB	052H
	DB	06H
	DB	029H
	DB	043H
	DB	018H
	DB	0c4H
	DB	028H
	DB	086H
	DB	041H
	DB	0c7H
	DB	051H
	DB	07H
	DB	05aH
	DB	0e6H
	DB	059H
	DB	06H
	DB	062H
	DB	027H
	DB	06aH
	DB	089H
	DB	07aH
	DB	04bH
	DB	093H
	DB	0eH
	DB	0b4H
	DB	0f0H
	DB	0ccH
	DB	031H
	DB	0ddH
	DB	072H
	DB	0e5H
	DB	0b3H
	DB	0edH
	DB	093H
	DB	0edH
	DB	0b3H
	DB	0edH
	DB	0d4H
	DB	0f5H
	DB	0f4H
	DB	0f5H
	DB	0f4H
	DB	0f5H
	DB	014H
	DB	0f6H
	DB	014H
	DB	0f6H
	DB	015H
	DB	0f6H
	DB	035H
	DB	0f6H
	DB	055H
	DB	0f6H
	DB	076H
	DB	0feH
	DB	076H
	DB	0feH
	DB	077H
	DB	0feH
	DB	097H
	DB	0feH
	DB	098H
	DB	0feH
	DB	0b8H
	DB	0feH
	DB	0d8H
	DB	0feH
	DB	0d9H
	DB	0feH
	DB	0d9H
	DB	0feH
	DB	0f9H
	DB	0feH
	DB	01aH
	DB	0ffH
	DB	01aH
	DB	0ffH
	DB	01aH
	DB	0ffH
	DB	01aH
	DB	0ffH
	DB	01aH
	DB	0ffH
	DB	01aH
	DB	0ffH
	DB	01aH
	DB	0ffH
	DB	01aH
	DB	0ffH
	DB	01aH
	DB	0ffH
	DB	0faH
	DB	0feH
	DB	0faH
	DB	0feH
	DB	0d9H
	DB	0feH
	DB	0b8H
	DB	0f6H
	DB	0b8H
	DB	0feH
	DB	097H
	DB	0f6H
	DB	057H
	DB	0f6H
	DB	056H
	DB	0f6H
	DB	035H
	DB	0f6H
	DB	015H
	DB	0eeH
	DB	015H
	DB	0eeH
	DB	0d4H
	DB	0edH
	DB	0d4H
	DB	0e5H
	DB	093H
	DB	0e5H
	DB	052H
	DB	0ddH
	DB	031H
	DB	0ddH
	DB	0f0H
	DB	0d4H
	DB	0afH
	DB	0ccH
	DB	04eH
	DB	0c4H
	DB	0dH
	DB	0bcH
	DB	0acH
	DB	0abH
	DB	04bH
	DB	09bH
	DB	02aH
	DB	093H
	DB	0aH
	DB	08bH
	DB	0c9H
	DB	082H
	DB	0a9H
	DB	072H
	DB	048H
	DB	062H
	DB	028H
	DB	05aH
	DB	0e7H
	DB	049H
	DB	065H
	DB	031H
	DB	0e4H
	DB	028H
	DB	0e4H
	DB	020H
	DB	045H
	DB	029H
	DB	0e8H
	DB	039H
	DB	0f1H
	DB	073H
	DB	032H
	DB	06cH
	DB	053H
	DB	06cH
	DB	053H
	DB	06cH
	DB	033H
	DB	06cH
	DB	053H
	DB	06cH
	DB	033H
	DB	06cH
	DB	033H
	DB	06cH
	DB	033H
	DB	06cH
	DB	033H
	DB	06cH
	DB	033H
	DB	064H
	DB	033H
	DB	06cH
	DB	033H
	DB	06cH
	DB	033H
	DB	06cH
	DB	033H
	DB	06cH
	DB	033H
	DB	06cH
	DB	032H
	DB	06cH
	DB	032H
	DB	06cH
	DB	032H
	DB	06cH
	DB	032H
	DB	06cH
	DB	032H
	DB	064H
	DB	012H
	DB	06cH
	DB	033H
	DB	06cH
	DB	033H
	DB	06cH
	DB	033H
	DB	06cH
	DB	033H
	DB	06cH
	DB	033H
	DB	06cH
	DB	032H
	DB	06cH
	DB	033H
	DB	06cH
	DB	012H
	DB	064H
	DB	012H
	DB	064H
	DB	032H
	DB	06cH
	DB	012H
	DB	064H
	DB	012H
	DB	06cH
	DB	012H
	DB	064H
	DB	0d1H
	DB	063H
	DB	0d1H
	DB	05bH
	DB	0d1H
	DB	063H
	DB	0f1H
	DB	063H
	DB	0d1H
	DB	063H
	DB	0f1H
	DB	063H
	DB	0f1H
	DB	063H
	DB	0f1H
	DB	063H
	DB	0f1H
	DB	063H
	DB	0f1H
	DB	063H
	DB	0f1H
	DB	063H
	DB	0f1H
	DB	063H
	DB	0f2H
	DB	063H
	DB	0f1H
	DB	063H
	DB	0f1H
	DB	063H
	DB	0f2H
	DB	063H
	DB	0f2H
	DB	063H
	DB	011H
	DB	064H
	DB	012H
	DB	064H
	DB	011H
	DB	064H
	DB	0f1H
	DB	063H
	DB	012H
	DB	064H
	DB	011H
	DB	064H
	DB	011H
	DB	064H
	DB	012H
	DB	06cH
	DB	012H
	DB	06cH
	DB	012H
	DB	064H
	DB	012H
	DB	06cH
	DB	012H
	DB	064H
	DB	012H
	DB	06cH
	DB	012H
	DB	06cH
	DB	013H
	DB	06cH
	DB	033H
	DB	06cH
	DB	012H
	DB	06cH
	DB	013H
	DB	064H
	DB	012H
	DB	06cH
	DB	033H
	DB	06cH
	DB	032H
	DB	06cH
	DB	032H
	DB	06cH
	DB	032H
	DB	06cH
	DB	012H
	DB	064H
	DB	032H
	DB	06cH
	DB	012H
	DB	06cH
	DB	012H
	DB	064H
	DB	033H
	DB	06cH
	DB	032H
	DB	06cH
	DB	033H
	DB	06cH
	DB	032H
	DB	064H
	DB	033H
	DB	06cH
	DB	033H
	DB	06cH
	DB	032H
	DB	06cH
	DB	033H
	DB	06cH
	DB	032H
	DB	06cH
	DB	033H
	DB	06cH
	DB	033H
	DB	06cH
	DB	033H
	DB	06cH
	DB	033H
	DB	06cH
	DB	032H
	DB	06cH
	DB	033H
	DB	06cH
	DB	033H
	DB	06cH
	DB	053H
	DB	06cH
	DB	033H
	DB	06cH
	DB	0f1H
	DB	06bH
	DB	0ecH
	DB	05aH
	DB	049H
	DB	05aH
	DB	09H
	DB	052H
	DB	0c5H
	DB	028H
	DB	0a4H
	DB	028H
	DB	025H
	DB	039H
	DB	0c7H
	DB	049H
	DB	0e7H
	DB	051H
	DB	086H
	DB	049H
	DB	0e7H
	DB	059H
	DB	028H
	DB	06aH
	DB	047H
	DB	06aH
	DB	0eaH
	DB	082H
	DB	0acH
	DB	0a3H
	DB	08fH
	DB	0c4H
	DB	031H
	DB	0d5H
	DB	052H
	DB	0ddH
	DB	093H
	DB	0edH
	DB	0b3H
	DB	0edH
	DB	0b3H
	DB	0edH
	DB	0d4H
	DB	0f5H
	DB	0f4H
	DB	0f5H
	DB	015H
	DB	0feH
	DB	035H
	DB	0feH
	DB	035H
	DB	0f6H
	DB	035H
	DB	0f6H
	DB	035H
	DB	0f6H
	DB	056H
	DB	0feH
	DB	056H
	DB	0feH
	DB	056H
	DB	0feH
	DB	077H
	DB	0feH
	DB	076H
	DB	0f6H
	DB	077H
	DB	0f6H
	DB	077H
	DB	0f6H
	DB	0b8H
	DB	0feH
	DB	0b8H
	DB	0feH
	DB	0d9H
	DB	0feH
	DB	0d9H
	DB	0feH
	DB	0f9H
	DB	0feH
	DB	0faH
	DB	0feH
	DB	01aH
	DB	0ffH
	DB	01aH
	DB	0ffH
	DB	01aH
	DB	0ffH
	DB	01aH
	DB	0ffH
	DB	01aH
	DB	0ffH
	DB	01aH
	DB	0ffH
	DB	01aH
	DB	0ffH
	DB	01aH
	DB	0ffH
	DB	0f9H
	DB	0feH
	DB	0faH
	DB	0feH
	DB	0faH
	DB	0feH
	DB	0d9H
	DB	0feH
	DB	0b8H
	DB	0feH
	DB	098H
	DB	0f6H
	DB	077H
	DB	0feH
	DB	056H
	DB	0f6H
	DB	036H
	DB	0f6H
	DB	015H
	DB	0eeH
	DB	015H
	DB	0eeH
	DB	0d4H
	DB	0e5H
	DB	0b3H
	DB	0e5H
	DB	072H
	DB	0ddH
	DB	052H
	DB	0ddH
	DB	031H
	DB	0ddH
	DB	011H
	DB	0d5H
	DB	0b0H
	DB	0ccH
	DB	04eH
	DB	0c4H
	DB	0edH
	DB	0b3H
	DB	0acH
	DB	0abH
	DB	04aH
	DB	09bH
	DB	0aH
	DB	093H
	DB	0e9H
	DB	08aH
	DB	0c9H
	DB	082H
	DB	0a9H
	DB	07aH
	DB	068H
	DB	06aH
	DB	089H
	DB	062H
	DB	08aH
	DB	062H
	DB	028H
	DB	052H
	DB	045H
	DB	031H
	DB	04H
	DB	029H
	DB	025H
	DB	029H
	DB	0a7H
	DB	031H
	DB	0b0H
	DB	06bH
	DB	033H
	DB	074H
	DB	033H
	DB	06cH
	DB	033H
	DB	06cH
	DB	053H
	DB	06cH
	DB	033H
	DB	06cH
	DB	033H
	DB	06cH
	DB	032H
	DB	06cH
	DB	033H
	DB	06cH
	DB	033H
	DB	06cH
	DB	033H
	DB	06cH
	DB	032H
	DB	064H
	DB	053H
	DB	06cH
	DB	033H
	DB	06cH
	DB	033H
	DB	06cH
	DB	033H
	DB	06cH
	DB	033H
	DB	06cH
	DB	012H
	DB	064H
	DB	012H
	DB	064H
	DB	033H
	DB	06cH
	DB	033H
	DB	06cH
	DB	033H
	DB	06cH
	DB	033H
	DB	06cH
	DB	033H
	DB	06cH
	DB	033H
	DB	06cH
	DB	033H
	DB	06cH
	DB	033H
	DB	06cH
	DB	033H
	DB	06cH
	DB	033H
	DB	06cH
	DB	012H
	DB	064H
	DB	033H
	DB	06cH
	DB	033H
	DB	06cH
	DB	013H
	DB	06cH
	DB	033H
	DB	06cH
	DB	012H
	DB	06cH
	DB	0f1H
	DB	063H
	DB	0d1H
	DB	063H
	DB	0f1H
	DB	063H
	DB	0f1H
	DB	05bH
	DB	0d1H
	DB	063H
	DB	0f1H
	DB	063H
	DB	0f1H
	DB	063H
	DB	0f1H
	DB	063H
	DB	0f1H
	DB	063H
	DB	0f1H
	DB	063H
	DB	0f1H
	DB	063H
	DB	0f1H
	DB	063H
	DB	0f2H
	DB	063H
	DB	012H
	DB	064H
	DB	011H
	DB	064H
	DB	0f1H
	DB	063H
	DB	012H
	DB	064H
	DB	012H
	DB	064H
	DB	012H
	DB	064H
	DB	012H
	DB	064H
	DB	012H
	DB	064H
	DB	012H
	DB	064H
	DB	012H
	DB	06cH
	DB	012H
	DB	064H
	DB	0f2H
	DB	063H
	DB	012H
	DB	064H
	DB	012H
	DB	06cH
	DB	012H
	DB	064H
	DB	012H
	DB	06cH
	DB	012H
	DB	064H
	DB	012H
	DB	064H
	DB	012H
	DB	064H
	DB	033H
	DB	06cH
	DB	032H
	DB	06cH
	DB	013H
	DB	064H
	DB	033H
	DB	06cH
	DB	032H
	DB	06cH
	DB	033H
	DB	06cH
	DB	012H
	DB	064H
	DB	033H
	DB	06cH
	DB	033H
	DB	06cH
	DB	033H
	DB	06cH
	DB	032H
	DB	06cH
	DB	032H
	DB	064H
	DB	033H
	DB	06cH
	DB	033H
	DB	06cH
	DB	033H
	DB	06cH
	DB	032H
	DB	06cH
	DB	033H
	DB	06cH
	DB	032H
	DB	06cH
	DB	032H
	DB	064H
	DB	032H
	DB	06cH
	DB	033H
	DB	06cH
	DB	053H
	DB	06cH
	DB	033H
	DB	06cH
	DB	033H
	DB	06cH
	DB	033H
	DB	06cH
	DB	053H
	DB	06cH
	DB	033H
	DB	06cH
	DB	053H
	DB	06cH
	DB	053H
	DB	06cH
	DB	032H
	DB	074H
	DB	02eH
	DB	05bH
	DB	08aH
	DB	052H
	DB	08aH
	DB	05aH
	DB	05H
	DB	029H
	DB	0a4H
	DB	020H
	DB	046H
	DB	039H
	DB	066H
	DB	039H
	DB	0e8H
	DB	049H
	DB	066H
	DB	041H
	DB	0a6H
	DB	051H
	DB	0c7H
	DB	059H
	DB	07H
	DB	062H
	DB	047H
	DB	072H
	DB	04bH
	DB	093H
	DB	04fH
	DB	0b4H
	DB	011H
	DB	0d5H
	DB	073H
	DB	0ddH
	DB	073H
	DB	0e5H
	DB	093H
	DB	0edH
	DB	0b3H
	DB	0f5H
	DB	0b3H
	DB	0edH
	DB	0b3H
	DB	0f5H
	DB	0f4H
	DB	0f5H
	DB	015H
	DB	0f6H
	DB	014H
	DB	0feH
	DB	035H
	DB	0feH
	DB	035H
	DB	0feH
	DB	035H
	DB	0feH
	DB	076H
	DB	0feH
	DB	056H
	DB	0feH
	DB	076H
	DB	0feH
	DB	076H
	DB	0feH
	DB	077H
	DB	0feH
	DB	077H
	DB	0feH
	DB	097H
	DB	0f6H
	DB	098H
	DB	0feH
	DB	098H
	DB	0feH
	DB	0d8H
	DB	0feH
	DB	0d9H
	DB	0feH
	DB	0f9H
	DB	0feH
	DB	0faH
	DB	0feH
	DB	01aH
	DB	0ffH
	DB	01aH
	DB	0ffH
	DB	0faH
	DB	0f6H
	DB	01bH
	DB	0ffH
	DB	01aH
	DB	0ffH
	DB	01aH
	DB	0ffH
	DB	0f9H
	DB	0feH
	DB	0faH
	DB	0feH
	DB	0f9H
	DB	0feH
	DB	0f9H
	DB	0feH
	DB	0f9H
	DB	0feH
	DB	0d9H
	DB	0feH
	DB	0b8H
	DB	0f6H
	DB	098H
	DB	0f6H
	DB	098H
	DB	0feH
	DB	077H
	DB	0feH
	DB	036H
	DB	0f6H
	DB	035H
	DB	0f6H
	DB	0f5H
	DB	0edH
	DB	0d4H
	DB	0edH
	DB	0b3H
	DB	0e5H
	DB	073H
	DB	0ddH
	DB	052H
	DB	0ddH
	DB	052H
	DB	0ddH
	DB	011H
	DB	0d5H
	DB	0afH
	DB	0d4H
	DB	04eH
	DB	0c4H
	DB	0ecH
	DB	0b3H
	DB	08bH
	DB	0a3H
	DB	04aH
	DB	09bH
	DB	0aH
	DB	093H
	DB	0eaH
	DB	08aH
	DB	0c9H
	DB	082H
	DB	0eaH
	DB	07aH
	DB	069H
	DB	06aH
	DB	089H
	DB	06aH
	DB	089H
	DB	062H
	DB	028H
	DB	052H
	DB	0a6H
	DB	041H
	DB	04H
	DB	029H
	DB	024H
	DB	029H
	DB	065H
	DB	031H
	DB	0dH
	DB	05bH
	DB	053H
	DB	074H
	DB	053H
	DB	06cH
	DB	033H
	DB	06cH
	DB	053H
	DB	06cH
	DB	033H
	DB	06cH
	DB	033H
	DB	06cH
	DB	053H
	DB	06cH
	DB	053H
	DB	06cH
	DB	053H
	DB	06cH
	DB	053H
	DB	06cH
	DB	033H
	DB	06cH
	DB	053H
	DB	06cH
	DB	033H
	DB	06cH
	DB	032H
	DB	06cH
	DB	053H
	DB	06cH
	DB	032H
	DB	06cH
	DB	033H
	DB	06cH
	DB	033H
	DB	06cH
	DB	053H
	DB	06cH
	DB	033H
	DB	06cH
	DB	033H
	DB	06cH
	DB	033H
	DB	06cH
	DB	032H
	DB	06cH
	DB	032H
	DB	06cH
	DB	033H
	DB	06cH
	DB	033H
	DB	06cH
	DB	033H
	DB	06cH
	DB	032H
	DB	06cH
	DB	033H
	DB	06cH
	DB	033H
	DB	06cH
	DB	012H
	DB	064H
	DB	012H
	DB	064H
	DB	033H
	DB	06cH
	DB	033H
	DB	06cH
	DB	0f1H
	DB	063H
	DB	0f1H
	DB	063H
	DB	0f1H
	DB	063H
	DB	0f1H
	DB	063H
	DB	0f1H
	DB	063H
	DB	0f1H
	DB	063H
	DB	0f1H
	DB	063H
	DB	0f2H
	DB	063H
	DB	0f1H
	DB	063H
	DB	0f1H
	DB	063H
	DB	0f1H
	DB	063H
	DB	0f1H
	DB	063H
	DB	012H
	DB	064H
	DB	012H
	DB	064H
	DB	0f1H
	DB	063H
	DB	0f2H
	DB	063H
	DB	011H
	DB	064H
	DB	012H
	DB	06cH
	DB	0f2H
	DB	063H
	DB	012H
	DB	064H
	DB	012H
	DB	06cH
	DB	012H
	DB	064H
	DB	012H
	DB	06cH
	DB	012H
	DB	06cH
	DB	012H
	DB	064H
	DB	012H
	DB	06cH
	DB	012H
	DB	06cH
	DB	012H
	DB	064H
	DB	032H
	DB	06cH
	DB	012H
	DB	06cH
	DB	033H
	DB	06cH
	DB	033H
	DB	06cH
	DB	012H
	DB	064H
	DB	012H
	DB	06cH
	DB	032H
	DB	06cH
	DB	033H
	DB	064H
	DB	012H
	DB	064H
	DB	033H
	DB	06cH
	DB	033H
	DB	06cH
	DB	033H
	DB	06cH
	DB	033H
	DB	06cH
	DB	033H
	DB	06cH
	DB	033H
	DB	06cH
	DB	033H
	DB	06cH
	DB	033H
	DB	06cH
	DB	033H
	DB	06cH
	DB	033H
	DB	06cH
	DB	033H
	DB	06cH
	DB	033H
	DB	06cH
	DB	033H
	DB	06cH
	DB	033H
	DB	06cH
	DB	033H
	DB	06cH
	DB	033H
	DB	06cH
	DB	033H
	DB	06cH
	DB	053H
	DB	06cH
	DB	033H
	DB	06cH
	DB	033H
	DB	06cH
	DB	053H
	DB	06cH
	DB	033H
	DB	06cH
	DB	053H
	DB	06cH
	DB	053H
	DB	06cH
	DB	012H
	DB	074H
	DB	049H
	DB	04aH
	DB	08aH
	DB	05aH
	DB	028H
	DB	052H
	DB	025H
	DB	031H
	DB	066H
	DB	039H
	DB	0a7H
	DB	041H
	DB	065H
	DB	039H
	DB	086H
	DB	041H
	DB	065H
	DB	041H
	DB	0a6H
	DB	051H
	DB	085H
	DB	051H
	DB	08H
	DB	06aH
	DB	0eaH
	DB	082H
	DB	0cdH
	DB	0a3H
	DB	0b0H
	DB	0c4H
	DB	0f1H
	DB	0ccH
	DB	072H
	DB	0e5H
	DB	0b3H
	DB	0edH
	DB	0b3H
	DB	0edH
	DB	0b3H
	DB	0edH
	DB	0b3H
	DB	0edH
	DB	0f4H
	DB	0f5H
	DB	0f4H
	DB	0f5H
	DB	015H
	DB	0feH
	DB	014H
	DB	0f6H
	DB	035H
	DB	0feH
	DB	035H
	DB	0feH
	DB	035H
	DB	0feH
	DB	076H
	DB	0feH
	DB	056H
	DB	0f6H
	DB	076H
	DB	0feH
	DB	077H
	DB	0feH
	DB	097H
	DB	0feH
	DB	097H
	DB	0feH
	DB	077H
	DB	0f6H
	DB	077H
	DB	0f6H
	DB	098H
	DB	0f6H
	DB	0b8H
	DB	0feH
	DB	0d9H
	DB	0feH
	DB	0f9H
	DB	0feH
	DB	0f9H
	DB	0feH
	DB	01aH
	DB	0ffH
	DB	01aH
	DB	0ffH
	DB	03bH
	DB	0ffH
	DB	03bH
	DB	0ffH
	DB	01aH
	DB	0ffH
	DB	01aH
	DB	0ffH
	DB	0faH
	DB	0feH
	DB	0f9H
	DB	0f6H
	DB	0f9H
	DB	0f6H
	DB	0f9H
	DB	0feH
	DB	0d9H
	DB	0f6H
	DB	0d9H
	DB	0feH
	DB	0b8H
	DB	0f6H
	DB	098H
	DB	0f6H
	DB	098H
	DB	0feH
	DB	077H
	DB	0f6H
	DB	056H
	DB	0f6H
	DB	016H
	DB	0eeH
	DB	0f4H
	DB	0edH
	DB	0b3H
	DB	0e5H
	DB	093H
	DB	0e5H
	DB	073H
	DB	0e5H
	DB	032H
	DB	0ddH
	DB	011H
	DB	0ddH
	DB	0f0H
	DB	0d4H
	DB	0d0H
	DB	0d4H
	DB	06eH
	DB	0c4H
	DB	0dH
	DB	0bcH
	DB	0acH
	DB	0abH
	DB	04bH
	DB	09bH
	DB	02aH
	DB	093H
	DB	0eaH
	DB	08aH
	DB	0e9H
	DB	082H
	DB	0c9H
	DB	07aH
	DB	068H
	DB	06aH
	DB	089H
	DB	06aH
	DB	0ebH
	DB	06aH
	DB	089H
	DB	062H
	DB	07H
	DB	04aH
	DB	045H
	DB	031H
	DB	024H
	DB	031H
	DB	0a6H
	DB	041H
	DB	0ccH
	DB	05aH
	DB	032H
	DB	074H
	DB	053H
	DB	06cH
	DB	053H
	DB	06cH
	DB	053H
	DB	06cH
	DB	053H
	DB	06cH
	DB	053H
	DB	06cH
	DB	053H
	DB	06cH
	DB	053H
	DB	06cH
	DB	033H
	DB	06cH
	DB	053H
	DB	06cH
	DB	053H
	DB	06cH
	DB	033H
	DB	06cH
	DB	053H
	DB	06cH
	DB	033H
	DB	06cH
	DB	053H
	DB	06cH
	DB	033H
	DB	06cH
	DB	053H
	DB	06cH
	DB	053H
	DB	06cH
	DB	033H
	DB	06cH
	DB	033H
	DB	06cH
	DB	053H
	DB	06cH
	DB	033H
	DB	06cH
	DB	033H
	DB	06cH
	DB	053H
	DB	06cH
	DB	053H
	DB	06cH
	DB	033H
	DB	06cH
	DB	032H
	DB	064H
	DB	032H
	DB	06cH
	DB	033H
	DB	06cH
	DB	033H
	DB	06cH
	DB	033H
	DB	06cH
	DB	033H
	DB	06cH
	DB	012H
	DB	064H
	DB	033H
	DB	06cH
	DB	0f1H
	DB	063H
	DB	0f1H
	DB	063H
	DB	0f1H
	DB	063H
	DB	0f2H
	DB	063H
	DB	011H
	DB	064H
	DB	0f1H
	DB	063H
	DB	0f2H
	DB	063H
	DB	0f1H
	DB	063H
	DB	0f2H
	DB	063H
	DB	0f2H
	DB	063H
	DB	0f1H
	DB	063H
	DB	0f1H
	DB	063H
	DB	0f2H
	DB	063H
	DB	011H
	DB	064H
	DB	0f2H
	DB	06bH
	DB	011H
	DB	064H
	DB	0f1H
	DB	063H
	DB	012H
	DB	06cH
	DB	012H
	DB	06cH
	DB	012H
	DB	064H
	DB	012H
	DB	06cH
	DB	012H
	DB	06cH
	DB	012H
	DB	064H
	DB	032H
	DB	06cH
	DB	032H
	DB	06cH
	DB	032H
	DB	064H
	DB	033H
	DB	06cH
	DB	032H
	DB	064H
	DB	033H
	DB	06cH
	DB	032H
	DB	06cH
	DB	033H
	DB	06cH
	DB	033H
	DB	06cH
	DB	033H
	DB	06cH
	DB	033H
	DB	06cH
	DB	033H
	DB	06cH
	DB	033H
	DB	06cH
	DB	033H
	DB	06cH
	DB	033H
	DB	06cH
	DB	033H
	DB	06cH
	DB	032H
	DB	06cH
	DB	033H
	DB	06cH
	DB	033H
	DB	06cH
	DB	053H
	DB	06cH
	DB	033H
	DB	06cH
	DB	033H
	DB	06cH
	DB	032H
	DB	06cH
	DB	053H
	DB	06cH
	DB	033H
	DB	06cH
	DB	053H
	DB	06cH
	DB	053H
	DB	06cH
	DB	033H
	DB	06cH
	DB	033H
	DB	06cH
	DB	033H
	DB	06cH
	DB	053H
	DB	06cH
	DB	053H
	DB	06cH
	DB	033H
	DB	06cH
	DB	053H
	DB	06cH
	DB	053H
	DB	06cH
	DB	053H
	DB	06cH
	DB	053H
	DB	06cH
	DB	053H
	DB	074H
	DB	0b0H
	DB	06bH
	DB	049H
	DB	052H
	DB	0cH
	DB	073H
	DB	0c7H
	DB	049H
	DB	025H
	DB	031H
	DB	09H
	DB	052H
	DB	045H
	DB	039H
	DB	04H
	DB	031H
	DB	086H
	DB	049H
	DB	024H
	DB	041H
	DB	085H
	DB	059H
	DB	0e6H
	DB	069H
	DB	0a9H
	DB	082H
	DB	0adH
	DB	0a3H
	DB	06fH
	DB	0bcH
	DB	0f0H
	DB	0ccH
	DB	052H
	DB	0ddH
	DB	092H
	DB	0e5H
	DB	0b3H
	DB	0e5H
	DB	0d3H
	DB	0edH
	DB	0d4H
	DB	0f5H
	DB	0d4H
	DB	0f5H
	DB	0b4H
	DB	0edH
	DB	0d4H
	DB	0f5H
	DB	0f4H
	DB	0f5H
	DB	014H
	DB	0f6H
	DB	015H
	DB	0f6H
	DB	055H
	DB	0feH
	DB	055H
	DB	0f6H
	DB	056H
	DB	0feH
	DB	056H
	DB	0feH
	DB	056H
	DB	0feH
	DB	076H
	DB	0feH
	DB	077H
	DB	0feH
	DB	097H
	DB	0feH
	DB	097H
	DB	0feH
	DB	098H
	DB	0feH
	DB	0b8H
	DB	0f6H
	DB	0d9H
	DB	0feH
	DB	0d9H
	DB	0feH
	DB	0f9H
	DB	0f6H
	DB	01aH
	DB	0ffH
	DB	01aH
	DB	0ffH
	DB	01aH
	DB	0ffH
	DB	03bH
	DB	0ffH
	DB	03bH
	DB	0ffH
	DB	03aH
	DB	0ffH
	DB	0faH
	DB	0feH
	DB	0f9H
	DB	0feH
	DB	0f9H
	DB	0feH
	DB	0faH
	DB	0feH
	DB	0faH
	DB	0feH
	DB	0d9H
	DB	0feH
	DB	0b9H
	DB	0feH
	DB	098H
	DB	0f6H
	DB	098H
	DB	0f6H
	DB	097H
	DB	0f6H
	DB	077H
	DB	0f6H
	DB	057H
	DB	0f6H
	DB	015H
	DB	0eeH
	DB	0d4H
	DB	0edH
	DB	093H
	DB	0e5H
	DB	073H
	DB	0ddH
	DB	072H
	DB	0ddH
	DB	052H
	DB	0ddH
	DB	011H
	DB	0d5H
	DB	010H
	DB	0d5H
	DB	08fH
	DB	0ccH
	DB	06eH
	DB	0c4H
	DB	0dH
	DB	0b4H
	DB	0acH
	DB	0abH
	DB	06bH
	DB	09bH
	DB	02bH
	DB	09bH
	DB	0e9H
	DB	08aH
	DB	0a9H
	DB	082H
	DB	0a9H
	DB	07aH
	DB	048H
	DB	06aH
	DB	089H
	DB	06aH
	DB	0eaH
	DB	072H
	DB	0a9H
	DB	062H
	DB	089H
	DB	05aH
	DB	086H
	DB	039H
	DB	024H
	DB	031H
	DB	045H
	DB	031H
	DB	0abH
	DB	052H
	DB	011H
	DB	074H
	DB	053H
	DB	074H
	DB	053H
	DB	06cH
	DB	053H
	DB	06cH
	DB	053H
	DB	06cH
	DB	053H
	DB	074H
	DB	053H
	DB	06cH
	DB	053H
	DB	06cH
	DB	053H
	DB	074H
	DB	053H
	DB	06cH
	DB	053H
	DB	074H
	DB	033H
	DB	06cH
	DB	053H
	DB	06cH
	DB	053H
	DB	06cH
	DB	053H
	DB	074H
	DB	053H
	DB	06cH
	DB	033H
	DB	06cH
	DB	053H
	DB	06cH
	DB	033H
	DB	06cH
	DB	033H
	DB	06cH
	DB	053H
	DB	06cH
	DB	033H
	DB	06cH
	DB	033H
	DB	06cH
	DB	053H
	DB	06cH
	DB	033H
	DB	06cH
	DB	033H
	DB	06cH
	DB	033H
	DB	06cH
	DB	033H
	DB	06cH
	DB	033H
	DB	06cH
	DB	033H
	DB	06cH
	DB	032H
	DB	06cH
	DB	033H
	DB	06cH
	DB	033H
	DB	06cH
	DB	053H
	DB	06cH
	DB	0f1H
	DB	063H
	DB	0f1H
	DB	063H
	DB	0f2H
	DB	063H
	DB	0f1H
	DB	063H
	DB	0f2H
	DB	063H
	DB	0f1H
	DB	063H
	DB	0f1H
	DB	063H
	DB	012H
	DB	064H
	DB	012H
	DB	06cH
	DB	012H
	DB	064H
	DB	012H
	DB	064H
	DB	012H
	DB	064H
	DB	012H
	DB	06cH
	DB	012H
	DB	064H
	DB	0f1H
	DB	063H
	DB	012H
	DB	06cH
	DB	012H
	DB	06cH
	DB	012H
	DB	06cH
	DB	012H
	DB	06cH
	DB	012H
	DB	064H
	DB	012H
	DB	064H
	DB	012H
	DB	06cH
	DB	033H
	DB	06cH
	DB	013H
	DB	064H
	DB	012H
	DB	064H
	DB	032H
	DB	06cH
	DB	032H
	DB	064H
	DB	033H
	DB	064H
	DB	032H
	DB	06cH
	DB	032H
	DB	064H
	DB	033H
	DB	064H
	DB	033H
	DB	06cH
	DB	032H
	DB	06cH
	DB	033H
	DB	06cH
	DB	033H
	DB	06cH
	DB	032H
	DB	06cH
	DB	033H
	DB	06cH
	DB	033H
	DB	06cH
	DB	033H
	DB	06cH
	DB	033H
	DB	06cH
	DB	033H
	DB	06cH
	DB	033H
	DB	06cH
	DB	033H
	DB	06cH
	DB	033H
	DB	06cH
	DB	033H
	DB	06cH
	DB	033H
	DB	06cH
	DB	033H
	DB	06cH
	DB	033H
	DB	06cH
	DB	053H
	DB	06cH
	DB	033H
	DB	06cH
	DB	033H
	DB	06cH
	DB	053H
	DB	06cH
	DB	053H
	DB	06cH
	DB	053H
	DB	06cH
	DB	053H
	DB	06cH
	DB	053H
	DB	074H
	DB	053H
	DB	06cH
	DB	053H
	DB	06cH
	DB	053H
	DB	074H
	DB	053H
	DB	074H
	DB	053H
	DB	06cH
	DB	08fH
	DB	063H
	DB	0cbH
	DB	062H
	DB	0ebH
	DB	06aH
	DB	086H
	DB	041H
	DB	087H
	DB	039H
	DB	0c8H
	DB	049H
	DB	0c3H
	DB	030H
	DB	025H
	DB	039H
	DB	065H
	DB	049H
	DB	0a6H
	DB	059H
	DB	048H
	DB	072H
	DB	0eaH
	DB	08aH
	DB	0acH
	DB	0a3H
	DB	04eH
	DB	0b4H
	DB	0b0H
	DB	0c4H
	DB	011H
	DB	0d5H
	DB	072H
	DB	0ddH
	DB	093H
	DB	0e5H
	DB	0b3H
	DB	0edH
	DB	0b3H
	DB	0edH
	DB	0b3H
	DB	0edH
	DB	0d4H
	DB	0f5H
	DB	0b3H
	DB	0edH
	DB	0d4H
	DB	0f5H
	DB	015H
	DB	0feH
	DB	035H
	DB	0feH
	DB	035H
	DB	0feH
	DB	035H
	DB	0feH
	DB	035H
	DB	0f6H
	DB	035H
	DB	0f6H
	DB	056H
	DB	0feH
	DB	056H
	DB	0feH
	DB	076H
	DB	0feH
	DB	097H
	DB	0feH
	DB	097H
	DB	0feH
	DB	097H
	DB	0feH
	DB	0b8H
	DB	0feH
	DB	098H
	DB	0feH
	DB	0d9H
	DB	0feH
	DB	0d9H
	DB	0feH
	DB	0f9H
	DB	0feH
	DB	0f9H
	DB	0feH
	DB	0faH
	DB	0feH
	DB	01aH
	DB	0ffH
	DB	03bH
	DB	0ffH
	DB	03aH
	DB	0ffH
	DB	01bH
	DB	0ffH
	DB	0faH
	DB	0feH
	DB	0f9H
	DB	0feH
	DB	0faH
	DB	0feH
	DB	0faH
	DB	0feH
	DB	0f9H
	DB	0feH
	DB	0faH
	DB	0feH
	DB	0d8H
	DB	0feH
	DB	098H
	DB	0f6H
	DB	098H
	DB	0f6H
	DB	097H
	DB	0f6H
	DB	077H
	DB	0f6H
	DB	057H
	DB	0f6H
	DB	016H
	DB	0f6H
	DB	0d4H
	DB	0edH
	DB	0b4H
	DB	0e5H
	DB	093H
	DB	0e5H
	DB	093H
	DB	0e5H
	DB	032H
	DB	0ddH
	DB	031H
	DB	0d5H
	DB	0f0H
	DB	0d4H
	DB	08fH
	DB	0ccH
	DB	04eH
	DB	0bcH
	DB	02dH
	DB	0b4H
	DB	0ccH
	DB	0abH
	DB	06bH
	DB	09bH
	DB	02aH
	DB	093H
	DB	0e9H
	DB	08aH
	DB	0a9H
	DB	082H
	DB	0a9H
	DB	07aH
	DB	068H
	DB	06aH
	DB	048H
	DB	062H
	DB	089H
	DB	062H
	DB	0a9H
	DB	062H
	DB	048H
	DB	05aH
	DB	0e7H
	DB	049H
	DB	065H
	DB	039H
	DB	065H
	DB	039H
	DB	06aH
	DB	052H
	DB	0f1H
	DB	073H
	DB	054H
	DB	074H
	DB	054H
	DB	074H
	DB	053H
	DB	074H
	DB	053H
	DB	074H
	DB	054H
	DB	074H
	DB	053H
	DB	06cH
	DB	053H
	DB	074H
	DB	053H
	DB	06cH
	DB	053H
	DB	06cH
	DB	053H
	DB	06cH
	DB	053H
	DB	06cH
	DB	053H
	DB	074H
	DB	053H
	DB	074H
	DB	054H
	DB	06cH
	DB	053H
	DB	06cH
	DB	053H
	DB	06cH
	DB	053H
	DB	06cH
	DB	053H
	DB	06cH
	DB	033H
	DB	06cH
	DB	053H
	DB	06cH
	DB	053H
	DB	06cH
	DB	033H
	DB	06cH
	DB	053H
	DB	06cH
	DB	033H
	DB	06cH
	DB	053H
	DB	06cH
	DB	033H
	DB	06cH
	DB	053H
	DB	06cH
	DB	033H
	DB	06cH
	DB	033H
	DB	06cH
	DB	033H
	DB	06cH
	DB	033H
	DB	06cH
	DB	033H
	DB	06cH
	DB	053H
	DB	06cH
	DB	0f2H
	DB	063H
	DB	0f2H
	DB	063H
	DB	0f1H
	DB	063H
	DB	0f2H
	DB	063H
	DB	0f2H
	DB	063H
	DB	012H
	DB	064H
	DB	012H
	DB	064H
	DB	0f2H
	DB	063H
	DB	012H
	DB	064H
	DB	011H
	DB	064H
	DB	012H
	DB	06cH
	DB	012H
	DB	06cH
	DB	012H
	DB	06cH
	DB	012H
	DB	064H
	DB	012H
	DB	06cH
	DB	012H
	DB	064H
	DB	032H
	DB	064H
	DB	012H
	DB	064H
	DB	013H
	DB	06cH
	DB	012H
	DB	064H
	DB	012H
	DB	064H
	DB	012H
	DB	06cH
	DB	013H
	DB	064H
	DB	012H
	DB	064H
	DB	033H
	DB	06cH
	DB	033H
	DB	06cH
	DB	012H
	DB	064H
	DB	033H
	DB	06cH
	DB	033H
	DB	06cH
	DB	033H
	DB	06cH
	DB	033H
	DB	06cH
	DB	033H
	DB	06cH
	DB	033H
	DB	06cH
	DB	033H
	DB	06cH
	DB	032H
	DB	064H
	DB	033H
	DB	06cH
	DB	033H
	DB	06cH
	DB	033H
	DB	06cH
	DB	033H
	DB	06cH
	DB	053H
	DB	06cH
	DB	053H
	DB	06cH
	DB	033H
	DB	06cH
	DB	033H
	DB	06cH
	DB	053H
	DB	06cH
	DB	053H
	DB	06cH
	DB	053H
	DB	06cH
	DB	053H
	DB	06cH
	DB	053H
	DB	06cH
	DB	033H
	DB	06cH
	DB	053H
	DB	06cH
	DB	053H
	DB	06cH
	DB	053H
	DB	06cH
	DB	054H
	DB	074H
	DB	053H
	DB	074H
	DB	053H
	DB	06cH
	DB	054H
	DB	06cH
	DB	053H
	DB	074H
	DB	053H
	DB	06cH
	DB	053H
	DB	06cH
	DB	053H
	DB	06cH
	DB	054H
	DB	074H
	DB	0afH
	DB	073H
	DB	0aaH
	DB	062H
	DB	049H
	DB	052H
	DB	066H
	DB	039H
	DB	0e8H
	DB	049H
	DB	025H
	DB	031H
	DB	0e4H
	DB	030H
	DB	024H
	DB	039H
	DB	0e7H
	DB	059H
	DB	0c9H
	DB	082H
	DB	06bH
	DB	09bH
	DB	0eH
	DB	0b4H
	DB	06fH
	DB	0bcH
	DB	0b0H
	DB	0c4H
	DB	0d0H
	DB	0ccH
	DB	031H
	DB	0d5H
	DB	072H
	DB	0ddH
	DB	093H
	DB	0e5H
	DB	0b3H
	DB	0edH
	DB	0b4H
	DB	0edH
	DB	0b3H
	DB	0edH
	DB	0d3H
	DB	0edH
	DB	0d4H
	DB	0f5H
	DB	0f4H
	DB	0f5H
	DB	0f4H
	DB	0f5H
	DB	035H
	DB	0feH
	DB	056H
	DB	0feH
	DB	035H
	DB	0feH
	DB	035H
	DB	0feH
	DB	056H
	DB	0f6H
	DB	056H
	DB	0feH
	DB	055H
	DB	0f6H
	DB	035H
	DB	0f6H
	DB	056H
	DB	0feH
	DB	077H
	DB	0f6H
	DB	077H
	DB	0feH
	DB	097H
	DB	0feH
	DB	0b8H
	DB	0feH
	DB	0b8H
	DB	0feH
	DB	0d8H
	DB	0feH
	DB	0d9H
	DB	0feH
	DB	0d9H
	DB	0feH
	DB	0d9H
	DB	0feH
	DB	0d9H
	DB	0feH
	DB	0faH
	DB	0feH
	DB	01aH
	DB	0ffH
	DB	01aH
	DB	0ffH
	DB	0daH
	DB	0feH
	DB	0faH
	DB	0feH
	DB	0d9H
	DB	0feH
	DB	0f9H
	DB	0feH
	DB	0f9H
	DB	0feH
	DB	0d9H
	DB	0feH
	DB	0d9H
	DB	0f6H
	DB	0b8H
	DB	0f6H
	DB	098H
	DB	0feH
	DB	098H
	DB	0f6H
	DB	077H
	DB	0f6H
	DB	056H
	DB	0f6H
	DB	036H
	DB	0eeH
	DB	0d4H
	DB	0e5H
	DB	093H
	DB	0e5H
	DB	073H
	DB	0ddH
	DB	052H
	DB	0ddH
	DB	032H
	DB	0ddH
	DB	0f1H
	DB	0d4H
	DB	0b0H
	DB	0ccH
	DB	06fH
	DB	0c4H
	DB	04eH
	DB	0bcH
	DB	0ccH
	DB	0abH
	DB	0acH
	DB	0a3H
	DB	04bH
	DB	09bH
	DB	02aH
	DB	093H
	DB	0e9H
	DB	08aH
	DB	0c9H
	DB	082H
	DB	068H
	DB	072H
	DB	047H
	DB	06aH
	DB	048H
	DB	062H
	DB	0a9H
	DB	06aH
	DB	089H
	DB	06aH
	DB	068H
	DB	062H
	DB	0e7H
	DB	049H
	DB	0a6H
	DB	041H
	DB	0a5H
	DB	041H
	DB	0aaH
	DB	062H
	DB	0f1H
	DB	073H
	DB	074H
	DB	074H
	DB	074H
	DB	074H
	DB	074H
	DB	074H
	DB	074H
	DB	074H
	DB	053H
	DB	06cH
	DB	053H
	DB	06cH
	DB	054H
	DB	074H
	DB	054H
	DB	074H
	DB	053H
	DB	06cH
	DB	053H
	DB	074H
	DB	054H
	DB	074H
	DB	053H
	DB	06cH
	DB	053H
	DB	06cH
	DB	053H
	DB	074H
	DB	054H
	DB	074H
	DB	054H
	DB	074H
	DB	033H
	DB	06cH
	DB	053H
	DB	06cH
	DB	053H
	DB	074H
	DB	053H
	DB	074H
	DB	053H
	DB	074H
	DB	053H
	DB	06cH
	DB	053H
	DB	074H
	DB	053H
	DB	06cH
	DB	053H
	DB	06cH
	DB	053H
	DB	06cH
	DB	033H
	DB	06cH
	DB	053H
	DB	06cH
	DB	053H
	DB	06cH
	DB	033H
	DB	06cH
	DB	053H
	DB	06cH
	DB	033H
	DB	06cH
	DB	033H
	DB	06cH
	DB	0f1H
	DB	063H
	DB	012H
	DB	064H
	DB	012H
	DB	064H
	DB	012H
	DB	064H
	DB	012H
	DB	064H
	DB	012H
	DB	064H
	DB	0f1H
	DB	063H
	DB	0f2H
	DB	063H
	DB	012H
	DB	064H
	DB	012H
	DB	064H
	DB	012H
	DB	064H
	DB	012H
	DB	064H
	DB	012H
	DB	064H
	DB	012H
	DB	06cH
	DB	033H
	DB	06cH
	DB	012H
	DB	064H
	DB	012H
	DB	06cH
	DB	012H
	DB	064H
	DB	033H
	DB	06cH
	DB	033H
	DB	06cH
	DB	033H
	DB	06cH
	DB	033H
	DB	06cH
	DB	033H
	DB	06cH
	DB	032H
	DB	06cH
	DB	033H
	DB	06cH
	DB	033H
	DB	06cH
	DB	033H
	DB	06cH
	DB	033H
	DB	06cH
	DB	032H
	DB	06cH
	DB	033H
	DB	06cH
	DB	033H
	DB	06cH
	DB	033H
	DB	06cH
	DB	053H
	DB	06cH
	DB	053H
	DB	06cH
	DB	033H
	DB	06cH
	DB	053H
	DB	06cH
	DB	033H
	DB	06cH
	DB	033H
	DB	06cH
	DB	053H
	DB	06cH
	DB	053H
	DB	06cH
	DB	053H
	DB	06cH
	DB	053H
	DB	06cH
	DB	053H
	DB	06cH
	DB	053H
	DB	06cH
	DB	053H
	DB	06cH
	DB	053H
	DB	074H
	DB	053H
	DB	06cH
	DB	053H
	DB	06cH
	DB	053H
	DB	074H
	DB	054H
	DB	074H
	DB	054H
	DB	074H
	DB	053H
	DB	06cH
	DB	054H
	DB	074H
	DB	054H
	DB	074H
	DB	074H
	DB	074H
	DB	053H
	DB	06cH
	DB	054H
	DB	074H
	DB	054H
	DB	06cH
	DB	053H
	DB	06cH
	DB	073H
	DB	074H
	DB	054H
	DB	074H
	DB	0d0H
	DB	073H
	DB	048H
	DB	052H
	DB	0a7H
	DB	041H
	DB	0a7H
	DB	041H
	DB	0a7H
	DB	041H
	DB	05H
	DB	031H
	DB	0c4H
	DB	030H
	DB	0a6H
	DB	049H
	DB	0a9H
	DB	072H
	DB	0adH
	DB	0a3H
	DB	04eH
	DB	0bcH
	DB	06fH
	DB	0bcH
	DB	08fH
	DB	0bcH
	DB	0d0H
	DB	0ccH
	DB	0f1H
	DB	0d4H
	DB	052H
	DB	0ddH
	DB	073H
	DB	0ddH
	DB	0b3H
	DB	0e5H
	DB	0b3H
	DB	0e5H
	DB	0b3H
	DB	0edH
	DB	0d4H
	DB	0edH
	DB	0d4H
	DB	0f5H
	DB	0d4H
	DB	0edH
	DB	0f4H
	DB	0f5H
	DB	014H
	DB	0f6H
	DB	035H
	DB	0feH
	DB	035H
	DB	0feH
	DB	035H
	DB	0feH
	DB	056H
	DB	0feH
	DB	056H
	DB	0feH
	DB	056H
	DB	0feH
	DB	056H
	DB	0feH
	DB	076H
	DB	0feH
	DB	076H
	DB	0feH
	DB	097H
	DB	0feH
	DB	097H
	DB	0feH
	DB	097H
	DB	0feH
	DB	0b8H
	DB	0feH
	DB	0d8H
	DB	0feH
	DB	0b8H
	DB	0feH
	DB	0b9H
	DB	0feH
	DB	0d9H
	DB	0feH
	DB	0f9H
	DB	0feH
	DB	0d9H
	DB	0feH
	DB	0faH
	DB	0feH
	DB	0d9H
	DB	0feH
	DB	0d9H
	DB	0feH
	DB	0d9H
	DB	0f6H
	DB	0d9H
	DB	0f6H
	DB	0faH
	DB	0feH
	DB	0d9H
	DB	0feH
	DB	0d9H
	DB	0feH
	DB	099H
	DB	0f6H
	DB	0b8H
	DB	0f6H
	DB	0b8H
	DB	0feH
	DB	098H
	DB	0f6H
	DB	097H
	DB	0f6H
	DB	077H
	DB	0f6H
	DB	057H
	DB	0f6H
	DB	015H
	DB	0eeH
	DB	0d4H
	DB	0e5H
	DB	093H
	DB	0e5H
	DB	052H
	DB	0ddH
	DB	031H
	DB	0d5H
	DB	011H
	DB	0d5H
	DB	0d0H
	DB	0d4H
	DB	0b0H
	DB	0ccH
	DB	08fH
	DB	0c4H
	DB	0dH
	DB	0b4H
	DB	0ccH
	DB	0b3H
	DB	08bH
	DB	0a3H
	DB	04bH
	DB	09bH
	DB	02aH
	DB	093H
	DB	0eaH
	DB	092H
	DB	088H
	DB	082H
	DB	068H
	DB	072H
	DB	027H
	DB	06aH
	DB	048H
	DB	062H
	DB	069H
	DB	062H
	DB	088H
	DB	062H
	DB	07H
	DB	052H
	DB	07H
	DB	052H
	DB	028H
	DB	052H
	DB	07H
	DB	052H
	DB	0aaH
	DB	062H
	DB	0d0H
	DB	073H
	DB	073H
	DB	074H
	DB	074H
	DB	074H
	DB	073H
	DB	06cH
	DB	054H
	DB	074H
	DB	074H
	DB	074H
	DB	053H
	DB	06cH
	DB	053H
	DB	074H
	DB	074H
	DB	074H
	DB	053H
	DB	06cH
	DB	054H
	DB	074H
	DB	074H
	DB	074H
	DB	053H
	DB	06cH
	DB	053H
	DB	06cH
	DB	053H
	DB	06cH
	DB	054H
	DB	074H
	DB	053H
	DB	074H
	DB	054H
	DB	074H
	DB	053H
	DB	06cH
	DB	054H
	DB	074H
	DB	053H
	DB	06cH
	DB	053H
	DB	06cH
	DB	053H
	DB	06cH
	DB	053H
	DB	06cH
	DB	053H
	DB	074H
	DB	053H
	DB	06cH
	DB	053H
	DB	06cH
	DB	033H
	DB	06cH
	DB	053H
	DB	06cH
	DB	053H
	DB	06cH
	DB	053H
	DB	06cH
	DB	053H
	DB	06cH
	DB	053H
	DB	06cH
	DB	053H
	DB	06cH
	DB	0f2H
	DB	063H
	DB	0f2H
	DB	063H
	DB	012H
	DB	064H
	DB	012H
	DB	064H
	DB	012H
	DB	064H
	DB	012H
	DB	064H
	DB	012H
	DB	06cH
	DB	012H
	DB	064H
	DB	012H
	DB	06cH
	DB	012H
	DB	06cH
	DB	012H
	DB	064H
	DB	012H
	DB	06cH
	DB	012H
	DB	06cH
	DB	033H
	DB	064H
	DB	013H
	DB	06cH
	DB	013H
	DB	06cH
	DB	033H
	DB	06cH
	DB	012H
	DB	06cH
	DB	033H
	DB	06cH
	DB	033H
	DB	06cH
	DB	032H
	DB	06cH
	DB	033H
	DB	06cH
	DB	033H
	DB	06cH
	DB	012H
	DB	064H
	DB	033H
	DB	06cH
	DB	033H
	DB	06cH
	DB	033H
	DB	06cH
	DB	033H
	DB	06cH
	DB	033H
	DB	06cH
	DB	033H
	DB	06cH
	DB	053H
	DB	06cH
	DB	033H
	DB	06cH
	DB	053H
	DB	06cH
	DB	053H
	DB	06cH
	DB	053H
	DB	06cH
	DB	053H
	DB	06cH
	DB	033H
	DB	06cH
	DB	053H
	DB	06cH
	DB	053H
	DB	06cH
	DB	053H
	DB	06cH
	DB	053H
	DB	06cH
	DB	053H
	DB	06cH
	DB	053H
	DB	06cH
	DB	053H
	DB	074H
	DB	054H
	DB	074H
	DB	053H
	DB	06cH
	DB	053H
	DB	06cH
	DB	053H
	DB	074H
	DB	054H
	DB	06cH
	DB	074H
	DB	074H
	DB	053H
	DB	06cH
	DB	053H
	DB	074H
	DB	053H
	DB	06cH
	DB	053H
	DB	06cH
	DB	053H
	DB	074H
	DB	054H
	DB	074H
	DB	053H
	DB	06cH
	DB	053H
	DB	06cH
	DB	073H
	DB	074H
	DB	074H
	DB	074H
	DB	053H
	DB	074H
	DB	0d0H
	DB	073H
	DB	048H
	DB	052H
	DB	0c7H
	DB	049H
	DB	0e8H
	DB	049H
	DB	066H
	DB	039H
	DB	025H
	DB	031H
	DB	04H
	DB	039H
	DB	07H
	DB	062H
	DB	04cH
	DB	093H
	DB	0eH
	DB	0acH
	DB	04fH
	DB	0bcH
	DB	08fH
	DB	0bcH
	DB	0b0H
	DB	0c4H
	DB	0d0H
	DB	0ccH
	DB	0f1H
	DB	0ccH
	DB	011H
	DB	0d5H
	DB	052H
	DB	0ddH
	DB	093H
	DB	0e5H
	DB	093H
	DB	0e5H
	DB	093H
	DB	0edH
	DB	093H
	DB	0edH
	DB	0b3H
	DB	0edH
	DB	0b3H
	DB	0edH
	DB	0d4H
	DB	0f5H
	DB	0f4H
	DB	0f5H
	DB	0f4H
	DB	0f5H
	DB	015H
	DB	0f6H
	DB	035H
	DB	0f6H
	DB	035H
	DB	0f6H
	DB	056H
	DB	0feH
	DB	056H
	DB	0f6H
	DB	056H
	DB	0f6H
	DB	097H
	DB	0feH
	DB	097H
	DB	0feH
	DB	097H
	DB	0feH
	DB	0b8H
	DB	0feH
	DB	0b8H
	DB	0feH
	DB	0b8H
	DB	0feH
	DB	0d9H
	DB	0feH
	DB	0d9H
	DB	0f6H
	DB	0f9H
	DB	0feH
	DB	0f9H
	DB	0feH
	DB	0faH
	DB	0feH
	DB	0faH
	DB	0feH
	DB	0f9H
	DB	0feH
	DB	0d9H
	DB	0f6H
	DB	0d9H
	DB	0feH
	DB	0d9H
	DB	0f6H
	DB	0d9H
	DB	0f6H
	DB	0faH
	DB	0feH
	DB	0d9H
	DB	0f6H
	DB	0b9H
	DB	0f6H
	DB	0b8H
	DB	0f6H
	DB	0b8H
	DB	0f6H
	DB	0b8H
	DB	0feH
	DB	078H
	DB	0f6H
	DB	097H
	DB	0f6H
	DB	077H
	DB	0f6H
	DB	036H
	DB	0f6H
	DB	015H
	DB	0eeH
	DB	0d4H
	DB	0edH
	DB	073H
	DB	0e5H
	DB	072H
	DB	0ddH
	DB	011H
	DB	0d5H
	DB	0f1H
	DB	0d4H
	DB	0b0H
	DB	0d4H
	DB	06fH
	DB	0c4H
	DB	06eH
	DB	0bcH
	DB	0dH
	DB	0b4H
	DB	0edH
	DB	0b3H
	DB	0acH
	DB	0abH
	DB	06bH
	DB	09bH
	DB	04aH
	DB	093H
	DB	0e9H
	DB	08aH
	DB	088H
	DB	07aH
	DB	068H
	DB	072H
	DB	07H
	DB	062H
	DB	027H
	DB	062H
	DB	089H
	DB	062H
	DB	07H
	DB	052H
	DB	0a6H
	DB	049H
	DB	0c7H
	DB	041H
	DB	08H
	DB	04aH
	DB	048H
	DB	05aH
	DB	089H
	DB	05aH
	DB	06eH
	DB	06bH
	DB	073H
	DB	074H
	DB	074H
	DB	074H
	DB	053H
	DB	074H
	DB	073H
	DB	06cH
	DB	074H
	DB	074H
	DB	074H
	DB	074H
	DB	073H
	DB	06cH
	DB	053H
	DB	06cH
	DB	053H
	DB	074H
	DB	074H
	DB	074H
	DB	074H
	DB	074H
	DB	053H
	DB	06cH
	DB	054H
	DB	074H
	DB	054H
	DB	06cH
	DB	053H
	DB	06cH
	DB	053H
	DB	06cH
	DB	074H
	DB	074H
	DB	053H
	DB	06cH
	DB	053H
	DB	074H
	DB	074H
	DB	074H
	DB	053H
	DB	06cH
	DB	054H
	DB	074H
	DB	053H
	DB	06cH
	DB	054H
	DB	074H
	DB	053H
	DB	06cH
	DB	053H
	DB	074H
	DB	053H
	DB	074H
	DB	053H
	DB	074H
	DB	053H
	DB	06cH
	DB	053H
	DB	074H
	DB	053H
	DB	06cH
	DB	053H
	DB	06cH
	DB	053H
	DB	074H
	DB	012H
	DB	064H
	DB	012H
	DB	064H
	DB	012H
	DB	06cH
	DB	012H
	DB	06cH
	DB	012H
	DB	064H
	DB	012H
	DB	06cH
	DB	012H
	DB	06cH
	DB	012H
	DB	06cH
	DB	012H
	DB	064H
	DB	012H
	DB	06cH
	DB	032H
	DB	06cH
	DB	032H
	DB	06cH
	DB	033H
	DB	06cH
	DB	032H
	DB	064H
	DB	012H
	DB	06cH
	DB	033H
	DB	06cH
	DB	033H
	DB	06cH
	DB	033H
	DB	06cH
	DB	033H
	DB	06cH
	DB	033H
	DB	06cH
	DB	032H
	DB	064H
	DB	033H
	DB	06cH
	DB	033H
	DB	06cH
	DB	033H
	DB	06cH
	DB	053H
	DB	06cH
	DB	033H
	DB	06cH
	DB	033H
	DB	06cH
	DB	033H
	DB	06cH
	DB	053H
	DB	06cH
	DB	053H
	DB	06cH
	DB	033H
	DB	06cH
	DB	053H
	DB	06cH
	DB	053H
	DB	06cH
	DB	053H
	DB	06cH
	DB	053H
	DB	074H
	DB	053H
	DB	06cH
	DB	053H
	DB	06cH
	DB	053H
	DB	06cH
	DB	033H
	DB	06cH
	DB	053H
	DB	074H
	DB	053H
	DB	06cH
	DB	053H
	DB	074H
	DB	054H
	DB	074H
	DB	053H
	DB	06cH
	DB	053H
	DB	06cH
	DB	054H
	DB	074H
	DB	074H
	DB	074H
	DB	053H
	DB	06cH
	DB	053H
	DB	074H
	DB	074H
	DB	074H
	DB	053H
	DB	06cH
	DB	074H
	DB	074H
	DB	074H
	DB	074H
	DB	073H
	DB	06cH
	DB	054H
	DB	074H
	DB	074H
	DB	074H
	DB	053H
	DB	06cH
	DB	054H
	DB	06cH
	DB	074H
	DB	074H
	DB	073H
	DB	074H
	DB	074H
	DB	074H
	DB	0afH
	DB	073H
	DB	028H
	DB	052H
	DB	0e8H
	DB	049H
	DB	0e8H
	DB	049H
	DB	046H
	DB	039H
	DB	04H
	DB	031H
	DB	045H
	DB	041H
	DB	089H
	DB	072H
	DB	08cH
	DB	09bH
	DB	0dH
	DB	0b4H
	DB	04eH
	DB	0bcH
	DB	08fH
	DB	0c4H
	DB	0d0H
	DB	0ccH
	DB	0b0H
	DB	0c4H
	DB	0f0H
	DB	0ccH
	DB	011H
	DB	0d5H
	DB	032H
	DB	0ddH
	DB	072H
	DB	0e5H
	DB	073H
	DB	0e5H
	DB	072H
	DB	0e5H
	DB	072H
	DB	0edH
	DB	093H
	DB	0edH
	DB	0b3H
	DB	0edH
	DB	0b3H
	DB	0edH
	DB	0d4H
	DB	0f5H
	DB	0f4H
	DB	0f5H
	DB	035H
	DB	0feH
	DB	035H
	DB	0f6H
	DB	035H
	DB	0f6H
	DB	056H
	DB	0feH
	DB	056H
	DB	0f6H
	DB	076H
	DB	0feH
	DB	097H
	DB	0feH
	DB	097H
	DB	0feH
	DB	0b8H
	DB	0feH
	DB	0b8H
	DB	0feH
	DB	0d9H
	DB	0feH
	DB	0d9H
	DB	0feH
	DB	0f9H
	DB	0feH
	DB	0f9H
	DB	0feH
	DB	01aH
	DB	0ffH
	DB	0faH
	DB	0feH
	DB	01aH
	DB	0ffH
	DB	0d9H
	DB	0feH
	DB	0d9H
	DB	0feH
	DB	0b9H
	DB	0f6H
	DB	0b9H
	DB	0f6H
	DB	0b9H
	DB	0feH
	DB	0d9H
	DB	0feH
	DB	0d9H
	DB	0feH
	DB	0b9H
	DB	0f6H
	DB	0d9H
	DB	0feH
	DB	098H
	DB	0f6H
	DB	098H
	DB	0f6H
	DB	0b9H
	DB	0feH
	DB	078H
	DB	0f6H
	DB	097H
	DB	0f6H
	DB	097H
	DB	0feH
	DB	036H
	DB	0f6H
	DB	015H
	DB	0eeH
	DB	0b4H
	DB	0e5H
	DB	093H
	DB	0e5H
	DB	052H
	DB	0ddH
	DB	032H
	DB	0ddH
	DB	0f1H
	DB	0d4H
	DB	06fH
	DB	0ccH
	DB	06fH
	DB	0c4H
	DB	02eH
	DB	0bcH
	DB	0dH
	DB	0b4H
	DB	0dH
	DB	0b4H
	DB	0ccH
	DB	0abH
	DB	06bH
	DB	0a3H
	DB	04bH
	DB	09bH
	DB	0e9H
	DB	08aH
	DB	088H
	DB	07aH
	DB	027H
	DB	072H
	DB	027H
	DB	06aH
	DB	027H
	DB	062H
	DB	048H
	DB	062H
	DB	028H
	DB	05aH
	DB	065H
	DB	039H
	DB	045H
	DB	039H
	DB	0c7H
	DB	041H
	DB	07H
	DB	04aH
	DB	048H
	DB	052H
	DB	06dH
	DB	06bH
	DB	053H
	DB	07cH
	DB	074H
	DB	074H
	DB	074H
	DB	074H
	DB	053H
	DB	074H
	DB	074H
	DB	074H
	DB	054H
	DB	074H
	DB	074H
	DB	074H
	DB	074H
	DB	074H
	DB	074H
	DB	074H
	DB	074H
	DB	074H
	DB	074H
	DB	074H
	DB	073H
	DB	074H
	DB	053H
	DB	06cH
	DB	074H
	DB	074H
	DB	073H
	DB	074H
	DB	053H
	DB	074H
	DB	054H
	DB	06cH
	DB	073H
	DB	06cH
	DB	053H
	DB	074H
	DB	054H
	DB	06cH
	DB	053H
	DB	06cH
	DB	074H
	DB	074H
	DB	053H
	DB	06cH
	DB	054H
	DB	074H
	DB	074H
	DB	074H
	DB	053H
	DB	06cH
	DB	054H
	DB	074H
	DB	053H
	DB	06cH
	DB	053H
	DB	06cH
	DB	054H
	DB	074H
	DB	053H
	DB	074H
	DB	053H
	DB	06cH
	DB	053H
	DB	06cH
	DB	012H
	DB	064H
	DB	012H
	DB	064H
	DB	012H
	DB	064H
	DB	012H
	DB	06cH
	DB	012H
	DB	06cH
	DB	012H
	DB	064H
	DB	032H
	DB	06cH
	DB	032H
	DB	06cH
	DB	012H
	DB	064H
	DB	012H
	DB	064H
	DB	012H
	DB	06cH
	DB	033H
	DB	06cH
	DB	033H
	DB	06cH
	DB	012H
	DB	064H
	DB	033H
	DB	06cH
	DB	033H
	DB	06cH
	DB	033H
	DB	06cH
	DB	032H
	DB	064H
	DB	032H
	DB	06cH
	DB	033H
	DB	06cH
	DB	033H
	DB	06cH
	DB	033H
	DB	06cH
	DB	053H
	DB	06cH
	DB	033H
	DB	06cH
	DB	053H
	DB	06cH
	DB	053H
	DB	06cH
	DB	053H
	DB	06cH
	DB	053H
	DB	06cH
	DB	053H
	DB	06cH
	DB	053H
	DB	06cH
	DB	053H
	DB	06cH
	DB	053H
	DB	074H
	DB	053H
	DB	06cH
	DB	033H
	DB	06cH
	DB	053H
	DB	06cH
	DB	053H
	DB	074H
	DB	053H
	DB	074H
	DB	053H
	DB	06cH
	DB	053H
	DB	06cH
	DB	053H
	DB	074H
	DB	053H
	DB	06cH
	DB	054H
	DB	074H
	DB	053H
	DB	06cH
	DB	054H
	DB	074H
	DB	053H
	DB	06cH
	DB	053H
	DB	074H
	DB	054H
	DB	06cH
	DB	074H
	DB	074H
	DB	053H
	DB	074H
	DB	074H
	DB	074H
	DB	073H
	DB	06cH
	DB	054H
	DB	074H
	DB	053H
	DB	06cH
	DB	074H
	DB	074H
	DB	074H
	DB	074H
	DB	074H
	DB	074H
	DB	074H
	DB	074H
	DB	074H
	DB	074H
	DB	073H
	DB	06cH
	DB	073H
	DB	074H
	DB	074H
	DB	074H
	DB	04eH
	DB	063H
	DB	08H
	DB	052H
	DB	0a7H
	DB	041H
	DB	0a7H
	DB	041H
	DB	0e4H
	DB	028H
	DB	0c3H
	DB	028H
	DB	0a6H
	DB	051H
	DB	0caH
	DB	082H
	DB	0adH
	DB	0a3H
	DB	02eH
	DB	0bcH
	DB	04eH
	DB	0c4H
	DB	0afH
	DB	0c4H
	DB	0d0H
	DB	0ccH
	DB	090H
	DB	0c4H
	DB	0d0H
	DB	0ccH
	DB	0f1H
	DB	0d4H
	DB	032H
	DB	0ddH
	DB	052H
	DB	0e5H
	DB	072H
	DB	0e5H
	DB	052H
	DB	0e5H
	DB	072H
	DB	0e5H
	DB	073H
	DB	0edH
	DB	0b3H
	DB	0edH
	DB	0b4H
	DB	0f5H
	DB	0d4H
	DB	0f5H
	DB	015H
	DB	0feH
	DB	035H
	DB	0feH
	DB	056H
	DB	0feH
	DB	076H
	DB	0feH
	DB	056H
	DB	0feH
	DB	076H
	DB	0feH
	DB	097H
	DB	0feH
	DB	0b7H
	DB	0feH
	DB	0b8H
	DB	0feH
	DB	0d8H
	DB	0f6H
	DB	0f9H
	DB	0feH
	DB	0f9H
	DB	0feH
	DB	01aH
	DB	0ffH
	DB	0f9H
	DB	0feH
	DB	0f9H
	DB	0feH
	DB	01aH
	DB	0ffH
	DB	01aH
	DB	0ffH
	DB	01aH
	DB	0ffH
	DB	0faH
	DB	0feH
	DB	0d9H
	DB	0feH
	DB	0b9H
	DB	0feH
	DB	0d9H
	DB	0feH
	DB	0b9H
	DB	0feH
	DB	0b8H
	DB	0f6H
	DB	0d9H
	DB	0feH
	DB	0d9H
	DB	0feH
	DB	0d9H
	DB	0feH
	DB	098H
	DB	0f6H
	DB	098H
	DB	0f6H
	DB	098H
	DB	0f6H
	DB	077H
	DB	0f6H
	DB	077H
	DB	0f6H
	DB	077H
	DB	0f6H
	DB	036H
	DB	0f6H
	DB	0f5H
	DB	0edH
	DB	0b3H
	DB	0e5H
	DB	072H
	DB	0ddH
	DB	032H
	DB	0ddH
	DB	0f1H
	DB	0dcH
	DB	090H
	DB	0ccH
	DB	04fH
	DB	0c4H
	DB	04eH
	DB	0c4H
	DB	02eH
	DB	0b4H
	DB	0dH
	DB	0b4H
	DB	0edH
	DB	0abH
	DB	0acH
	DB	0a3H
	DB	06bH
	DB	09bH
	DB	02aH
	DB	093H
	DB	0c9H
	DB	08aH
	DB	047H
	DB	07aH
	DB	027H
	DB	072H
	DB	047H
	DB	06aH
	DB	07H
	DB	062H
	DB	0e7H
	DB	059H
	DB	0c6H
	DB	051H
	DB	065H
	DB	039H
	DB	024H
	DB	031H
	DB	0a6H
	DB	039H
	DB	07H
	DB	04aH
	DB	0e6H
	DB	049H
	DB	0ebH
	DB	062H
	DB	031H
	DB	07cH
	DB	074H
	DB	074H
	DB	074H
	DB	074H
	DB	074H
	DB	074H
	DB	074H
	DB	074H
	DB	074H
	DB	074H
	DB	073H
	DB	074H
	DB	074H
	DB	074H
	DB	073H
	DB	06cH
	DB	074H
	DB	074H
	DB	074H
	DB	074H
	DB	074H
	DB	074H
	DB	053H
	DB	074H
	DB	074H
	DB	074H
	DB	074H
	DB	074H
	DB	053H
	DB	06cH
	DB	074H
	DB	074H
	DB	074H
	DB	074H
	DB	053H
	DB	06cH
	DB	053H
	DB	074H
	DB	053H
	DB	06cH
	DB	074H
	DB	074H
	DB	053H
	DB	074H
	DB	073H
	DB	074H
	DB	074H
	DB	074H
	DB	053H
	DB	06cH
	DB	074H
	DB	074H
	DB	053H
	DB	06cH
	DB	053H
	DB	06cH
	DB	053H
	DB	06cH
	DB	053H
	DB	06cH
	DB	053H
	DB	06cH
	DB	053H
	DB	06cH
	DB	012H
	DB	06cH
	DB	012H
	DB	064H
	DB	012H
	DB	064H
	DB	032H
	DB	06cH
	DB	012H
	DB	06cH
	DB	012H
	DB	064H
	DB	032H
	DB	064H
	DB	032H
	DB	06cH
	DB	033H
	DB	06cH
	DB	032H
	DB	06cH
	DB	032H
	DB	06cH
	DB	033H
	DB	06cH
	DB	033H
	DB	06cH
	DB	033H
	DB	06cH
	DB	033H
	DB	06cH
	DB	033H
	DB	06cH
	DB	033H
	DB	06cH
	DB	033H
	DB	06cH
	DB	032H
	DB	064H
	DB	033H
	DB	06cH
	DB	033H
	DB	06cH
	DB	033H
	DB	06cH
	DB	053H
	DB	06cH
	DB	033H
	DB	06cH
	DB	053H
	DB	06cH
	DB	033H
	DB	06cH
	DB	053H
	DB	06cH
	DB	053H
	DB	074H
	DB	053H
	DB	074H
	DB	053H
	DB	074H
	DB	053H
	DB	06cH
	DB	053H
	DB	074H
	DB	053H
	DB	074H
	DB	053H
	DB	06cH
	DB	054H
	DB	074H
	DB	054H
	DB	074H
	DB	053H
	DB	06cH
	DB	033H
	DB	06cH
	DB	054H
	DB	074H
	DB	054H
	DB	06cH
	DB	053H
	DB	06cH
	DB	054H
	DB	074H
	DB	074H
	DB	074H
	DB	053H
	DB	06cH
	DB	053H
	DB	06cH
	DB	074H
	DB	074H
	DB	074H
	DB	074H
	DB	053H
	DB	06cH
	DB	074H
	DB	074H
	DB	074H
	DB	074H
	DB	074H
	DB	074H
	DB	074H
	DB	074H
	DB	073H
	DB	074H
	DB	074H
	DB	074H
	DB	073H
	DB	074H
	DB	074H
	DB	074H
	DB	074H
	DB	074H
	DB	074H
	DB	074H
	DB	073H
	DB	074H
	DB	074H
	DB	074H
	DB	074H
	DB	07cH
	DB	0dH
	DB	05bH
	DB	028H
	DB	052H
	DB	087H
	DB	041H
	DB	0c8H
	DB	041H
	DB	0e4H
	DB	028H
	DB	0c3H
	DB	028H
	DB	0c6H
	DB	051H
	DB	0aH
	DB	083H
	DB	0cdH
	DB	0abH
	DB	04eH
	DB	0bcH
	DB	06eH
	DB	0c4H
	DB	0afH
	DB	0c4H
	DB	0b0H
	DB	0c4H
	DB	0b0H
	DB	0ccH
	DB	0d0H
	DB	0ccH
	DB	011H
	DB	0d5H
	DB	011H
	DB	0ddH
	DB	052H
	DB	0ddH
	DB	052H
	DB	0e5H
	DB	032H
	DB	0e5H
	DB	052H
	DB	0e5H
	DB	072H
	DB	0e5H
	DB	0b3H
	DB	0edH
	DB	0f4H
	DB	0f5H
	DB	0f5H
	DB	0fdH
	DB	035H
	DB	0feH
	DB	035H
	DB	0f6H
	DB	036H
	DB	0f6H
	DB	056H
	DB	0feH
	DB	076H
	DB	0f6H
	DB	097H
	DB	0feH
	DB	097H
	DB	0feH
	DB	0b8H
	DB	0feH
	DB	0d8H
	DB	0feH
	DB	0d8H
	DB	0feH
	DB	0d9H
	DB	0feH
	DB	01aH
	DB	0ffH
	DB	01aH
	DB	0ffH
	DB	01aH
	DB	0ffH
	DB	01aH
	DB	0ffH
	DB	03aH
	DB	0ffH
	DB	01aH
	DB	0ffH
	DB	01aH
	DB	0ffH
	DB	0faH
	DB	0feH
	DB	0d9H
	DB	0feH
	DB	0b8H
	DB	0f6H
	DB	0b8H
	DB	0feH
	DB	0b8H
	DB	0f6H
	DB	0b8H
	DB	0f6H
	DB	0b8H
	DB	0f6H
	DB	0b9H
	DB	0f6H
	DB	098H
	DB	0f6H
	DB	098H
	DB	0f6H
	DB	0b9H
	DB	0feH
	DB	0b8H
	DB	0feH
	DB	098H
	DB	0f6H
	DB	097H
	DB	0f6H
	DB	057H
	DB	0f6H
	DB	015H
	DB	0eeH
	DB	0f5H
	DB	0edH
	DB	093H
	DB	0e5H
	DB	072H
	DB	0ddH
	DB	011H
	DB	0ddH
	DB	0f1H
	DB	0d4H
	DB	0b0H
	DB	0d4H
	DB	06fH
	DB	0ccH
	DB	02eH
	DB	0bcH
	DB	02eH
	DB	0bcH
	DB	0dH
	DB	0b4H
	DB	0edH
	DB	0abH
	DB	0ccH
	DB	0abH
	DB	06bH
	DB	09bH
	DB	02bH
	DB	09bH
	DB	0c9H
	DB	08aH
	DB	088H
	DB	07aH
	DB	047H
	DB	072H
	DB	047H
	DB	072H
	DB	06H
	DB	062H
	DB	0e7H
	DB	059H
	DB	0a6H
	DB	049H
	DB	045H
	DB	031H
	DB	04H
	DB	031H
	DB	045H
	DB	031H
	DB	0e7H
	DB	041H
	DB	0e7H
	DB	049H
	DB	08aH
	DB	05aH
	DB	0d0H
	DB	073H
	DB	073H
	DB	074H
	DB	074H
	DB	074H
	DB	074H
	DB	074H
	DB	074H
	DB	074H
	DB	094H
	DB	074H
	DB	074H
	DB	074H
	DB	074H
	DB	074H
	DB	073H
	DB	06cH
	DB	073H
	DB	074H
	DB	054H
	DB	06cH
	DB	074H
	DB	074H
	DB	074H
	DB	074H
	DB	074H
	DB	074H
	DB	074H
	DB	074H
	DB	074H
	DB	074H
	DB	074H
	DB	074H
	DB	074H
	DB	074H
	DB	074H
	DB	074H
	DB	074H
	DB	074H
	DB	074H
	DB	074H
	DB	053H
	DB	06cH
	DB	054H
	DB	074H
	DB	074H
	DB	074H
	DB	053H
	DB	06cH
	DB	074H
	DB	074H
	DB	074H
	DB	074H
	DB	054H
	DB	074H
	DB	053H
	DB	074H
	DB	054H
	DB	074H
	DB	053H
	DB	06cH
	DB	053H
	DB	074H
	DB	054H
	DB	074H
	DB	012H
	DB	064H
	DB	012H
	DB	06cH
	DB	012H
	DB	06cH
	DB	012H
	DB	06cH
	DB	032H
	DB	064H
	DB	032H
	DB	06cH
	DB	033H
	DB	06cH
	DB	033H
	DB	06cH
	DB	033H
	DB	06cH
	DB	032H
	DB	06cH
	DB	033H
	DB	06cH
	DB	033H
	DB	06cH
	DB	053H
	DB	06cH
	DB	033H
	DB	06cH
	DB	053H
	DB	06cH
	DB	033H
	DB	06cH
	DB	033H
	DB	06cH
	DB	033H
	DB	06cH
	DB	033H
	DB	06cH
	DB	033H
	DB	06cH
	DB	053H
	DB	06cH
	DB	053H
	DB	06cH
	DB	053H
	DB	06cH
	DB	053H
	DB	06cH
	DB	053H
	DB	074H
	DB	053H
	DB	06cH
	DB	053H
	DB	06cH
	DB	053H
	DB	06cH
	DB	053H
	DB	06cH
	DB	053H
	DB	06cH
	DB	054H
	DB	06cH
	DB	054H
	DB	074H
	DB	053H
	DB	06cH
	DB	053H
	DB	06cH
	DB	074H
	DB	074H
	DB	053H
	DB	06cH
	DB	054H
	DB	074H
	DB	053H
	DB	074H
	DB	054H
	DB	074H
	DB	054H
	DB	074H
	DB	053H
	DB	074H
	DB	073H
	DB	074H
	DB	054H
	DB	074H
	DB	073H
	DB	074H
	DB	074H
	DB	074H
	DB	074H
	DB	074H
	DB	073H
	DB	074H
	DB	053H
	DB	06cH
	DB	074H
	DB	074H
	DB	073H
	DB	074H
	DB	074H
	DB	074H
	DB	074H
	DB	074H
	DB	074H
	DB	074H
	DB	074H
	DB	074H
	DB	074H
	DB	074H
	DB	074H
	DB	074H
	DB	074H
	DB	074H
	DB	073H
	DB	074H
	DB	074H
	DB	074H
	DB	074H
	DB	074H
	DB	074H
	DB	07cH
	DB	0dH
	DB	05bH
	DB	0c7H
	DB	041H
	DB	046H
	DB	039H
	DB	0a7H
	DB	041H
	DB	0a3H
	DB	020H
	DB	0e3H
	DB	030H
	DB	07H
	DB	05aH
	DB	04bH
	DB	093H
	DB	0cdH
	DB	0abH
	DB	04eH
	DB	0bcH
	DB	08fH
	DB	0c4H
	DB	08fH
	DB	0c4H
	DB	0d0H
	DB	0ccH
	DB	0b0H
	DB	0ccH
	DB	0d0H
	DB	0ccH
	DB	0f1H
	DB	0d4H
	DB	0f1H
	DB	0d4H
	DB	011H
	DB	0d5H
	DB	032H
	DB	0ddH
	DB	031H
	DB	0ddH
	DB	052H
	DB	0e5H
	DB	072H
	DB	0e5H
	DB	0b3H
	DB	0f5H
	DB	0f4H
	DB	0f5H
	DB	0f5H
	DB	0f5H
	DB	055H
	DB	0feH
	DB	036H
	DB	0f6H
	DB	056H
	DB	0f6H
	DB	035H
	DB	0f6H
	DB	077H
	DB	0feH
	DB	0b7H
	DB	0feH
	DB	0b8H
	DB	0feH
	DB	0d9H
	DB	0feH
	DB	0d9H
	DB	0feH
	DB	0d9H
	DB	0feH
	DB	0faH
	DB	0feH
	DB	0f9H
	DB	0feH
	DB	0f9H
	DB	0feH
	DB	019H
	DB	0ffH
	DB	01aH
	DB	0ffH
	DB	0f9H
	DB	0feH
	DB	0faH
	DB	0feH
	DB	01aH
	DB	0ffH
	DB	01aH
	DB	0ffH
	DB	0faH
	DB	0feH
	DB	0d9H
	DB	0feH
	DB	0d9H
	DB	0feH
	DB	098H
	DB	0f6H
	DB	098H
	DB	0f6H
	DB	0b8H
	DB	0feH
	DB	0d9H
	DB	0f6H
	DB	0b9H
	DB	0f6H
	DB	0d9H
	DB	0feH
	DB	0d9H
	DB	0f6H
	DB	0f9H
	DB	0feH
	DB	0d9H
	DB	0feH
	DB	098H
	DB	0feH
	DB	056H
	DB	0f6H
	DB	015H
	DB	0eeH
	DB	0d4H
	DB	0edH
	DB	093H
	DB	0e5H
	DB	073H
	DB	0e5H
	DB	011H
	DB	0ddH
	DB	0f0H
	DB	0d4H
	DB	0d0H
	DB	0d4H
	DB	08fH
	DB	0ccH
	DB	04eH
	DB	0bcH
	DB	02dH
	DB	0bcH
	DB	0dH
	DB	0b4H
	DB	0ccH
	DB	0abH
	DB	0ccH
	DB	0abH
	DB	06bH
	DB	0a3H
	DB	02aH
	DB	093H
	DB	0aH
	DB	08bH
	DB	0a9H
	DB	082H
	DB	088H
	DB	07aH
	DB	068H
	DB	072H
	DB	0e6H
	DB	061H
	DB	0e6H
	DB	059H
	DB	0a6H
	DB	041H
	DB	025H
	DB	031H
	DB	0e4H
	DB	028H
	DB	05H
	DB	031H
	DB	0c7H
	DB	049H
	DB	0c6H
	DB	049H
	DB	069H
	DB	052H
	DB	08eH
	DB	06bH
	DB	073H
	DB	074H
	DB	094H
	DB	074H
	DB	094H
	DB	074H
	DB	094H
	DB	074H
	DB	074H
	DB	074H
	DB	074H
	DB	074H
	DB	094H
	DB	074H
	DB	094H
	DB	074H
	DB	074H
	DB	074H
	DB	074H
	DB	074H
	DB	074H
	DB	074H
	DB	074H
	DB	074H
	DB	073H
	DB	074H
	DB	074H
	DB	074H
	DB	094H
	DB	074H
	DB	074H
	DB	074H
	DB	073H
	DB	074H
	DB	074H
	DB	074H
	DB	074H
	DB	074H
	DB	073H
	DB	074H
	DB	074H
	DB	074H
	DB	074H
	DB	06cH
	DB	053H
	DB	06cH
	DB	074H
	DB	074H
	DB	053H
	DB	06cH
	DB	074H
	DB	074H
	DB	074H
	DB	074H
	DB	053H
	DB	06cH
	DB	074H
	DB	074H
	DB	054H
	DB	074H
	DB	053H
	DB	06cH
	DB	054H
	DB	074H
	DB	012H
	DB	06cH
	DB	032H
	DB	06cH
	DB	032H
	DB	06cH
	DB	012H
	DB	064H
	DB	032H
	DB	06cH
	DB	032H
	DB	06cH
	DB	013H
	DB	064H
	DB	033H
	DB	06cH
	DB	033H
	DB	06cH
	DB	033H
	DB	064H
	DB	033H
	DB	06cH
	DB	033H
	DB	06cH
	DB	053H
	DB	06cH
	DB	033H
	DB	06cH
	DB	053H
	DB	06cH
	DB	033H
	DB	06cH
	DB	053H
	DB	06cH
	DB	053H
	DB	06cH
	DB	053H
	DB	06cH
	DB	053H
	DB	06cH
	DB	053H
	DB	06cH
	DB	053H
	DB	06cH
	DB	053H
	DB	074H
	DB	053H
	DB	06cH
	DB	053H
	DB	06cH
	DB	053H
	DB	074H
	DB	054H
	DB	074H
	DB	053H
	DB	06cH
	DB	054H
	DB	074H
	DB	054H
	DB	074H
	DB	053H
	DB	06cH
	DB	074H
	DB	074H
	DB	054H
	DB	074H
	DB	074H
	DB	074H
	DB	053H
	DB	074H
	DB	074H
	DB	06cH
	DB	073H
	DB	074H
	DB	074H
	DB	074H
	DB	074H
	DB	074H
	DB	073H
	DB	074H
	DB	053H
	DB	06cH
	DB	074H
	DB	074H
	DB	074H
	DB	074H
	DB	074H
	DB	074H
	DB	074H
	DB	074H
	DB	053H
	DB	06cH
	DB	074H
	DB	074H
	DB	074H
	DB	074H
	DB	074H
	DB	074H
	DB	074H
	DB	074H
	DB	074H
	DB	074H
	DB	074H
	DB	074H
	DB	074H
	DB	074H
	DB	073H
	DB	074H
	DB	074H
	DB	074H
	DB	074H
	DB	06cH
	DB	073H
	DB	074H
	DB	073H
	DB	074H
	DB	0b4H
	DB	074H
	DB	094H
	DB	074H
	DB	073H
	DB	074H
	DB	0ecH
	DB	05aH
	DB	086H
	DB	039H
	DB	025H
	DB	031H
	DB	087H
	DB	039H
	DB	025H
	DB	031H
	DB	065H
	DB	041H
	DB	027H
	DB	062H
	DB	06bH
	DB	09bH
	DB	02eH
	DB	0b4H
	DB	06fH
	DB	0c4H
	DB	0afH
	DB	0ccH
	DB	08fH
	DB	0ccH
	DB	0f1H
	DB	0d4H
	DB	08fH
	DB	0c4H
	DB	0d0H
	DB	0ccH
	DB	0d0H
	DB	0ccH
	DB	0f1H
	DB	0ccH
	DB	011H
	DB	0d5H
	DB	031H
	DB	0d5H
	DB	032H
	DB	0ddH
	DB	011H
	DB	0ddH
	DB	052H
	DB	0e5H
	DB	052H
	DB	0e5H
	DB	073H
	DB	0e5H
	DB	0d4H
	DB	0edH
	DB	073H
	DB	0e5H
	DB	093H
	DB	0edH
	DB	0b4H
	DB	0edH
	DB	0b4H
	DB	0edH
	DB	036H
	DB	0f6H
	DB	077H
	DB	0feH
	DB	0b8H
	DB	0feH
	DB	0d8H
	DB	0feH
	DB	0f9H
	DB	0feH
	DB	0faH
	DB	0feH
	DB	0faH
	DB	0feH
	DB	0d9H
	DB	0feH
	DB	0d9H
	DB	0feH
	DB	0f9H
	DB	0feH
	DB	0f9H
	DB	0feH
	DB	0d9H
	DB	0f6H
	DB	0d9H
	DB	0f6H
	DB	0faH
	DB	0feH
	DB	01aH
	DB	0ffH
	DB	0faH
	DB	0feH
	DB	0d9H
	DB	0f6H
	DB	0b9H
	DB	0feH
	DB	098H
	DB	0f6H
	DB	098H
	DB	0f6H
	DB	098H
	DB	0f6H
	DB	0d9H
	DB	0feH
	DB	0d9H
	DB	0feH
	DB	0d9H
	DB	0feH
	DB	0d9H
	DB	0f6H
	DB	0f9H
	DB	0feH
	DB	0d9H
	DB	0feH
	DB	077H
	DB	0f6H
	DB	056H
	DB	0eeH
	DB	036H
	DB	0eeH
	DB	0f4H
	DB	0edH
	DB	093H
	DB	0e5H
	DB	093H
	DB	0e5H
	DB	032H
	DB	0ddH
	DB	010H
	DB	0d5H
	DB	0d0H
	DB	0d4H
	DB	08fH
	DB	0c4H
	DB	04eH
	DB	0bcH
	DB	02eH
	DB	0b4H
	DB	0edH
	DB	0b3H
	DB	0ccH
	DB	0abH
	DB	0ccH
	DB	0abH
	DB	0acH
	DB	0a3H
	DB	04bH
	DB	09bH
	DB	02aH
	DB	093H
	DB	0a9H
	DB	082H
	DB	0a8H
	DB	07aH
	DB	068H
	DB	072H
	DB	027H
	DB	06aH
	DB	0c6H
	DB	051H
	DB	065H
	DB	039H
	DB	04H
	DB	031H
	DB	04H
	DB	031H
	DB	05H
	DB	029H
	DB	0c7H
	DB	041H
	DB	0e7H
	DB	049H
	DB	069H
	DB	05aH
	DB	02dH
	DB	063H
	DB	074H
	DB	074H
	DB	074H
	DB	074H
	DB	094H
	DB	074H
	DB	094H
	DB	074H
	DB	094H
	DB	074H
	DB	094H
	DB	074H
	DB	094H
	DB	074H
	DB	094H
	DB	074H
	DB	074H
	DB	074H
	DB	074H
	DB	074H
	DB	094H
	DB	074H
	DB	094H
	DB	074H
	DB	094H
	DB	074H
	DB	094H
	DB	074H
	DB	074H
	DB	074H
	DB	074H
	DB	074H
	DB	074H
	DB	074H
	DB	074H
	DB	074H
	DB	074H
	DB	074H
	DB	074H
	DB	074H
	DB	074H
	DB	074H
	DB	074H
	DB	074H
	DB	074H
	DB	074H
	DB	053H
	DB	074H
	DB	074H
	DB	074H
	DB	074H
	DB	074H
	DB	073H
	DB	06cH
	DB	074H
	DB	074H
	DB	053H
	DB	06cH
	DB	074H
	DB	074H
	DB	053H
	DB	06cH
	DB	053H
	DB	06cH
	DB	032H
	DB	06cH
	DB	032H
	DB	06cH
	DB	033H
	DB	06cH
	DB	033H
	DB	06cH
	DB	012H
	DB	064H
	DB	033H
	DB	06cH
	DB	033H
	DB	06cH
	DB	033H
	DB	06cH
	DB	033H
	DB	06cH
	DB	033H
	DB	06cH
	DB	033H
	DB	06cH
	DB	033H
	DB	06cH
	DB	053H
	DB	06cH
	DB	033H
	DB	06cH
	DB	033H
	DB	06cH
	DB	053H
	DB	06cH
	DB	053H
	DB	06cH
	DB	033H
	DB	06cH
	DB	033H
	DB	06cH
	DB	053H
	DB	06cH
	DB	053H
	DB	06cH
	DB	033H
	DB	074H
	DB	053H
	DB	074H
	DB	053H
	DB	06cH
	DB	053H
	DB	06cH
	DB	054H
	DB	074H
	DB	053H
	DB	06cH
	DB	053H
	DB	074H
	DB	074H
	DB	074H
	DB	053H
	DB	06cH
	DB	053H
	DB	06cH
	DB	053H
	DB	074H
	DB	073H
	DB	074H
	DB	054H
	DB	06cH
	DB	053H
	DB	074H
	DB	074H
	DB	074H
	DB	074H
	DB	06cH
	DB	073H
	DB	074H
	DB	074H
	DB	074H
	DB	074H
	DB	06cH
	DB	074H
	DB	074H
	DB	074H
	DB	074H
	DB	073H
	DB	06cH
	DB	053H
	DB	06cH
	DB	074H
	DB	074H
	DB	074H
	DB	074H
	DB	074H
	DB	074H
	DB	094H
	DB	074H
	DB	074H
	DB	074H
	DB	074H
	DB	074H
	DB	074H
	DB	074H
	DB	094H
	DB	074H
	DB	074H
	DB	074H
	DB	074H
	DB	074H
	DB	094H
	DB	074H
	DB	074H
	DB	074H
	DB	074H
	DB	074H
	DB	094H
	DB	074H
	DB	094H
	DB	06cH
	DB	094H
	DB	074H
	DB	094H
	DB	084H
	DB	08bH
	DB	052H
	DB	046H
	DB	031H
	DB	05H
	DB	031H
	DB	087H
	DB	039H
	DB	045H
	DB	031H
	DB	065H
	DB	041H
	DB	047H
	DB	062H
	DB	08cH
	DB	09bH
	DB	04eH
	DB	0bcH
	DB	08fH
	DB	0c4H
	DB	0d0H
	DB	0d4H
	DB	0b0H
	DB	0ccH
	DB	0d1H
	DB	0ccH
	DB	0d0H
	DB	0ccH
	DB	0d0H
	DB	0ccH
	DB	0d0H
	DB	0ccH
	DB	0d0H
	DB	0ccH
	DB	0b0H
	DB	0ccH
	DB	0d0H
	DB	0ccH
	DB	0b0H
	DB	0ccH
	DB	06fH
	DB	0c4H
	DB	02fH
	DB	0bcH
	DB	02fH
	DB	0bcH
	DB	06fH
	DB	0c4H
	DB	070H
	DB	0c4H
	DB	04fH
	DB	0bcH
	DB	06fH
	DB	0c4H
	DB	0b1H
	DB	0ccH
	DB	06fH
	DB	0c4H
	DB	070H
	DB	0c4H
	DB	032H
	DB	0d5H
	DB	0f5H
	DB	0e5H
	DB	057H
	DB	0eeH
	DB	098H
	DB	0f6H
	DB	0d9H
	DB	0feH
	DB	0f9H
	DB	0feH
	DB	0d8H
	DB	0f6H
	DB	0d9H
	DB	0f6H
	DB	0f9H
	DB	0feH
	DB	0f9H
	DB	0feH
	DB	0d9H
	DB	0feH
	DB	0d9H
	DB	0feH
	DB	0d9H
	DB	0feH
	DB	0d9H
	DB	0feH
	DB	0d9H
	DB	0feH
	DB	0b9H
	DB	0f6H
	DB	0d9H
	DB	0f6H
	DB	0d9H
	DB	0feH
	DB	0b8H
	DB	0f6H
	DB	0b8H
	DB	0f6H
	DB	0daH
	DB	0f6H
	DB	0daH
	DB	0f6H
	DB	0d9H
	DB	0feH
	DB	0d9H
	DB	0f6H
	DB	0faH
	DB	0feH
	DB	0b9H
	DB	0feH
	DB	057H
	DB	0f6H
	DB	036H
	DB	0f6H
	DB	015H
	DB	0eeH
	DB	0f4H
	DB	0edH
	DB	0b4H
	DB	0e5H
	DB	073H
	DB	0e5H
	DB	052H
	DB	0ddH
	DB	011H
	DB	0d5H
	DB	0d0H
	DB	0d4H
	DB	0afH
	DB	0ccH
	DB	06fH
	DB	0c4H
	DB	0edH
	DB	0b3H
	DB	0ecH
	DB	0abH
	DB	0ccH
	DB	0abH
	DB	0acH
	DB	0a3H
	DB	0acH
	DB	0a3H
	DB	06bH
	DB	09bH
	DB	0aH
	DB	093H
	DB	0c9H
	DB	082H
	DB	0c9H
	DB	082H
	DB	068H
	DB	072H
	DB	047H
	DB	06aH
	DB	0c6H
	DB	051H
	DB	045H
	DB	039H
	DB	045H
	DB	031H
	DB	0e4H
	DB	028H
	DB	04H
	DB	029H
	DB	066H
	DB	039H
	DB	0e7H
	DB	051H
	DB	048H
	DB	052H
	DB	02dH
	DB	063H
	DB	074H
	DB	074H
	DB	094H
	DB	074H
	DB	094H
	DB	074H
	DB	094H
	DB	074H
	DB	094H
	DB	074H
	DB	094H
	DB	074H
	DB	074H
	DB	074H
	DB	094H
	DB	074H
	DB	094H
	DB	074H
	DB	074H
	DB	074H
	DB	094H
	DB	074H
	DB	094H
	DB	074H
	DB	074H
	DB	074H
	DB	094H
	DB	074H
	DB	074H
	DB	074H
	DB	094H
	DB	074H
	DB	074H
	DB	074H
	DB	074H
	DB	074H
	DB	074H
	DB	074H
	DB	074H
	DB	074H
	DB	074H
	DB	074H
	DB	073H
	DB	074H
	DB	074H
	DB	074H
	DB	074H
	DB	074H
	DB	074H
	DB	074H
	DB	073H
	DB	06cH
	DB	074H
	DB	074H
	DB	053H
	DB	074H
	DB	074H
	DB	074H
	DB	074H
	DB	074H
	DB	074H
	DB	074H
	DB	074H
	DB	074H
	DB	033H
	DB	06cH
	DB	033H
	DB	064H
	DB	033H
	DB	06cH
	DB	012H
	DB	06cH
	DB	033H
	DB	06cH
	DB	033H
	DB	06cH
	DB	032H
	DB	06cH
	DB	033H
	DB	06cH
	DB	033H
	DB	06cH
	DB	053H
	DB	06cH
	DB	053H
	DB	06cH
	DB	053H
	DB	06cH
	DB	053H
	DB	06cH
	DB	053H
	DB	06cH
	DB	053H
	DB	06cH
	DB	053H
	DB	06cH
	DB	053H
	DB	074H
	DB	053H
	DB	06cH
	DB	053H
	DB	074H
	DB	053H
	DB	06cH
	DB	053H
	DB	06cH
	DB	054H
	DB	074H
	DB	053H
	DB	06cH
	DB	054H
	DB	074H
	DB	054H
	DB	074H
	DB	053H
	DB	06cH
	DB	053H
	DB	074H
	DB	053H
	DB	06cH
	DB	053H
	DB	06cH
	DB	074H
	DB	074H
	DB	074H
	DB	074H
	DB	053H
	DB	074H
	DB	074H
	DB	06cH
	DB	073H
	DB	06cH
	DB	074H
	DB	074H
	DB	074H
	DB	074H
	DB	073H
	DB	074H
	DB	054H
	DB	06cH
	DB	074H
	DB	074H
	DB	073H
	DB	06cH
	DB	074H
	DB	074H
	DB	074H
	DB	074H
	DB	074H
	DB	074H
	DB	074H
	DB	074H
	DB	074H
	DB	074H
	DB	074H
	DB	074H
	DB	094H
	DB	074H
	DB	074H
	DB	074H
	DB	094H
	DB	074H
	DB	094H
	DB	074H
	DB	074H
	DB	074H
	DB	094H
	DB	074H
	DB	094H
	DB	074H
	DB	094H
	DB	074H
	DB	094H
	DB	074H
	DB	095H
	DB	07cH
	DB	095H
	DB	07cH
	DB	094H
	DB	074H
	DB	095H
	DB	074H
	DB	095H
	DB	074H
	DB	074H
	DB	07cH
	DB	08bH
	DB	052H
	DB	025H
	DB	029H
	DB	0e4H
	DB	028H
	DB	066H
	DB	041H
	DB	025H
	DB	031H
	DB	064H
	DB	041H
	DB	088H
	DB	072H
	DB	0adH
	DB	0a3H
	DB	06fH
	DB	0c4H
	DB	08fH
	DB	0c4H
	DB	0b0H
	DB	0ccH
	DB	0d0H
	DB	0ccH
	DB	0d1H
	DB	0ccH
	DB	0d0H
	DB	0ccH
	DB	0d0H
	DB	0ccH
	DB	0b0H
	DB	0c4H
	DB	0d0H
	DB	0ccH
	DB	08fH
	DB	0c4H
	DB	08fH
	DB	0c4H
	DB	0eH
	DB	0b4H
	DB	08dH
	DB	0a3H
	DB	06cH
	DB	09bH
	DB	06cH
	DB	09bH
	DB	0aH
	DB	093H
	DB	0a8H
	DB	082H
	DB	0c9H
	DB	082H
	DB	0e9H
	DB	08aH
	DB	0c9H
	DB	08aH
	DB	089H
	DB	082H
	DB	02bH
	DB	093H
	DB	02bH
	DB	093H
	DB	04cH
	DB	093H
	DB	0eH
	DB	0acH
	DB	0f1H
	DB	0c4H
	DB	094H
	DB	0ddH
	DB	057H
	DB	0eeH
	DB	097H
	DB	0f6H
	DB	0b8H
	DB	0feH
	DB	0d9H
	DB	0feH
	DB	0d9H
	DB	0feH
	DB	0d9H
	DB	0feH
	DB	0b9H
	DB	0f6H
	DB	0d9H
	DB	0feH
	DB	0d9H
	DB	0feH
	DB	0d9H
	DB	0f6H
	DB	0d9H
	DB	0f6H
	DB	0b9H
	DB	0f6H
	DB	0f9H
	DB	0feH
	DB	0b9H
	DB	0f6H
	DB	0b9H
	DB	0f6H
	DB	0faH
	DB	0f6H
	DB	0d9H
	DB	0f6H
	DB	0daH
	DB	0feH
	DB	0d9H
	DB	0f6H
	DB	0d9H
	DB	0f6H
	DB	0b9H
	DB	0feH
	DB	057H
	DB	0f6H
	DB	036H
	DB	0f6H
	DB	015H
	DB	0eeH
	DB	0d4H
	DB	0edH
	DB	0b4H
	DB	0e5H
	DB	094H
	DB	0e5H
	DB	052H
	DB	0ddH
	DB	011H
	DB	0d5H
	DB	0d0H
	DB	0ccH
	DB	0b0H
	DB	0ccH
	DB	06fH
	DB	0c4H
	DB	0dH
	DB	0b4H
	DB	0ccH
	DB	0abH
	DB	0ccH
	DB	0abH
	DB	0acH
	DB	0abH
	DB	0acH
	DB	0abH
	DB	08bH
	DB	0a3H
	DB	02aH
	DB	093H
	DB	0c9H
	DB	082H
	DB	0a9H
	DB	082H
	DB	068H
	DB	072H
	DB	048H
	DB	06aH
	DB	0c6H
	DB	051H
	DB	044H
	DB	039H
	DB	024H
	DB	031H
	DB	0c3H
	DB	020H
	DB	05H
	DB	021H
	DB	066H
	DB	039H
	DB	0e7H
	DB	049H
	DB	049H
	DB	052H
	DB	04eH
	DB	06bH
	DB	074H
	DB	07cH
	DB	094H
	DB	07cH
	DB	094H
	DB	074H
	DB	094H
	DB	074H
	DB	095H
	DB	074H
	DB	094H
	DB	074H
	DB	094H
	DB	074H
	DB	094H
	DB	07cH
	DB	094H
	DB	074H
	DB	094H
	DB	07cH
	DB	074H
	DB	074H
	DB	094H
	DB	074H
	DB	094H
	DB	07cH
	DB	094H
	DB	074H
	DB	094H
	DB	074H
	DB	094H
	DB	074H
	DB	094H
	DB	074H
	DB	094H
	DB	074H
	DB	094H
	DB	074H
	DB	094H
	DB	074H
	DB	074H
	DB	074H
	DB	074H
	DB	074H
	DB	074H
	DB	074H
	DB	094H
	DB	074H
	DB	074H
	DB	074H
	DB	074H
	DB	074H
	DB	074H
	DB	074H
	DB	074H
	DB	074H
	DB	074H
	DB	074H
	DB	074H
	DB	074H
	DB	074H
	DB	074H
	DB	053H
	DB	074H
	DB	033H
	DB	06cH
	DB	033H
	DB	06cH
	DB	033H
	DB	06cH
	DB	033H
	DB	06cH
	DB	053H
	DB	06cH
	DB	033H
	DB	06cH
	DB	053H
	DB	06cH
	DB	053H
	DB	06cH
	DB	053H
	DB	06cH
	DB	033H
	DB	06cH
	DB	033H
	DB	06cH
	DB	033H
	DB	06cH
	DB	053H
	DB	074H
	DB	053H
	DB	06cH
	DB	053H
	DB	06cH
	DB	053H
	DB	074H
	DB	053H
	DB	074H
	DB	053H
	DB	06cH
	DB	053H
	DB	074H
	DB	053H
	DB	06cH
	DB	053H
	DB	06cH
	DB	053H
	DB	074H
	DB	054H
	DB	06cH
	DB	074H
	DB	074H
	DB	074H
	DB	074H
	DB	053H
	DB	06cH
	DB	074H
	DB	074H
	DB	074H
	DB	074H
	DB	053H
	DB	06cH
	DB	053H
	DB	074H
	DB	074H
	DB	074H
	DB	074H
	DB	074H
	DB	074H
	DB	074H
	DB	074H
	DB	074H
	DB	074H
	DB	074H
	DB	073H
	DB	074H
	DB	074H
	DB	074H
	DB	074H
	DB	074H
	DB	074H
	DB	074H
	DB	074H
	DB	074H
	DB	074H
	DB	074H
	DB	074H
	DB	06cH
	DB	074H
	DB	074H
	DB	094H
	DB	074H
	DB	094H
	DB	074H
	DB	094H
	DB	074H
	DB	094H
	DB	074H
	DB	094H
	DB	074H
	DB	094H
	DB	074H
	DB	074H
	DB	074H
	DB	094H
	DB	074H
	DB	094H
	DB	074H
	DB	094H
	DB	07cH
	DB	094H
	DB	074H
	DB	094H
	DB	074H
	DB	095H
	DB	074H
	DB	094H
	DB	074H
	DB	092H
	DB	084H
	DB	093H
	DB	084H
	DB	093H
	DB	07cH
	DB	093H
	DB	074H
	DB	0dH
	DB	053H
	DB	066H
	DB	031H
	DB	025H
	DB	031H
	DB	087H
	DB	041H
	DB	044H
	DB	031H
	DB	085H
	DB	041H
	DB	0a9H
	DB	07aH
	DB	0cdH
	DB	0abH
	DB	06fH
	DB	0c4H
	DB	04fH
	DB	0c4H
	DB	0d0H
	DB	0ccH
	DB	0d0H
	DB	0ccH
	DB	0d0H
	DB	0ccH
	DB	0d0H
	DB	0ccH
	DB	090H
	DB	0c4H
	DB	06fH
	DB	0bcH
	DB	08fH
	DB	0c4H
	DB	06fH
	DB	0bcH
	DB	08cH
	DB	0a3H
	DB	04bH
	DB	09bH
	DB	0eaH
	DB	092H
	DB	0aH
	DB	093H
	DB	088H
	DB	082H
	DB	0e9H
	DB	08aH
	DB	0c9H
	DB	08aH
	DB	0e9H
	DB	08aH
	DB	0e9H
	DB	08aH
	DB	048H
	DB	07aH
	DB	048H
	DB	072H
	DB	068H
	DB	072H
	DB	0e6H
	DB	061H
	DB	07H
	DB	06aH
	DB	089H
	DB	07aH
	DB	0bH
	DB	08bH
	DB	06cH
	DB	09bH
	DB	090H
	DB	0bcH
	DB	0d5H
	DB	0e5H
	DB	057H
	DB	0f6H
	DB	077H
	DB	0f6H
	DB	057H
	DB	0eeH
	DB	077H
	DB	0f6H
	DB	0b8H
	DB	0feH
	DB	0b8H
	DB	0feH
	DB	0b8H
	DB	0feH
	DB	098H
	DB	0f6H
	DB	0b8H
	DB	0f6H
	DB	0b9H
	DB	0feH
	DB	0d9H
	DB	0feH
	DB	0b9H
	DB	0f6H
	DB	0d9H
	DB	0f6H
	DB	0f9H
	DB	0feH
	DB	0b9H
	DB	0feH
	DB	078H
	DB	0f6H
	DB	098H
	DB	0f6H
	DB	0d9H
	DB	0feH
	DB	057H
	DB	0f6H
	DB	036H
	DB	0f6H
	DB	016H
	DB	0eeH
	DB	0f4H
	DB	0e5H
	DB	0d4H
	DB	0e5H
	DB	0b4H
	DB	0e5H
	DB	0b4H
	DB	0e5H
	DB	073H
	DB	0ddH
	DB	032H
	DB	0d5H
	DB	0f1H
	DB	0d4H
	DB	0afH
	DB	0c4H
	DB	06eH
	DB	0c4H
	DB	0dH
	DB	0b4H
	DB	0acH
	DB	0abH
	DB	0ecH
	DB	0abH
	DB	0acH
	DB	0a3H
	DB	0acH
	DB	0a3H
	DB	06bH
	DB	0a3H
	DB	02bH
	DB	093H
	DB	0c9H
	DB	082H
	DB	088H
	DB	07aH
	DB	027H
	DB	06aH
	DB	07H
	DB	062H
	DB	07H
	DB	052H
	DB	045H
	DB	039H
	DB	04H
	DB	029H
	DB	0e4H
	DB	020H
	DB	0e4H
	DB	020H
	DB	066H
	DB	039H
	DB	0c7H
	DB	049H
	DB	028H
	DB	04aH
	DB	04eH
	DB	063H
	DB	074H
	DB	07cH
	DB	0b5H
	DB	07cH
	DB	0b5H
	DB	07cH
	DB	095H
	DB	074H
	DB	0b5H
	DB	07cH
	DB	095H
	DB	074H
	DB	0b5H
	DB	07cH
	DB	095H
	DB	07cH
	DB	094H
	DB	074H
	DB	094H
	DB	074H
	DB	094H
	DB	074H
	DB	095H
	DB	07cH
	DB	094H
	DB	074H
	DB	074H
	DB	074H
	DB	094H
	DB	07cH
	DB	094H
	DB	074H
	DB	094H
	DB	074H
	DB	094H
	DB	074H
	DB	094H
	DB	074H
	DB	074H
	DB	074H
	DB	094H
	DB	074H
	DB	094H
	DB	074H
	DB	094H
	DB	074H
	DB	074H
	DB	074H
	DB	094H
	DB	074H
	DB	074H
	DB	074H
	DB	074H
	DB	074H
	DB	094H
	DB	074H
	DB	094H
	DB	074H
	DB	073H
	DB	074H
	DB	074H
	DB	074H
	DB	074H
	DB	074H
	DB	033H
	DB	06cH
	DB	033H
	DB	06cH
	DB	033H
	DB	06cH
	DB	033H
	DB	06cH
	DB	033H
	DB	06cH
	DB	033H
	DB	06cH
	DB	053H
	DB	06cH
	DB	033H
	DB	06cH
	DB	053H
	DB	06cH
	DB	053H
	DB	06cH
	DB	053H
	DB	074H
	DB	053H
	DB	06cH
	DB	053H
	DB	06cH
	DB	053H
	DB	06cH
	DB	053H
	DB	074H
	DB	053H
	DB	06cH
	DB	053H
	DB	06cH
	DB	054H
	DB	074H
	DB	054H
	DB	074H
	DB	053H
	DB	06cH
	DB	054H
	DB	074H
	DB	074H
	DB	074H
	DB	053H
	DB	074H
	DB	073H
	DB	074H
	DB	074H
	DB	074H
	DB	053H
	DB	06cH
	DB	074H
	DB	074H
	DB	074H
	DB	074H
	DB	074H
	DB	074H
	DB	074H
	DB	074H
	DB	074H
	DB	074H
	DB	074H
	DB	074H
	DB	073H
	DB	074H
	DB	074H
	DB	074H
	DB	074H
	DB	074H
	DB	074H
	DB	074H
	DB	094H
	DB	074H
	DB	074H
	DB	074H
	DB	094H
	DB	074H
	DB	094H
	DB	074H
	DB	094H
	DB	074H
	DB	094H
	DB	074H
	DB	094H
	DB	074H
	DB	074H
	DB	074H
	DB	094H
	DB	074H
	DB	074H
	DB	074H
	DB	074H
	DB	074H
	DB	094H
	DB	074H
	DB	094H
	DB	07cH
	DB	094H
	DB	074H
	DB	094H
	DB	074H
	DB	094H
	DB	07cH
	DB	094H
	DB	074H
	DB	094H
	DB	074H
	DB	095H
	DB	07cH
	DB	094H
	DB	07cH
	DB	092H
	DB	094H
	DB	071H
	DB	0acH
	DB	091H
	DB	0bcH
	DB	0b2H
	DB	0acH
	DB	073H
	DB	08cH
	DB	0d0H
	DB	073H
	DB	0e7H
	DB	041H
	DB	046H
	DB	031H
	DB	0a7H
	DB	041H
	DB	085H
	DB	041H
	DB	085H
	DB	049H
	DB	0eaH
	DB	082H
	DB	0cdH
	DB	0abH
	DB	04fH
	DB	0c4H
	DB	06fH
	DB	0c4H
	DB	0b0H
	DB	0ccH
	DB	0d0H
	DB	0ccH
	DB	0d0H
	DB	0ccH
	DB	0b0H
	DB	0c4H
	DB	06fH
	DB	0bcH
	DB	090H
	DB	0c4H
	DB	090H
	DB	0c4H
	DB	02eH
	DB	0b4H
	DB	0edH
	DB	0abH
	DB	08cH
	DB	0a3H
	DB	08bH
	DB	0a3H
	DB	0cdH
	DB	0abH
	DB	02eH
	DB	0b4H
	DB	0edH
	DB	0abH
	DB	0acH
	DB	0a3H
	DB	04bH
	DB	09bH
	DB	0aH
	DB	093H
	DB	0aH
	DB	093H
	DB	068H
	DB	082H
	DB	0c6H
	DB	061H
	DB	064H
	DB	051H
	DB	065H
	DB	051H
	DB	044H
	DB	049H
	DB	0a5H
	DB	059H
	DB	0e5H
	DB	061H
	DB	088H
	DB	07aH
	DB	0cdH
	DB	0a3H
	DB	032H
	DB	0cdH
	DB	0b3H
	DB	0ddH
	DB	0f5H
	DB	0e5H
	DB	016H
	DB	0eeH
	DB	057H
	DB	0f6H
	DB	077H
	DB	0f6H
	DB	057H
	DB	0f6H
	DB	058H
	DB	0f6H
	DB	057H
	DB	0f6H
	DB	098H
	DB	0feH
	DB	099H
	DB	0feH
	DB	0b9H
	DB	0f6H
	DB	0b9H
	DB	0feH
	DB	098H
	DB	0f6H
	DB	078H
	DB	0f6H
	DB	037H
	DB	0eeH
	DB	097H
	DB	0f6H
	DB	098H
	DB	0f6H
	DB	077H
	DB	0f6H
	DB	037H
	DB	0f6H
	DB	016H
	DB	0eeH
	DB	0f4H
	DB	0edH
	DB	0f5H
	DB	0edH
	DB	0d4H
	DB	0e5H
	DB	0b4H
	DB	0e5H
	DB	093H
	DB	0e5H
	DB	052H
	DB	0ddH
	DB	0f1H
	DB	0d4H
	DB	0b0H
	DB	0c4H
	DB	06fH
	DB	0c4H
	DB	0ecH
	DB	0b3H
	DB	0ccH
	DB	0abH
	DB	0acH
	DB	0abH
	DB	0ccH
	DB	0abH
	DB	0edH
	DB	0abH
	DB	06cH
	DB	09bH
	DB	0c9H
	DB	08aH
	DB	0a8H
	DB	082H
	DB	068H
	DB	072H
	DB	027H
	DB	062H
	DB	07H
	DB	05aH
	DB	0e7H
	DB	051H
	DB	086H
	DB	041H
	DB	0a3H
	DB	020H
	DB	0c4H
	DB	020H
	DB	0e5H
	DB	020H
	DB	086H
	DB	039H
	DB	0c7H
	DB	049H
	DB	08aH
	DB	05aH
	DB	0f0H
	DB	073H
	DB	0b4H
	DB	07cH
	DB	0b5H
	DB	07cH
	DB	0b5H
	DB	07cH
	DB	0b5H
	DB	07cH
	DB	0b4H
	DB	07cH
	DB	0b4H
	DB	074H
	DB	0b5H
	DB	07cH
	DB	094H
	DB	07cH
	DB	095H
	DB	07cH
	DB	095H
	DB	074H
	DB	094H
	DB	07cH
	DB	094H
	DB	074H
	DB	094H
	DB	074H
	DB	094H
	DB	07cH
	DB	094H
	DB	074H
	DB	094H
	DB	07cH
	DB	094H
	DB	07cH
	DB	094H
	DB	074H
	DB	094H
	DB	074H
	DB	074H
	DB	074H
	DB	094H
	DB	074H
	DB	094H
	DB	074H
	DB	074H
	DB	074H
	DB	094H
	DB	074H
	DB	094H
	DB	074H
	DB	094H
	DB	074H
	DB	074H
	DB	074H
	DB	094H
	DB	074H
	DB	074H
	DB	074H
	DB	074H
	DB	074H
	DB	094H
	DB	074H
	DB	073H
	DB	06cH
	DB	033H
	DB	06cH
	DB	033H
	DB	06cH
	DB	033H
	DB	06cH
	DB	053H
	DB	06cH
	DB	033H
	DB	06cH
	DB	033H
	DB	06cH
	DB	053H
	DB	06cH
	DB	053H
	DB	06cH
	DB	053H
	DB	06cH
	DB	053H
	DB	074H
	DB	053H
	DB	06cH
	DB	053H
	DB	06cH
	DB	054H
	DB	074H
	DB	053H
	DB	074H
	DB	054H
	DB	06cH
	DB	054H
	DB	074H
	DB	074H
	DB	074H
	DB	074H
	DB	06cH
	DB	073H
	DB	074H
	DB	054H
	DB	074H
	DB	074H
	DB	06cH
	DB	074H
	DB	074H
	DB	053H
	DB	06cH
	DB	074H
	DB	074H
	DB	074H
	DB	074H
	DB	074H
	DB	074H
	DB	074H
	DB	074H
	DB	074H
	DB	074H
	DB	073H
	DB	074H
	DB	074H
	DB	06cH
	DB	074H
	DB	06cH
	DB	073H
	DB	074H
	DB	074H
	DB	074H
	DB	074H
	DB	074H
	DB	074H
	DB	074H
	DB	074H
	DB	074H
	DB	074H
	DB	074H
	DB	094H
	DB	074H
	DB	094H
	DB	074H
	DB	094H
	DB	06cH
	DB	094H
	DB	074H
	DB	094H
	DB	074H
	DB	094H
	DB	074H
	DB	094H
	DB	074H
	DB	094H
	DB	07cH
	DB	094H
	DB	074H
	DB	094H
	DB	074H
	DB	094H
	DB	074H
	DB	094H
	DB	07cH
	DB	094H
	DB	074H
	DB	094H
	DB	074H
	DB	0b4H
	DB	07cH
	DB	094H
	DB	074H
	DB	094H
	DB	074H
	DB	0b5H
	DB	07cH
	DB	072H
	DB	08cH
	DB	0fH
	DB	0a4H
	DB	02fH
	DB	0c4H
	DB	090H
	DB	0dcH
	DB	091H
	DB	0ccH
	DB	051H
	DB	0acH
	DB	0ecH
	DB	072H
	DB	066H
	DB	039H
	DB	045H
	DB	031H
	DB	0e8H
	DB	049H
	DB	0a6H
	DB	041H
	DB	0c6H
	DB	051H
	DB	04bH
	DB	093H
	DB	0dH
	DB	0b4H
	DB	06fH
	DB	0c4H
	DB	08fH
	DB	0c4H
	DB	0afH
	DB	0ccH
	DB	0d0H
	DB	0ccH
	DB	0d1H
	DB	0ccH
	DB	090H
	DB	0c4H
	DB	08fH
	DB	0c4H
	DB	08fH
	DB	0bcH
	DB	04fH
	DB	0bcH
	DB	02eH
	DB	0b4H
	DB	0dH
	DB	0b4H
	DB	02dH
	DB	0b4H
	DB	02eH
	DB	0b4H
	DB	02dH
	DB	0b4H
	DB	06fH
	DB	0bcH
	DB	04eH
	DB	0bcH
	DB	06fH
	DB	0bcH
	DB	06fH
	DB	0c4H
	DB	02eH
	DB	0bcH
	DB	0edH
	DB	0b3H
	DB	08cH
	DB	0a3H
	DB	0eaH
	DB	092H
	DB	07H
	DB	072H
	DB	044H
	DB	051H
	DB	0e3H
	DB	040H
	DB	0e3H
	DB	040H
	DB	023H
	DB	049H
	DB	043H
	DB	051H
	DB	0a5H
	DB	059H
	DB	0aH
	DB	08bH
	DB	0eH
	DB	0b4H
	DB	032H
	DB	0d5H
	DB	0d5H
	DB	0e5H
	DB	016H
	DB	0eeH
	DB	036H
	DB	0f6H
	DB	036H
	DB	0eeH
	DB	017H
	DB	0eeH
	DB	037H
	DB	0f6H
	DB	057H
	DB	0f6H
	DB	078H
	DB	0f6H
	DB	078H
	DB	0f6H
	DB	057H
	DB	0f6H
	DB	037H
	DB	0f6H
	DB	036H
	DB	0f6H
	DB	036H
	DB	0eeH
	DB	077H
	DB	0f6H
	DB	098H
	DB	0f6H
	DB	057H
	DB	0f6H
	DB	037H
	DB	0eeH
	DB	056H
	DB	0f6H
	DB	016H
	DB	0eeH
	DB	015H
	DB	0eeH
	DB	0d5H
	DB	0e5H
	DB	0b3H
	DB	0ddH
	DB	094H
	DB	0ddH
	DB	073H
	DB	0ddH
	DB	0f1H
	DB	0ccH
	DB	0b0H
	DB	0ccH
	DB	06fH
	DB	0bcH
	DB	0edH
	DB	0b3H
	DB	0ccH
	DB	0abH
	DB	0acH
	DB	0abH
	DB	0ccH
	DB	0abH
	DB	0ecH
	DB	0abH
	DB	06bH
	DB	09bH
	DB	0a8H
	DB	082H
	DB	088H
	DB	07aH
	DB	047H
	DB	072H
	DB	027H
	DB	06aH
	DB	07H
	DB	05aH
	DB	0e7H
	DB	051H
	DB	0c7H
	DB	049H
	DB	0c3H
	DB	020H
	DB	0c3H
	DB	020H
	DB	025H
	DB	029H
	DB	0a7H
	DB	039H
	DB	0c6H
	DB	041H
	DB	02dH
	DB	063H
	DB	093H
	DB	084H
	DB	0b5H
	DB	07cH
	DB	094H
	DB	074H
	DB	094H
	DB	074H
	DB	0b5H
	DB	07cH
	DB	0b5H
	DB	074H
	DB	0b5H
	DB	074H
	DB	0b5H
	DB	07cH
	DB	0b4H
	DB	074H
	DB	0b5H
	DB	074H
	DB	095H
	DB	07cH
	DB	095H
	DB	07cH
	DB	0b5H
	DB	07cH
	DB	094H
	DB	074H
	DB	0b5H
	DB	07cH
	DB	095H
	DB	074H
	DB	095H
	DB	07cH
	DB	094H
	DB	074H
	DB	0b4H
	DB	07cH
	DB	094H
	DB	074H
	DB	094H
	DB	074H
	DB	094H
	DB	07cH
	DB	094H
	DB	074H
	DB	094H
	DB	074H
	DB	094H
	DB	07cH
	DB	094H
	DB	074H
	DB	094H
	DB	074H
	DB	094H
	DB	074H
	DB	094H
	DB	074H
	DB	074H
	DB	074H
	DB	094H
	DB	074H
	DB	074H
	DB	074H
	DB	074H
	DB	074H
	DB	053H
	DB	06cH
	DB	053H
	DB	06cH
	DB	053H
	DB	06cH
	DB	053H
	DB	06cH
	DB	053H
	DB	06cH
	DB	053H
	DB	06cH
	DB	053H
	DB	074H
	DB	053H
	DB	074H
	DB	053H
	DB	06cH
	DB	053H
	DB	074H
	DB	053H
	DB	06cH
	DB	053H
	DB	06cH
	DB	053H
	DB	074H
	DB	074H
	DB	074H
	DB	053H
	DB	074H
	DB	074H
	DB	074H
	DB	053H
	DB	06cH
	DB	073H
	DB	074H
	DB	074H
	DB	074H
	DB	053H
	DB	06cH
	DB	073H
	DB	074H
	DB	053H
	DB	074H
	DB	074H
	DB	074H
	DB	074H
	DB	074H
	DB	073H
	DB	074H
	DB	073H
	DB	074H
	DB	074H
	DB	074H
	DB	074H
	DB	074H
	DB	074H
	DB	074H
	DB	074H
	DB	074H
	DB	094H
	DB	074H
	DB	073H
	DB	06cH
	DB	074H
	DB	06cH
	DB	074H
	DB	074H
	DB	094H
	DB	074H
	DB	094H
	DB	074H
	DB	094H
	DB	074H
	DB	094H
	DB	074H
	DB	094H
	DB	074H
	DB	094H
	DB	074H
	DB	094H
	DB	074H
	DB	094H
	DB	074H
	DB	094H
	DB	074H
	DB	094H
	DB	074H
	DB	0b4H
	DB	074H
	DB	094H
	DB	074H
	DB	094H
	DB	07cH
	DB	0b4H
	DB	07cH
	DB	094H
	DB	074H
	DB	0b5H
	DB	074H
	DB	094H
	DB	07cH
	DB	094H
	DB	07cH
	DB	0b5H
	DB	074H
	DB	0b5H
	DB	074H
	DB	094H
	DB	07cH
	DB	08eH
	DB	083H
	DB	0aaH
	DB	082H
	DB	0ceH
	DB	0b3H
	DB	090H
	DB	0ccH
	DB	0b1H
	DB	0ccH
	DB	070H
	DB	0c4H
	DB	028H
	DB	06aH
	DB	0c3H
	DB	028H
	DB	045H
	DB	031H
	DB	08H
	DB	04aH
	DB	065H
	DB	041H
	DB	0e6H
	DB	059H
	DB	06cH
	DB	09bH
	DB	02eH
	DB	0bcH
	DB	06fH
	DB	0c4H
	DB	0afH
	DB	0ccH
	DB	0d0H
	DB	0ccH
	DB	0b0H
	DB	0ccH
	DB	0d1H
	DB	0ccH
	DB	0b0H
	DB	0c4H
	DB	08fH
	DB	0c4H
	DB	06fH
	DB	0bcH
	DB	06fH
	DB	0bcH
	DB	08fH
	DB	0c4H
	DB	04eH
	DB	0bcH
	DB	04eH
	DB	0bcH
	DB	04eH
	DB	0b4H
	DB	06eH
	DB	0bcH
	DB	06fH
	DB	0bcH
	DB	0d0H
	DB	0ccH
	DB	011H
	DB	0d5H
	DB	032H
	DB	0d5H
	DB	093H
	DB	0ddH
	DB	0f5H
	DB	0e5H
	DB	017H
	DB	0eeH
	DB	0b5H
	DB	0e5H
	DB	0d2H
	DB	0c4H
	DB	0aeH
	DB	0abH
	DB	0a9H
	DB	082H
	DB	0e6H
	DB	069H
	DB	064H
	DB	059H
	DB	044H
	DB	059H
	DB	064H
	DB	059H
	DB	0e6H
	DB	069H
	DB	0aH
	DB	09bH
	DB	090H
	DB	0c4H
	DB	094H
	DB	0ddH
	DB	0f5H
	DB	0edH
	DB	015H
	DB	0eeH
	DB	016H
	DB	0eeH
	DB	016H
	DB	0eeH
	DB	016H
	DB	0eeH
	DB	016H
	DB	0eeH
	DB	016H
	DB	0eeH
	DB	036H
	DB	0f6H
	DB	016H
	DB	0eeH
	DB	016H
	DB	0eeH
	DB	0f5H
	DB	0edH
	DB	016H
	DB	0eeH
	DB	057H
	DB	0f6H
	DB	077H
	DB	0f6H
	DB	056H
	DB	0eeH
	DB	057H
	DB	0eeH
	DB	056H
	DB	0f6H
	DB	036H
	DB	0eeH
	DB	016H
	DB	0eeH
	DB	015H
	DB	0eeH
	DB	0b4H
	DB	0ddH
	DB	0b4H
	DB	0e5H
	DB	093H
	DB	0ddH
	DB	031H
	DB	0d5H
	DB	0b0H
	DB	0c4H
	DB	06eH
	DB	0bcH
	DB	0dH
	DB	0b4H
	DB	0acH
	DB	0abH
	DB	0abH
	DB	0a3H
	DB	06bH
	DB	0a3H
	DB	06bH
	DB	09bH
	DB	02aH
	DB	08bH
	DB	088H
	DB	07aH
	DB	047H
	DB	072H
	DB	048H
	DB	072H
	DB	048H
	DB	06aH
	DB	0e7H
	DB	059H
	DB	0e7H
	DB	051H
	DB	0e7H
	DB	049H
	DB	04H
	DB	029H
	DB	0a3H
	DB	018H
	DB	05H
	DB	029H
	DB	066H
	DB	039H
	DB	0e7H
	DB	041H
	DB	08fH
	DB	06bH
	DB	0b5H
	DB	07cH
	DB	0b5H
	DB	07cH
	DB	0b5H
	DB	07cH
	DB	0b5H
	DB	07cH
	DB	0b5H
	DB	074H
	DB	0b5H
	DB	07cH
	DB	0b5H
	DB	07cH
	DB	0b5H
	DB	074H
	DB	0b5H
	DB	07cH
	DB	0b5H
	DB	074H
	DB	094H
	DB	074H
	DB	0b5H
	DB	074H
	DB	0b5H
	DB	07cH
	DB	0b5H
	DB	07cH
	DB	0b4H
	DB	07cH
	DB	0b4H
	DB	074H
	DB	0b4H
	DB	074H
	DB	0b4H
	DB	074H
	DB	094H
	DB	074H
	DB	094H
	DB	07cH
	DB	094H
	DB	074H
	DB	0b4H
	DB	074H
	DB	0b4H
	DB	07cH
	DB	0b4H
	DB	074H
	DB	0b4H
	DB	074H
	DB	094H
	DB	07cH
	DB	094H
	DB	07cH
	DB	094H
	DB	074H
	DB	094H
	DB	07cH
	DB	094H
	DB	074H
	DB	094H
	DB	074H
	DB	094H
	DB	07cH
	DB	094H
	DB	074H
	DB	033H
	DB	06cH
	DB	053H
	DB	06cH
	DB	053H
	DB	06cH
	DB	053H
	DB	06cH
	DB	053H
	DB	074H
	DB	053H
	DB	06cH
	DB	054H
	DB	074H
	DB	054H
	DB	074H
	DB	053H
	DB	06cH
	DB	054H
	DB	074H
	DB	054H
	DB	074H
	DB	053H
	DB	06cH
	DB	074H
	DB	074H
	DB	053H
	DB	06cH
	DB	073H
	DB	06cH
	DB	074H
	DB	074H
	DB	053H
	DB	074H
	DB	053H
	DB	06cH
	DB	074H
	DB	074H
	DB	074H
	DB	074H
	DB	074H
	DB	074H
	DB	073H
	DB	06cH
	DB	074H
	DB	074H
	DB	074H
	DB	074H
	DB	074H
	DB	074H
	DB	074H
	DB	074H
	DB	074H
	DB	074H
	DB	094H
	DB	074H
	DB	094H
	DB	074H
	DB	074H
	DB	074H
	DB	094H
	DB	074H
	DB	074H
	DB	074H
	DB	094H
	DB	074H
	DB	094H
	DB	074H
	DB	0b4H
	DB	074H
	DB	094H
	DB	074H
	DB	094H
	DB	074H
	DB	095H
	DB	074H
	DB	094H
	DB	074H
	DB	094H
	DB	074H
	DB	074H
	DB	074H
	DB	094H
	DB	074H
	DB	094H
	DB	074H
	DB	094H
	DB	074H
	DB	095H
	DB	074H
	DB	0b5H
	DB	07cH
	DB	0b5H
	DB	074H
	DB	0b5H
	DB	07cH
	DB	0b5H
	DB	074H
	DB	0b5H
	DB	074H
	DB	095H
	DB	07cH
	DB	0b4H
	DB	07cH
	DB	0b5H
	DB	074H
	DB	0b5H
	DB	074H
	DB	094H
	DB	07cH
	DB	0abH
	DB	06aH
	DB	0a2H
	DB	040H
	DB	065H
	DB	059H
	DB	0eeH
	DB	0abH
	DB	0b0H
	DB	0c4H
	DB	0d2H
	DB	0ccH
	DB	0bH
	DB	083H
	DB	0e3H
	DB	030H
	DB	045H
	DB	039H
	DB	0e7H
	DB	049H
	DB	065H
	DB	041H
	DB	048H
	DB	06aH
	DB	0cdH
	DB	0a3H
	DB	02eH
	DB	0bcH
	DB	08fH
	DB	0c4H
	DB	0d0H
	DB	0ccH
	DB	0f1H
	DB	0ccH
	DB	0d0H
	DB	0ccH
	DB	0d0H
	DB	0ccH
	DB	08fH
	DB	0c4H
	DB	08fH
	DB	0bcH
	DB	0d0H
	DB	0ccH
	DB	0b0H
	DB	0c4H
	DB	08fH
	DB	0c4H
	DB	06fH
	DB	0bcH
	DB	06fH
	DB	0bcH
	DB	04eH
	DB	0bcH
	DB	06fH
	DB	0bcH
	DB	0afH
	DB	0c4H
	DB	031H
	DB	0cdH
	DB	072H
	DB	0ddH
	DB	0b3H
	DB	0ddH
	DB	0d4H
	DB	0e5H
	DB	015H
	DB	0e6H
	DB	057H
	DB	0e6H
	DB	077H
	DB	0eeH
	DB	098H
	DB	0f6H
	DB	057H
	DB	0eeH
	DB	0b4H
	DB	0ddH
	DB	0d1H
	DB	0c4H
	DB	08cH
	DB	09bH
	DB	088H
	DB	07aH
	DB	07H
	DB	072H
	DB	026H
	DB	072H
	DB	0e9H
	DB	08aH
	DB	04fH
	DB	0bcH
	DB	012H
	DB	0d5H
	DB	093H
	DB	0ddH
	DB	094H
	DB	0e5H
	DB	0b4H
	DB	0e5H
	DB	0f5H
	DB	0edH
	DB	0f5H
	DB	0edH
	DB	0f5H
	DB	0e5H
	DB	0f5H
	DB	0edH
	DB	016H
	DB	0eeH
	DB	0f5H
	DB	0edH
	DB	0f5H
	DB	0edH
	DB	0d5H
	DB	0e5H
	DB	0f5H
	DB	0e5H
	DB	036H
	DB	0eeH
	DB	036H
	DB	0eeH
	DB	016H
	DB	0eeH
	DB	015H
	DB	0eeH
	DB	0f5H
	DB	0edH
	DB	0f5H
	DB	0edH
	DB	0f5H
	DB	0edH
	DB	015H
	DB	0eeH
	DB	0b4H
	DB	0e5H
	DB	094H
	DB	0ddH
	DB	073H
	DB	0ddH
	DB	032H
	DB	0ddH
	DB	0f1H
	DB	0ccH
	DB	08fH
	DB	0c4H
	DB	0dH
	DB	0b4H
	DB	0ccH
	DB	0abH
	DB	0acH
	DB	0abH
	DB	08bH
	DB	0a3H
	DB	06bH
	DB	09bH
	DB	0e9H
	DB	08aH
	DB	088H
	DB	07aH
	DB	048H
	DB	072H
	DB	047H
	DB	06aH
	DB	07H
	DB	062H
	DB	0e7H
	DB	051H
	DB	0e7H
	DB	049H
	DB	0a7H
	DB	041H
	DB	05H
	DB	029H
	DB	0c4H
	DB	018H
	DB	04H
	DB	021H
	DB	0a6H
	DB	039H
	DB	028H
	DB	04aH
	DB	0d0H
	DB	073H
	DB	0b5H
	DB	07cH
	DB	0b5H
	DB	07cH
	DB	0b5H
	DB	07cH
	DB	0b5H
	DB	074H
	DB	0d5H
	DB	07cH
	DB	0b5H
	DB	07cH
	DB	0b5H
	DB	07cH
	DB	0b5H
	DB	07cH
	DB	0b5H
	DB	07cH
	DB	0b5H
	DB	07cH
	DB	095H
	DB	074H
	DB	0b5H
	DB	07cH
	DB	0b5H
	DB	074H
	DB	0b5H
	DB	07cH
	DB	0b5H
	DB	074H
	DB	0b5H
	DB	07cH
	DB	0b5H
	DB	07cH
	DB	0b5H
	DB	07cH
	DB	0b5H
	DB	07cH
	DB	0b5H
	DB	07cH
	DB	0b5H
	DB	07cH
	DB	095H
	DB	074H
	DB	0b5H
	DB	07cH
	DB	094H
	DB	074H
	DB	095H
	DB	074H
	DB	094H
	DB	074H
	DB	094H
	DB	07cH
	DB	0b5H
	DB	07cH
	DB	094H
	DB	07cH
	DB	074H
	DB	074H
	DB	094H
	DB	074H
	DB	094H
	DB	07cH
	DB	094H
	DB	074H
	DB	053H
	DB	06cH
	DB	053H
	DB	06cH
	DB	053H
	DB	074H
	DB	033H
	DB	06cH
	DB	053H
	DB	074H
	DB	053H
	DB	06cH
	DB	054H
	DB	06cH
	DB	073H
	DB	074H
	DB	074H
	DB	074H
	DB	074H
	DB	074H
	DB	073H
	DB	074H
	DB	054H
	DB	074H
	DB	053H
	DB	06cH
	DB	074H
	DB	074H
	DB	074H
	DB	074H
	DB	074H
	DB	074H
	DB	074H
	DB	074H
	DB	074H
	DB	074H
	DB	074H
	DB	074H
	DB	074H
	DB	074H
	DB	074H
	DB	074H
	DB	074H
	DB	074H
	DB	094H
	DB	074H
	DB	074H
	DB	074H
	DB	074H
	DB	074H
	DB	074H
	DB	074H
	DB	094H
	DB	074H
	DB	094H
	DB	074H
	DB	094H
	DB	074H
	DB	094H
	DB	074H
	DB	094H
	DB	074H
	DB	094H
	DB	074H
	DB	094H
	DB	074H
	DB	094H
	DB	074H
	DB	095H
	DB	074H
	DB	0b5H
	DB	074H
	DB	094H
	DB	074H
	DB	095H
	DB	074H
	DB	0b5H
	DB	07cH
	DB	095H
	DB	074H
	DB	094H
	DB	074H
	DB	095H
	DB	074H
	DB	095H
	DB	074H
	DB	0b4H
	DB	07cH
	DB	0b5H
	DB	07cH
	DB	094H
	DB	074H
	DB	094H
	DB	074H
	DB	095H
	DB	074H
	DB	0b5H
	DB	07cH
	DB	0b5H
	DB	07cH
	DB	0b5H
	DB	07cH
	DB	0b4H
	DB	07cH
	DB	0b5H
	DB	074H
	DB	0b5H
	DB	07cH
	DB	094H
	DB	07cH
	DB	0cbH
	DB	072H
	DB	04H
	DB	051H
	DB	041H
	DB	030H
	DB	044H
	DB	049H
	DB	0adH
	DB	09bH
	DB	012H
	DB	0cdH
	DB	0ceH
	DB	09bH
	DB	045H
	DB	041H
	DB	086H
	DB	039H
	DB	029H
	DB	052H
	DB	0e7H
	DB	051H
	DB	02bH
	DB	08bH
	DB	0eeH
	DB	0b3H
	DB	02eH
	DB	0bcH
	DB	08fH
	DB	0c4H
	DB	0b0H
	DB	0ccH
	DB	011H
	DB	0d5H
	DB	0f0H
	DB	0ccH
	DB	0afH
	DB	0c4H
	DB	08fH
	DB	0bcH
	DB	0b0H
	DB	0c4H
	DB	0d0H
	DB	0ccH
	DB	08fH
	DB	0c4H
	DB	08fH
	DB	0c4H
	DB	08fH
	DB	0bcH
	DB	06fH
	DB	0bcH
	DB	02dH
	DB	0b4H
	DB	06fH
	DB	0bcH
	DB	0f1H
	DB	0ccH
	DB	031H
	DB	0d5H
	DB	093H
	DB	0ddH
	DB	0d4H
	DB	0e5H
	DB	0f4H
	DB	0edH
	DB	036H
	DB	0eeH
	DB	077H
	DB	0eeH
	DB	0b8H
	DB	0f6H
	DB	077H
	DB	0eeH
	DB	076H
	DB	0eeH
	DB	036H
	DB	0eeH
	DB	0d4H
	DB	0e5H
	DB	053H
	DB	0d5H
	DB	06fH
	DB	0bcH
	DB	02bH
	DB	093H
	DB	088H
	DB	082H
	DB	0c8H
	DB	08aH
	DB	0cdH
	DB	0abH
	DB	06fH
	DB	0bcH
	DB	032H
	DB	0d5H
	DB	052H
	DB	0d5H
	DB	093H
	DB	0ddH
	DB	0f5H
	DB	0e5H
	DB	0d5H
	DB	0e5H
	DB	0f5H
	DB	0e5H
	DB	0f5H
	DB	0e5H
	DB	0f5H
	DB	0e5H
	DB	0d4H
	DB	0e5H
	DB	0b4H
	DB	0e5H
	DB	0b4H
	DB	0e5H
	DB	0d5H
	DB	0e5H
	DB	0f5H
	DB	0edH
	DB	016H
	DB	0eeH
	DB	0d5H
	DB	0e5H
	DB	0b4H
	DB	0e5H
	DB	0b4H
	DB	0e5H
	DB	0d5H
	DB	0e5H
	DB	0d4H
	DB	0e5H
	DB	0d4H
	DB	0e5H
	DB	094H
	DB	0ddH
	DB	073H
	DB	0ddH
	DB	032H
	DB	0d5H
	DB	032H
	DB	0d5H
	DB	0f1H
	DB	0d4H
	DB	090H
	DB	0c4H
	DB	04eH
	DB	0bcH
	DB	0dH
	DB	0b4H
	DB	0ccH
	DB	0abH
	DB	06bH
	DB	09bH
	DB	029H
	DB	093H
	DB	088H
	DB	07aH
	DB	047H
	DB	072H
	DB	047H
	DB	06aH
	DB	048H
	DB	06aH
	DB	07H
	DB	05aH
	DB	0e7H
	DB	051H
	DB	08H
	DB	052H
	DB	086H
	DB	039H
	DB	05H
	DB	029H
	DB	0c3H
	DB	018H
	DB	0e4H
	DB	020H
	DB	0e8H
	DB	049H
	DB	06aH
	DB	052H
	DB	011H
	DB	07cH
	DB	0b5H
	DB	07cH
	DB	0d5H
	DB	07cH
	DB	0d5H
	DB	07cH
	DB	0b5H
	DB	07cH
	DB	0b5H
	DB	07cH
	DB	0b5H
	DB	07cH
	DB	0b5H
	DB	074H
	DB	0b5H
	DB	07cH
	DB	0b5H
	DB	074H
	DB	095H
	DB	074H
	DB	0d5H
	DB	07cH
	DB	0b5H
	DB	07cH
	DB	0b5H
	DB	07cH
	DB	0b5H
	DB	07cH
	DB	0b5H
	DB	074H
	DB	0b4H
	DB	074H
	DB	094H
	DB	074H
	DB	0b5H
	DB	07cH
	DB	0b5H
	DB	074H
	DB	094H
	DB	074H
	DB	0b5H
	DB	074H
	DB	094H
	DB	074H
	DB	095H
	DB	074H
	DB	0b5H
	DB	07cH
	DB	0b5H
	DB	07cH
	DB	094H
	DB	074H
	DB	095H
	DB	074H
	DB	095H
	DB	07cH
	DB	0b5H
	DB	07cH
	DB	095H
	DB	07cH
	DB	094H
	DB	074H
	DB	0b5H
	DB	07cH
	DB	095H
	DB	07cH
	DB	053H
	DB	06cH
	DB	053H
	DB	06cH
	DB	054H
	DB	074H
	DB	054H
	DB	074H
	DB	074H
	DB	074H
	DB	074H
	DB	074H
	DB	053H
	DB	06cH
	DB	074H
	DB	074H
	DB	053H
	DB	06cH
	DB	073H
	DB	06cH
	DB	074H
	DB	074H
	DB	053H
	DB	06cH
	DB	074H
	DB	074H
	DB	074H
	DB	074H
	DB	074H
	DB	074H
	DB	074H
	DB	074H
	DB	074H
	DB	074H
	DB	074H
	DB	074H
	DB	074H
	DB	074H
	DB	074H
	DB	074H
	DB	094H
	DB	074H
	DB	094H
	DB	074H
	DB	074H
	DB	074H
	DB	074H
	DB	074H
	DB	074H
	DB	074H
	DB	094H
	DB	074H
	DB	074H
	DB	074H
	DB	074H
	DB	074H
	DB	094H
	DB	074H
	DB	074H
	DB	074H
	DB	094H
	DB	074H
	DB	094H
	DB	074H
	DB	094H
	DB	074H
	DB	095H
	DB	074H
	DB	094H
	DB	074H
	DB	094H
	DB	074H
	DB	094H
	DB	074H
	DB	094H
	DB	074H
	DB	0b5H
	DB	07cH
	DB	0b5H
	DB	07cH
	DB	0b4H
	DB	074H
	DB	0b5H
	DB	07cH
	DB	095H
	DB	074H
	DB	0b5H
	DB	07cH
	DB	095H
	DB	074H
	DB	0b5H
	DB	07cH
	DB	0b5H
	DB	07cH
	DB	0b5H
	DB	07cH
	DB	0b5H
	DB	07cH
	DB	0b5H
	DB	074H
	DB	0b5H
	DB	07cH
	DB	0b4H
	DB	074H
	DB	0b5H
	DB	074H
	DB	0b5H
	DB	07cH
	DB	093H
	DB	084H
	DB	0aeH
	DB	093H
	DB	07H
	DB	06aH
	DB	0c2H
	DB	040H
	DB	081H
	DB	030H
	DB	048H
	DB	06aH
	DB	012H
	DB	0c5H
	DB	04fH
	DB	0acH
	DB	0c6H
	DB	051H
	DB	0c7H
	DB	049H
	DB	08H
	DB	052H
	DB	069H
	DB	062H
	DB	06cH
	DB	093H
	DB	0dH
	DB	0b4H
	DB	04eH
	DB	0c4H
	DB	0b0H
	DB	0ccH
	DB	0d0H
	DB	0d4H
	DB	0f1H
	DB	0d4H
	DB	0f1H
	DB	0ccH
	DB	0d0H
	DB	0ccH
	DB	08fH
	DB	0c4H
	DB	0d0H
	DB	0ccH
	DB	0f1H
	DB	0ccH
	DB	0b0H
	DB	0c4H
	DB	0b0H
	DB	0c4H
	DB	0b0H
	DB	0c4H
	DB	0d0H
	DB	0c4H
	DB	08fH
	DB	0c4H
	DB	06fH
	DB	0bcH
	DB	08fH
	DB	0bcH
	DB	02eH
	DB	0acH
	DB	0edH
	DB	0a3H
	DB	0ccH
	DB	0a3H
	DB	0cdH
	DB	0a3H
	DB	02fH
	DB	0acH
	DB	02fH
	DB	0acH
	DB	0f1H
	DB	0bcH
	DB	032H
	DB	0c5H
	DB	012H
	DB	0c5H
	DB	052H
	DB	0cdH
	DB	0f5H
	DB	0e5H
	DB	0b4H
	DB	0e5H
	DB	032H
	DB	0d5H
	DB	06fH
	DB	0bcH
	DB	04bH
	DB	09bH
	DB	0a8H
	DB	082H
	DB	0e9H
	DB	092H
	DB	0edH
	DB	0abH
	DB	0b0H
	DB	0c4H
	DB	011H
	DB	0d5H
	DB	093H
	DB	0ddH
	DB	0d5H
	DB	0e5H
	DB	015H
	DB	0e6H
	DB	015H
	DB	0eeH
	DB	0f5H
	DB	0e5H
	DB	0f5H
	DB	0e5H
	DB	0b4H
	DB	0ddH
	DB	093H
	DB	0ddH
	DB	073H
	DB	0ddH
	DB	073H
	DB	0ddH
	DB	093H
	DB	0e5H
	DB	073H
	DB	0ddH
	DB	073H
	DB	0ddH
	DB	073H
	DB	0ddH
	DB	053H
	DB	0d5H
	DB	032H
	DB	0d5H
	DB	0f1H
	DB	0c4H
	DB	032H
	DB	0cdH
	DB	032H
	DB	0cdH
	DB	0f2H
	DB	0ccH
	DB	0d1H
	DB	0c4H
	DB	090H
	DB	0bcH
	DB	090H
	DB	0c4H
	DB	06fH
	DB	0bcH
	DB	06fH
	DB	0bcH
	DB	04fH
	DB	0b4H
	DB	0edH
	DB	0abH
	DB	04bH
	DB	09bH
	DB	0e9H
	DB	092H
	DB	067H
	DB	07aH
	DB	047H
	DB	06aH
	DB	027H
	DB	06aH
	DB	028H
	DB	062H
	DB	07H
	DB	05aH
	DB	0e7H
	DB	051H
	DB	0c8H
	DB	049H
	DB	087H
	DB	039H
	DB	0e4H
	DB	020H
	DB	0e4H
	DB	020H
	DB	025H
	DB	029H
	DB	029H
	DB	04aH
	DB	0aaH
	DB	05aH
	DB	053H
	DB	07cH
	DB	0d6H
	DB	07cH
	DB	0d6H
	DB	07cH
	DB	0d5H
	DB	07cH
	DB	0b5H
	DB	07cH
	DB	0b5H
	DB	074H
	DB	0b5H
	DB	07cH
	DB	0d5H
	DB	07cH
	DB	0d5H
	DB	07cH
	DB	0b5H
	DB	07cH
	DB	0b5H
	DB	07cH
	DB	0d5H
	DB	07cH
	DB	0b5H
	DB	074H
	DB	0b5H
	DB	07cH
	DB	0b5H
	DB	074H
	DB	0d5H
	DB	07cH
	DB	0b5H
	DB	07cH
	DB	0b5H
	DB	07cH
	DB	0b5H
	DB	07cH
	DB	0b5H
	DB	074H
	DB	0b5H
	DB	074H
	DB	0b5H
	DB	07cH
	DB	0b5H
	DB	074H
	DB	0b4H
	DB	07cH
	DB	094H
	DB	074H
	DB	0b5H
	DB	07cH
	DB	0b5H
	DB	07cH
	DB	0b4H
	DB	074H
	DB	0b5H
	DB	07cH
	DB	094H
	DB	074H
	DB	0b4H
	DB	07cH
	DB	0b5H
	DB	07cH
	DB	094H
	DB	074H
	DB	0b5H
	DB	07cH
	DB	053H
	DB	074H
	DB	054H
	DB	074H
	DB	053H
	DB	06cH
	DB	053H
	DB	06cH
	DB	074H
	DB	074H
	DB	053H
	DB	074H
	DB	073H
	DB	074H
	DB	074H
	DB	074H
	DB	074H
	DB	074H
	DB	053H
	DB	06cH
	DB	074H
	DB	074H
	DB	074H
	DB	074H
	DB	074H
	DB	074H
	DB	073H
	DB	074H
	DB	074H
	DB	074H
	DB	074H
	DB	074H
	DB	074H
	DB	074H
	DB	073H
	DB	074H
	DB	074H
	DB	074H
	DB	094H
	DB	074H
	DB	094H
	DB	074H
	DB	074H
	DB	074H
	DB	094H
	DB	074H
	DB	094H
	DB	074H
	DB	074H
	DB	074H
	DB	094H
	DB	074H
	DB	094H
	DB	074H
	DB	094H
	DB	074H
	DB	094H
	DB	074H
	DB	094H
	DB	074H
	DB	095H
	DB	074H
	DB	0b5H
	DB	074H
	DB	095H
	DB	074H
	DB	094H
	DB	07cH
	DB	094H
	DB	074H
	DB	095H
	DB	07cH
	DB	0b5H
	DB	07cH
	DB	0b5H
	DB	07cH
	DB	0b4H
	DB	074H
	DB	094H
	DB	074H
	DB	094H
	DB	07cH
	DB	0b4H
	DB	074H
	DB	0b5H
	DB	07cH
	DB	0b5H
	DB	074H
	DB	0b5H
	DB	07cH
	DB	0b5H
	DB	07cH
	DB	0b5H
	DB	07cH
	DB	0b5H
	DB	074H
	DB	0b5H
	DB	074H
	DB	0b5H
	DB	07cH
	DB	0b5H
	DB	07cH
	DB	0b5H
	DB	074H
	DB	0b6H
	DB	074H
	DB	0d5H
	DB	07cH
	DB	0b4H
	DB	08cH
	DB	0b1H
	DB	0acH
	DB	04cH
	DB	09bH
	DB	0a6H
	DB	069H
	DB	0e7H
	DB	071H
	DB	065H
	DB	059H
	DB	0eH
	DB	0a4H
	DB	070H
	DB	0acH
	DB	088H
	DB	06aH
	DB	048H
	DB	05aH
	DB	028H
	DB	052H
	DB	0aaH
	DB	072H
	DB	0cdH
	DB	0a3H
	DB	0dH
	DB	0b4H
	DB	06fH
	DB	0c4H
	DB	0d0H
	DB	0ccH
	DB	08fH
	DB	0c4H
	DB	011H
	DB	0d5H
	DB	011H
	DB	0d5H
	DB	011H
	DB	0d5H
	DB	0b0H
	DB	0c4H
	DB	0f1H
	DB	0ccH
	DB	0f1H
	DB	0ccH
	DB	0afH
	DB	0c4H
	DB	0afH
	DB	0c4H
	DB	0d0H
	DB	0ccH
	DB	011H
	DB	0cdH
	DB	06fH
	DB	0c4H
	DB	06bH
	DB	09bH
	DB	06H
	DB	072H
	DB	047H
	DB	072H
	DB	0eaH
	DB	082H
	DB	069H
	DB	06aH
	DB	0e7H
	DB	059H
	DB	024H
	DB	039H
	DB	0e3H
	DB	030H
	DB	089H
	DB	062H
	DB	0ebH
	DB	072H
	DB	08dH
	DB	093H
	DB	02bH
	DB	08bH
	DB	0aH
	DB	08bH
	DB	0edH
	DB	0a3H
	DB	08fH
	DB	0bcH
	DB	0d0H
	DB	0c4H
	DB	02dH
	DB	0b4H
	DB	04aH
	DB	093H
	DB	0a7H
	DB	082H
	DB	09H
	DB	09bH
	DB	0dH
	DB	0b4H
	DB	0f1H
	DB	0d4H
	DB	093H
	DB	0e5H
	DB	0f5H
	DB	0e5H
	DB	036H
	DB	0eeH
	DB	035H
	DB	0eeH
	DB	036H
	DB	0eeH
	DB	0f4H
	DB	0e5H
	DB	073H
	DB	0d5H
	DB	052H
	DB	0ddH
	DB	032H
	DB	0d5H
	DB	052H
	DB	0ddH
	DB	032H
	DB	0d5H
	DB	0f1H
	DB	0ccH
	DB	0d1H
	DB	0ccH
	DB	0b0H
	DB	0c4H
	DB	08fH
	DB	0bcH
	DB	04fH
	DB	0b4H
	DB	06cH
	DB	093H
	DB	06cH
	DB	093H
	DB	04cH
	DB	08bH
	DB	08cH
	DB	093H
	DB	02bH
	DB	08bH
	DB	0bH
	DB	08bH
	DB	02bH
	DB	093H
	DB	06cH
	DB	09bH
	DB	0eeH
	DB	0a3H
	DB	0adH
	DB	0a3H
	DB	0acH
	DB	0a3H
	DB	04bH
	DB	09bH
	DB	0aH
	DB	093H
	DB	048H
	DB	07aH
	DB	07H
	DB	062H
	DB	07H
	DB	062H
	DB	08H
	DB	062H
	DB	028H
	DB	062H
	DB	028H
	DB	05aH
	DB	09H
	DB	04aH
	DB	0a8H
	DB	041H
	DB	0c4H
	DB	020H
	DB	05H
	DB	029H
	DB	0c7H
	DB	039H
	DB	069H
	DB	052H
	DB	0abH
	DB	05aH
	DB	093H
	DB	084H
	DB	0d6H
	DB	07cH
	DB	0d6H
	DB	07cH
	DB	0d6H
	DB	07cH
	DB	0d5H
	DB	07cH
	DB	0d6H
	DB	07cH
	DB	0d6H
	DB	07cH
	DB	0b5H
	DB	07cH
	DB	0d6H
	DB	07cH
	DB	0d5H
	DB	07cH
	DB	0b5H
	DB	07cH
	DB	0b5H
	DB	07cH
	DB	0d5H
	DB	07cH
	DB	0b5H
	DB	07cH
	DB	0b5H
	DB	07cH
	DB	0b5H
	DB	07cH
	DB	0b5H
	DB	07cH
	DB	0b5H
	DB	07cH
	DB	0b5H
	DB	07cH
	DB	0b5H
	DB	07cH
	DB	0b5H
	DB	07cH
	DB	0b5H
	DB	07cH
	DB	0b5H
	DB	07cH
	DB	0b5H
	DB	074H
	DB	0b5H
	DB	07cH
	DB	0b5H
	DB	07cH
	DB	0b5H
	DB	074H
	DB	0b5H
	DB	07cH
	DB	0b4H
	DB	07cH
	DB	0b5H
	DB	07cH
	DB	0b5H
	DB	07cH
	DB	0b5H
	DB	07cH
	DB	094H
	DB	074H
	DB	0b5H
	DB	07cH
	DB	053H
	DB	06cH
	DB	074H
	DB	074H
	DB	053H
	DB	06cH
	DB	073H
	DB	074H
	DB	054H
	DB	06cH
	DB	074H
	DB	074H
	DB	074H
	DB	074H
	DB	074H
	DB	074H
	DB	074H
	DB	074H
	DB	074H
	DB	074H
	DB	074H
	DB	074H
	DB	074H
	DB	074H
	DB	074H
	DB	074H
	DB	074H
	DB	074H
	DB	074H
	DB	074H
	DB	074H
	DB	074H
	DB	094H
	DB	074H
	DB	074H
	DB	074H
	DB	094H
	DB	074H
	DB	094H
	DB	074H
	DB	074H
	DB	074H
	DB	094H
	DB	074H
	DB	074H
	DB	074H
	DB	094H
	DB	074H
	DB	094H
	DB	07cH
	DB	094H
	DB	074H
	DB	094H
	DB	074H
	DB	0b5H
	DB	07cH
	DB	094H
	DB	074H
	DB	0b4H
	DB	074H
	DB	0b5H
	DB	074H
	DB	094H
	DB	074H
	DB	0b5H
	DB	07cH
	DB	0b5H
	DB	074H
	DB	0b5H
	DB	07cH
	DB	0b5H
	DB	074H
	DB	0b5H
	DB	07cH
	DB	0b5H
	DB	074H
	DB	0b5H
	DB	074H
	DB	0b5H
	DB	07cH
	DB	095H
	DB	074H
	DB	0b5H
	DB	07cH
	DB	0b5H
	DB	074H
	DB	0b5H
	DB	07cH
	DB	0b5H
	DB	07cH
	DB	0b5H
	DB	07cH
	DB	0b5H
	DB	07cH
	DB	0b5H
	DB	074H
	DB	0b5H
	DB	07cH
	DB	0b5H
	DB	07cH
	DB	0b5H
	DB	07cH
	DB	0b5H
	DB	07cH
	DB	0d5H
	DB	07cH
	DB	0b5H
	DB	07cH
	DB	0b4H
	DB	08cH
	DB	033H
	DB	0c5H
	DB	070H
	DB	0c4H
	DB	0a9H
	DB	08aH
	DB	0fH
	DB	0b4H
	DB	048H
	DB	072H
	DB	048H
	DB	072H
	DB	02fH
	DB	0a4H
	DB	0eaH
	DB	072H
	DB	069H
	DB	05aH
	DB	08H
	DB	052H
	DB	02bH
	DB	083H
	DB	0acH
	DB	09bH
	DB	0dH
	DB	0b4H
	DB	06fH
	DB	0c4H
	DB	0afH
	DB	0c4H
	DB	08fH
	DB	0c4H
	DB	0f1H
	DB	0d4H
	DB	011H
	DB	0d5H
	DB	0d0H
	DB	0d4H
	DB	031H
	DB	0d5H
	DB	031H
	DB	0d5H
	DB	011H
	DB	0cdH
	DB	0f0H
	DB	0ccH
	DB	0b0H
	DB	0c4H
	DB	0d0H
	DB	0ccH
	DB	06fH
	DB	0c4H
	DB	04aH
	DB	09bH
	DB	06H
	DB	072H
	DB	0e6H
	DB	069H
	DB	0a5H
	DB	059H
	DB	048H
	DB	06aH
	DB	030H
	DB	09cH
	DB	049H
	DB	052H
	DB	0c3H
	DB	020H
	DB	042H
	DB	010H
	DB	06eH
	DB	073H
	DB	0c3H
	DB	020H
	DB	024H
	DB	039H
	DB	069H
	DB	072H
	DB	0bH
	DB	083H
	DB	0a8H
	DB	07aH
	DB	067H
	DB	072H
	DB	08bH
	DB	09bH
	DB	0edH
	DB	0abH
	DB	0acH
	DB	0a3H
	DB	09H
	DB	093H
	DB	0c8H
	DB	08aH
	DB	0ccH
	DB	0abH
	DB	0f0H
	DB	0ccH
	DB	0b3H
	DB	0e5H
	DB	036H
	DB	0eeH
	DB	056H
	DB	0eeH
	DB	076H
	DB	0f6H
	DB	035H
	DB	0eeH
	DB	0b3H
	DB	0ddH
	DB	052H
	DB	0d5H
	DB	011H
	DB	0d5H
	DB	0b0H
	DB	0c4H
	DB	0d0H
	DB	0c4H
	DB	070H
	DB	0bcH
	DB	02fH
	DB	0b4H
	DB	0adH
	DB	0a3H
	DB	04bH
	DB	093H
	DB	0c9H
	DB	082H
	DB	0a9H
	DB	07aH
	DB	07H
	DB	062H
	DB	0e6H
	DB	059H
	DB	085H
	DB	051H
	DB	0a6H
	DB	051H
	DB	085H
	DB	051H
	DB	085H
	DB	051H
	DB	0e6H
	DB	061H
	DB	027H
	DB	06aH
	DB	0c9H
	DB	082H
	DB	0eaH
	DB	082H
	DB	0aH
	DB	08bH
	DB	02aH
	DB	093H
	DB	0eaH
	DB	08aH
	DB	047H
	DB	072H
	DB	0c6H
	DB	059H
	DB	0c7H
	DB	059H
	DB	0e7H
	DB	051H
	DB	08H
	DB	05aH
	DB	029H
	DB	052H
	DB	04aH
	DB	05aH
	DB	0c8H
	DB	041H
	DB	0e4H
	DB	018H
	DB	025H
	DB	029H
	DB	0e8H
	DB	041H
	DB	049H
	DB	052H
	DB	0cH
	DB	05bH
	DB	0b5H
	DB	084H
	DB	0f6H
	DB	07cH
	DB	0f6H
	DB	07cH
	DB	0d6H
	DB	07cH
	DB	0d5H
	DB	07cH
	DB	0d6H
	DB	07cH
	DB	0d5H
	DB	07cH
	DB	0d6H
	DB	07cH
	DB	0d5H
	DB	07cH
	DB	0b5H
	DB	07cH
	DB	0b5H
	DB	074H
	DB	0b5H
	DB	07cH
	DB	0d6H
	DB	07cH
	DB	0d5H
	DB	07cH
	DB	0b5H
	DB	07cH
	DB	0b5H
	DB	07cH
	DB	0d6H
	DB	07cH
	DB	0d5H
	DB	07cH
	DB	0b5H
	DB	074H
	DB	0d5H
	DB	07cH
	DB	0b5H
	DB	07cH
	DB	0b5H
	DB	074H
	DB	0b5H
	DB	07cH
	DB	0b5H
	DB	07cH
	DB	0b5H
	DB	074H
	DB	0b5H
	DB	07cH
	DB	0b5H
	DB	07cH
	DB	0b5H
	DB	07cH
	DB	0b5H
	DB	07cH
	DB	0b5H
	DB	07cH
	DB	0b5H
	DB	074H
	DB	094H
	DB	074H
	DB	0b5H
	DB	07cH
	DB	0b5H
	DB	07cH
	DB	053H
	DB	06cH
	DB	074H
	DB	074H
	DB	053H
	DB	06cH
	DB	054H
	DB	074H
	DB	074H
	DB	074H
	DB	073H
	DB	06cH
	DB	074H
	DB	074H
	DB	074H
	DB	074H
	DB	074H
	DB	074H
	DB	053H
	DB	06cH
	DB	073H
	DB	074H
	DB	074H
	DB	074H
	DB	094H
	DB	074H
	DB	074H
	DB	06cH
	DB	094H
	DB	074H
	DB	094H
	DB	074H
	DB	074H
	DB	074H
	DB	094H
	DB	074H
	DB	094H
	DB	074H
	DB	094H
	DB	074H
	DB	094H
	DB	074H
	DB	094H
	DB	074H
	DB	094H
	DB	074H
	DB	094H
	DB	074H
	DB	094H
	DB	074H
	DB	0b4H
	DB	074H
	DB	0b4H
	DB	07cH
	DB	0b4H
	DB	074H
	DB	094H
	DB	074H
	DB	094H
	DB	07cH
	DB	0b5H
	DB	074H
	DB	095H
	DB	07cH
	DB	0b5H
	DB	07cH
	DB	0b5H
	DB	074H
	DB	094H
	DB	074H
	DB	095H
	DB	074H
	DB	094H
	DB	074H
	DB	0b5H
	DB	07cH
	DB	0b5H
	DB	07cH
	DB	0b5H
	DB	07cH
	DB	0b5H
	DB	07cH
	DB	0b5H
	DB	07cH
	DB	0b5H
	DB	07cH
	DB	0b5H
	DB	07cH
	DB	0d5H
	DB	07cH
	DB	0b5H
	DB	074H
	DB	0b5H
	DB	07cH
	DB	0b5H
	DB	074H
	DB	0b5H
	DB	07cH
	DB	0b5H
	DB	07cH
	DB	0d5H
	DB	07cH
	DB	0b6H
	DB	07cH
	DB	0b5H
	DB	07cH
	DB	0b5H
	DB	07cH
	DB	093H
	DB	08cH
	DB	094H
	DB	0d5H
	DB	012H
	DB	0d5H
	DB	06cH
	DB	0abH
	DB	0f1H
	DB	0d4H
	DB	06bH
	DB	093H
	DB	0a5H
	DB	059H
	DB	04bH
	DB	093H
	DB	02bH
	DB	07bH
	DB	048H
	DB	052H
	DB	028H
	DB	05aH
	DB	06bH
	DB	093H
	DB	0dH
	DB	0b4H
	DB	06eH
	DB	0bcH
	DB	08fH
	DB	0c4H
	DB	0b0H
	DB	0ccH
	DB	0f1H
	DB	0d4H
	DB	031H
	DB	0ddH
	DB	011H
	DB	0ddH
	DB	011H
	DB	0d5H
	DB	052H
	DB	0ddH
	DB	052H
	DB	0ddH
	DB	032H
	DB	0d5H
	DB	011H
	DB	0d5H
	DB	0b0H
	DB	0c4H
	DB	04eH
	DB	0bcH
	DB	0ccH
	DB	0b3H
	DB	06bH
	DB	0abH
	DB	0c9H
	DB	092H
	DB	0eaH
	DB	092H
	DB	0caH
	DB	082H
	DB	030H
	DB	0a4H
	DB	0f7H
	DB	0cdH
	DB	0cbH
	DB	062H
	DB	087H
	DB	039H
	DB	04H
	DB	021H
	DB	0c3H
	DB	018H
	DB	0e3H
	DB	020H
	DB	0c7H
	DB	041H
	DB	091H
	DB	0a4H
	DB	089H
	DB	072H
	DB	0a9H
	DB	082H
	DB	0a8H
	DB	082H
	DB	0e5H
	DB	069H
	DB	0aH
	DB	093H
	DB	0abH
	DB	0a3H
	DB	08bH
	DB	09bH
	DB	029H
	DB	093H
	DB	0ccH
	DB	0abH
	DB	031H
	DB	0cdH
	DB	0f3H
	DB	0e5H
	DB	035H
	DB	0eeH
	DB	0b8H
	DB	0f6H
	DB	077H
	DB	0eeH
	DB	035H
	DB	0eeH
	DB	0b4H
	DB	0e5H
	DB	031H
	DB	0d5H
	DB	08fH
	DB	0bcH
	DB	02eH
	DB	0b4H
	DB	0edH
	DB	0b3H
	DB	08cH
	DB	0a3H
	DB	0eaH
	DB	08aH
	DB	047H
	DB	072H
	DB	0e6H
	DB	061H
	DB	084H
	DB	051H
	DB	03H
	DB	041H
	DB	0c2H
	DB	038H
	DB	0c2H
	DB	030H
	DB	0c3H
	DB	028H
	DB	0c2H
	DB	028H
	DB	0c2H
	DB	028H
	DB	0c2H
	DB	030H
	DB	065H
	DB	049H
	DB	044H
	DB	049H
	DB	085H
	DB	051H
	DB	0a5H
	DB	059H
	DB	088H
	DB	072H
	DB	0c9H
	DB	082H
	DB	088H
	DB	07aH
	DB	089H
	DB	07aH
	DB	07H
	DB	062H
	DB	0c7H
	DB	051H
	DB	0e7H
	DB	051H
	DB	08H
	DB	052H
	DB	06bH
	DB	05aH
	DB	04aH
	DB	052H
	DB	0c8H
	DB	039H
	DB	04H
	DB	021H
	DB	086H
	DB	031H
	DB	086H
	DB	039H
	DB	09H
	DB	04aH
	DB	0f1H
	DB	06bH
	DB	0f6H
	DB	07cH
	DB	0d6H
	DB	07cH
	DB	0d6H
	DB	07cH
	DB	0d5H
	DB	084H
	DB	0b5H
	DB	07cH
	DB	0d6H
	DB	07cH
	DB	0d5H
	DB	07cH
	DB	0d6H
	DB	07cH
	DB	0d6H
	DB	07cH
	DB	0d6H
	DB	07cH
	DB	0d5H
	DB	07cH
	DB	0d6H
	DB	07cH
	DB	0d6H
	DB	07cH
	DB	0d5H
	DB	07cH
	DB	0d5H
	DB	07cH
	DB	0d6H
	DB	07cH
	DB	0d5H
	DB	07cH
	DB	0d5H
	DB	07cH
	DB	0b5H
	DB	07cH
	DB	0b5H
	DB	07cH
	DB	0d6H
	DB	07cH
	DB	0b5H
	DB	07cH
	DB	0d5H
	DB	07cH
	DB	0b5H
	DB	07cH
	DB	0b5H
	DB	07cH
	DB	0b5H
	DB	074H
	DB	0b5H
	DB	07cH
	DB	0b5H
	DB	074H
	DB	0b5H
	DB	074H
	DB	0b5H
	DB	07cH
	DB	0b5H
	DB	07cH
	DB	0b5H
	DB	07cH
	DB	095H
	DB	074H
	DB	0b5H
	DB	07cH
	DB	054H
	DB	074H
	DB	073H
	DB	074H
	DB	074H
	DB	074H
	DB	074H
	DB	074H
	DB	074H
	DB	074H
	DB	074H
	DB	074H
	DB	074H
	DB	074H
	DB	074H
	DB	074H
	DB	073H
	DB	074H
	DB	074H
	DB	074H
	DB	074H
	DB	074H
	DB	074H
	DB	074H
	DB	094H
	DB	074H
	DB	074H
	DB	074H
	DB	094H
	DB	074H
	DB	094H
	DB	074H
	DB	094H
	DB	074H
	DB	094H
	DB	074H
	DB	094H
	DB	074H
	DB	094H
	DB	074H
	DB	094H
	DB	074H
	DB	094H
	DB	074H
	DB	094H
	DB	074H
	DB	094H
	DB	074H
	DB	095H
	DB	074H
	DB	0b5H
	DB	07cH
	DB	0b4H
	DB	074H
	DB	095H
	DB	074H
	DB	094H
	DB	07cH
	DB	0b4H
	DB	074H
	DB	0b5H
	DB	07cH
	DB	0b5H
	DB	07cH
	DB	0b5H
	DB	07cH
	DB	0b5H
	DB	07cH
	DB	0b5H
	DB	07cH
	DB	0b5H
	DB	07cH
	DB	0b5H
	DB	074H
	DB	0b5H
	DB	07cH
	DB	0b5H
	DB	07cH
	DB	0b5H
	DB	074H
	DB	0d5H
	DB	07cH
	DB	0b5H
	DB	07cH
	DB	0d5H
	DB	07cH
	DB	0d5H
	DB	07cH
	DB	0b5H
	DB	074H
	DB	0b5H
	DB	07cH
	DB	0d5H
	DB	07cH
	DB	0d5H
	DB	07cH
	DB	0b5H
	DB	07cH
	DB	0d5H
	DB	07cH
	DB	0d5H
	DB	07cH
	DB	0d6H
	DB	07cH
	DB	0d5H
	DB	07cH
	DB	0b6H
	DB	07cH
	DB	0b3H
	DB	094H
	DB	0b5H
	DB	0ddH
	DB	033H
	DB	0d5H
	DB	0cdH
	DB	0b3H
	DB	090H
	DB	0ccH
	DB	090H
	DB	0c4H
	DB	04bH
	DB	09bH
	DB	027H
	DB	072H
	DB	0eaH
	DB	07aH
	DB	089H
	DB	062H
	DB	069H
	DB	062H
	DB	08cH
	DB	09bH
	DB	0ccH
	DB	0abH
	DB	0dH
	DB	0b4H
	DB	08fH
	DB	0c4H
	DB	0b0H
	DB	0ccH
	DB	0d0H
	DB	0ccH
	DB	031H
	DB	0ddH
	DB	031H
	DB	0ddH
	DB	052H
	DB	0ddH
	DB	093H
	DB	0e5H
	DB	073H
	DB	0ddH
	DB	032H
	DB	0ddH
	DB	011H
	DB	0d5H
	DB	0d0H
	DB	0ccH
	DB	0d0H
	DB	0ccH
	DB	06fH
	DB	0c4H
	DB	02eH
	DB	0bcH
	DB	0cdH
	DB	0b3H
	DB	08dH
	DB	0abH
	DB	0d2H
	DB	0ccH
	DB	075H
	DB	0ddH
	DB	018H
	DB	0deH
	DB	071H
	DB	09cH
	DB	049H
	DB	052H
	DB	08H
	DB	04aH
	DB	09H
	DB	042H
	DB	08H
	DB	042H
	DB	0ceH
	DB	083H
	DB	038H
	DB	0d6H
	DB	0d2H
	DB	0bcH
	DB	0a9H
	DB	082H
	DB	0c9H
	DB	08aH
	DB	0a8H
	DB	08aH
	DB	067H
	DB	082H
	DB	04aH
	DB	09bH
	DB	0ccH
	DB	0abH
	DB	0edH
	DB	0abH
	DB	02dH
	DB	0b4H
	DB	071H
	DB	0d5H
	DB	014H
	DB	0e6H
	DB	097H
	DB	0f6H
	DB	0d9H
	DB	0f6H
	DB	0b8H
	DB	0f6H
	DB	076H
	DB	0f6H
	DB	0b3H
	DB	0e5H
	DB	0f0H
	DB	0c4H
	DB	02dH
	DB	0acH
	DB	0acH
	DB	09bH
	DB	0e9H
	DB	08aH
	DB	027H
	DB	072H
	DB	084H
	DB	059H
	DB	044H
	DB	051H
	DB	023H
	DB	051H
	DB	024H
	DB	051H
	DB	024H
	DB	049H
	DB	044H
	DB	049H
	DB	024H
	DB	049H
	DB	0e3H
	DB	038H
	DB	0c2H
	DB	030H
	DB	082H
	DB	028H
	DB	082H
	DB	028H
	DB	0c3H
	DB	038H
	DB	04H
	DB	039H
	DB	045H
	DB	039H
	DB	085H
	DB	049H
	DB	0a5H
	DB	051H
	DB	07H
	DB	06aH
	DB	027H
	DB	06aH
	DB	028H
	DB	062H
	DB	08H
	DB	062H
	DB	0c7H
	DB	051H
	DB	0e8H
	DB	051H
	DB	09H
	DB	052H
	DB	08bH
	DB	05aH
	DB	04aH
	DB	052H
	DB	046H
	DB	031H
	DB	025H
	DB	029H
	DB	086H
	DB	031H
	DB	0c8H
	DB	041H
	DB	02eH
	DB	063H
	DB	0b4H
	DB	084H
	DB	0f5H
	DB	07cH
	DB	0f6H
	DB	07cH
	DB	0d6H
	DB	07cH
	DB	0d5H
	DB	07cH
	DB	0d6H
	DB	084H
	DB	0f6H
	DB	084H
	DB	0d5H
	DB	07cH
	DB	0d6H
	DB	084H
	DB	0d6H
	DB	07cH
	DB	0d5H
	DB	07cH
	DB	0d6H
	DB	07cH
	DB	0d6H
	DB	07cH
	DB	0d5H
	DB	07cH
	DB	0d5H
	DB	07cH
	DB	0d6H
	DB	07cH
	DB	0d5H
	DB	07cH
	DB	0d5H
	DB	07cH
	DB	0d6H
	DB	07cH
	DB	0d5H
	DB	07cH
	DB	0d6H
	DB	07cH
	DB	0d5H
	DB	07cH
	DB	0d5H
	DB	07cH
	DB	0d6H
	DB	07cH
	DB	0b5H
	DB	07cH
	DB	0d6H
	DB	07cH
	DB	0b5H
	DB	07cH
	DB	0b5H
	DB	07cH
	DB	0b5H
	DB	07cH
	DB	0b5H
	DB	07cH
	DB	0b5H
	DB	074H
	DB	0b5H
	DB	07cH
	DB	0b5H
	DB	07cH
	DB	0b5H
	DB	074H
	DB	0b5H
	DB	074H
	DB	053H
	DB	074H
	DB	074H
	DB	074H
	DB	074H
	DB	074H
	DB	073H
	DB	074H
	DB	094H
	DB	074H
	DB	074H
	DB	074H
	DB	074H
	DB	074H
	DB	074H
	DB	074H
	DB	074H
	DB	074H
	DB	094H
	DB	074H
	DB	094H
	DB	074H
	DB	094H
	DB	074H
	DB	094H
	DB	074H
	DB	094H
	DB	074H
	DB	094H
	DB	074H
	DB	074H
	DB	074H
	DB	094H
	DB	074H
	DB	094H
	DB	074H
	DB	094H
	DB	074H
	DB	094H
	DB	074H
	DB	095H
	DB	074H
	DB	095H
	DB	07cH
	DB	094H
	DB	074H
	DB	095H
	DB	074H
	DB	0b5H
	DB	07cH
	DB	094H
	DB	074H
	DB	095H
	DB	074H
	DB	0b5H
	DB	07cH
	DB	0b5H
	DB	074H
	DB	0b5H
	DB	07cH
	DB	0b5H
	DB	07cH
	DB	095H
	DB	074H
	DB	0b5H
	DB	074H
	DB	0b5H
	DB	07cH
	DB	0b5H
	DB	07cH
	DB	0b5H
	DB	074H
	DB	0b5H
	DB	07cH
	DB	0b5H
	DB	07cH
	DB	0b5H
	DB	074H
	DB	0b5H
	DB	07cH
	DB	0d5H
	DB	07cH
	DB	0d5H
	DB	07cH
	DB	0b5H
	DB	07cH
	DB	0b5H
	DB	074H
	DB	0d5H
	DB	07cH
	DB	0d6H
	DB	07cH
	DB	0d6H
	DB	07cH
	DB	0d5H
	DB	07cH
	DB	0d6H
	DB	07cH
	DB	0d5H
	DB	07cH
	DB	0d5H
	DB	07cH
	DB	0d6H
	DB	07cH
	DB	0f5H
	DB	084H
	DB	0b6H
	DB	084H
	DB	0b4H
	DB	094H
	DB	0f6H
	DB	0e5H
	DB	0f2H
	DB	0d4H
	DB	0eeH
	DB	0bbH
	DB	0b0H
	DB	0ccH
	DB	06fH
	DB	0c4H
	DB	0e9H
	DB	092H
	DB	023H
	DB	059H
	DB	0caH
	DB	072H
	DB	069H
	DB	05aH
	DB	0eaH
	DB	07aH
	DB	08cH
	DB	0a3H
	DB	0edH
	DB	0b3H
	DB	02eH
	DB	0b4H
	DB	06fH
	DB	0c4H
	DB	06fH
	DB	0c4H
	DB	0b0H
	DB	0ccH
	DB	031H
	DB	0ddH
	DB	011H
	DB	0ddH
	DB	051H
	DB	0e5H
	DB	072H
	DB	0e5H
	DB	073H
	DB	0e5H
	DB	073H
	DB	0ddH
	DB	093H
	DB	0e5H
	DB	094H
	DB	0e5H
	DB	0b3H
	DB	0e5H
	DB	093H
	DB	0e5H
	DB	073H
	DB	0ddH
	DB	0d0H
	DB	0ccH
	DB	0eH
	DB	0bcH
	DB	0d1H
	DB	0ccH
	DB	095H
	DB	0e5H
	DB	017H
	DB	0e6H
	DB	0f7H
	DB	0ddH
	DB	030H
	DB	09cH
	DB	0cbH
	DB	06aH
	DB	02dH
	DB	073H
	DB	031H
	DB	094H
	DB	0f7H
	DB	0cdH
	DB	058H
	DB	0deH
	DB	0b5H
	DB	0ddH
	DB	0eH
	DB	0b4H
	DB	088H
	DB	082H
	DB	06bH
	DB	0a3H
	DB	0aH
	DB	093H
	DB	0aH
	DB	093H
	DB	0acH
	DB	0a3H
	DB	02dH
	DB	0b4H
	DB	0f0H
	DB	0c4H
	DB	0b3H
	DB	0ddH
	DB	035H
	DB	0eeH
	DB	0b7H
	DB	0f6H
	DB	01aH
	DB	0ffH
	DB	0d8H
	DB	0f6H
	DB	076H
	DB	0eeH
	DB	093H
	DB	0ddH
	DB	06fH
	DB	0b4H
	DB	0acH
	DB	09bH
	DB	0a8H
	DB	07aH
	DB	0a5H
	DB	059H
	DB	043H
	DB	051H
	DB	044H
	DB	051H
	DB	0a6H
	DB	061H
	DB	069H
	DB	07aH
	DB	02bH
	DB	093H
	DB	0adH
	DB	09bH
	DB	0ceH
	DB	0a3H
	DB	08cH
	DB	09bH
	DB	0c9H
	DB	07aH
	DB	068H
	DB	072H
	DB	0e7H
	DB	061H
	DB	085H
	DB	051H
	DB	044H
	DB	049H
	DB	04H
	DB	041H
	DB	0e3H
	DB	038H
	DB	044H
	DB	041H
	DB	065H
	DB	049H
	DB	085H
	DB	051H
	DB	0c7H
	DB	051H
	DB	08H
	DB	05aH
	DB	06aH
	DB	062H
	DB	0e8H
	DB	049H
	DB	0e8H
	DB	049H
	DB	09H
	DB	052H
	DB	08bH
	DB	05aH
	DB	06aH
	DB	052H
	DB	0c4H
	DB	020H
	DB	046H
	DB	031H
	DB	065H
	DB	029H
	DB	0abH
	DB	052H
	DB	073H
	DB	084H
	DB	0d5H
	DB	084H
	DB	0f6H
	DB	084H
	DB	0f6H
	DB	07cH
	DB	0f6H
	DB	084H
	DB	0d6H
	DB	07cH
	DB	0f6H
	DB	084H
	DB	0f6H
	DB	07cH
	DB	0f6H
	DB	084H
	DB	0f6H
	DB	084H
	DB	0d6H
	DB	07cH
	DB	0f6H
	DB	084H
	DB	0f6H
	DB	084H
	DB	0d6H
	DB	07cH
	DB	0d6H
	DB	07cH
	DB	0d5H
	DB	07cH
	DB	0d6H
	DB	07cH
	DB	0d5H
	DB	07cH
	DB	0d6H
	DB	07cH
	DB	0d6H
	DB	07cH
	DB	0d6H
	DB	07cH
	DB	0d6H
	DB	07cH
	DB	0d5H
	DB	07cH
	DB	0d5H
	DB	07cH
	DB	0d5H
	DB	07cH
	DB	0b5H
	DB	07cH
	DB	0d5H
	DB	07cH
	DB	0d5H
	DB	07cH
	DB	0d5H
	DB	07cH
	DB	0d5H
	DB	07cH
	DB	0d5H
	DB	07cH
	DB	0b5H
	DB	07cH
	DB	0d5H
	DB	07cH
	DB	0b5H
	DB	07cH
	DB	0b5H
	DB	074H
	DB	0b5H
	DB	07cH
	DB	074H
	DB	074H
	DB	074H
	DB	074H
	DB	074H
	DB	074H
	DB	074H
	DB	074H
	DB	074H
	DB	074H
	DB	074H
	DB	074H
	DB	094H
	DB	074H
	DB	094H
	DB	074H
	DB	094H
	DB	074H
	DB	094H
	DB	074H
	DB	094H
	DB	074H
	DB	094H
	DB	074H
	DB	094H
	DB	074H
	DB	094H
	DB	074H
	DB	094H
	DB	074H
	DB	094H
	DB	074H
	DB	094H
	DB	074H
	DB	094H
	DB	074H
	DB	095H
	DB	074H
	DB	095H
	DB	074H
	DB	0b5H
	DB	07cH
	DB	0b4H
	DB	074H
	DB	0b5H
	DB	07cH
	DB	0b5H
	DB	07cH
	DB	0b5H
	DB	07cH
	DB	094H
	DB	074H
	DB	0b5H
	DB	07cH
	DB	0b5H
	DB	07cH
	DB	0b5H
	DB	07cH
	DB	0b5H
	DB	074H
	DB	0b5H
	DB	07cH
	DB	0b5H
	DB	074H
	DB	0b5H
	DB	074H
	DB	0d5H
	DB	07cH
	DB	0b5H
	DB	07cH
	DB	0b5H
	DB	07cH
	DB	0d5H
	DB	07cH
	DB	0b5H
	DB	07cH
	DB	0b5H
	DB	07cH
	DB	0d5H
	DB	07cH
	DB	0d6H
	DB	07cH
	DB	0b5H
	DB	07cH
	DB	0d6H
	DB	07cH
	DB	0d5H
	DB	07cH
	DB	0d6H
	DB	07cH
	DB	0d6H
	DB	07cH
	DB	0d5H
	DB	07cH
	DB	0d5H
	DB	07cH
	DB	0d6H
	DB	07cH
	DB	0d6H
	DB	07cH
	DB	0d5H
	DB	07cH
	DB	0d6H
	DB	07cH
	DB	0d5H
	DB	07cH
	DB	0d6H
	DB	084H
	DB	0d4H
	DB	094H
	DB	0f6H
	DB	0edH
	DB	0d1H
	DB	0ccH
	DB	06fH
	DB	0c4H
	DB	032H
	DB	0ddH
	DB	012H
	DB	0d5H
	DB	08cH
	DB	0abH
	DB	0e3H
	DB	050H
	DB	068H
	DB	06aH
	DB	028H
	DB	05aH
	DB	06cH
	DB	08bH
	DB	0acH
	DB	0a3H
	DB	0eH
	DB	0bcH
	DB	04eH
	DB	0bcH
	DB	06fH
	DB	0c4H
	DB	04eH
	DB	0c4H
	DB	0afH
	DB	0ccH
	DB	0f0H
	DB	0d4H
	DB	011H
	DB	0ddH
	DB	072H
	DB	0e5H
	DB	093H
	DB	0edH
	DB	0b4H
	DB	0edH
	DB	0b4H
	DB	0edH
	DB	0b4H
	DB	0edH
	DB	0d5H
	DB	0edH
	DB	0f5H
	DB	0edH
	DB	015H
	DB	0eeH
	DB	016H
	DB	0f6H
	DB	0b4H
	DB	0e5H
	DB	0d1H
	DB	0ccH
	DB	091H
	DB	0ccH
	DB	0d2H
	DB	0d4H
	DB	074H
	DB	0ddH
	DB	0d6H
	DB	0ddH
	DB	017H
	DB	0e6H
	DB	017H
	DB	0deH
	DB	0b6H
	DB	0d5H
	DB	038H
	DB	0deH
	DB	058H
	DB	0e6H
	DB	058H
	DB	0e6H
	DB	0d6H
	DB	0e5H
	DB	0d1H
	DB	0ccH
	DB	0edH
	DB	0abH
	DB	0ceH
	DB	0abH
	DB	02eH
	DB	0b4H
	DB	0edH
	DB	0abH
	DB	02eH
	DB	0b4H
	DB	08fH
	DB	0bcH
	DB	032H
	DB	0d5H
	DB	0d3H
	DB	0ddH
	DB	055H
	DB	0eeH
	DB	0b7H
	DB	0f6H
	DB	03aH
	DB	0ffH
	DB	0f9H
	DB	0feH
	DB	076H
	DB	0f6H
	DB	0b3H
	DB	0ddH
	DB	04eH
	DB	0b4H
	DB	09H
	DB	083H
	DB	084H
	DB	051H
	DB	023H
	DB	049H
	DB	0a5H
	DB	059H
	DB	088H
	DB	07aH
	DB	0eeH
	DB	0a3H
	DB	0f2H
	DB	0c4H
	DB	032H
	DB	0cdH
	DB	073H
	DB	0d5H
	DB	0b4H
	DB	0ddH
	DB	073H
	DB	0d5H
	DB	0f1H
	DB	0c4H
	DB	06fH
	DB	0bcH
	DB	0cdH
	DB	0a3H
	DB	04bH
	DB	09bH
	DB	088H
	DB	082H
	DB	07H
	DB	06aH
	DB	085H
	DB	051H
	DB	064H
	DB	049H
	DB	044H
	DB	041H
	DB	024H
	DB	039H
	DB	044H
	DB	041H
	DB	065H
	DB	041H
	DB	049H
	DB	05aH
	DB	029H
	DB	052H
	DB	0e8H
	DB	049H
	DB	09H
	DB	052H
	DB	0dH
	DB	06bH
	DB	04aH
	DB	052H
	DB	0e5H
	DB	020H
	DB	045H
	DB	031H
	DB	087H
	DB	031H
	DB	0d0H
	DB	06bH
	DB	0f5H
	DB	084H
	DB	0f6H
	DB	084H
	DB	0f6H
	DB	084H
	DB	0f6H
	DB	07cH
	DB	0f6H
	DB	07cH
	DB	0f6H
	DB	084H
	DB	0f6H
	DB	084H
	DB	0f6H
	DB	07cH
	DB	0f6H
	DB	084H
	DB	0f6H
	DB	07cH
	DB	0f6H
	DB	07cH
	DB	0f6H
	DB	084H
	DB	0f5H
	DB	07cH
	DB	0f6H
	DB	07cH
	DB	0d5H
	DB	07cH
	DB	0d6H
	DB	084H
	DB	0d6H
	DB	07cH
	DB	0d6H
	DB	07cH
	DB	0d6H
	DB	07cH
	DB	0d5H
	DB	07cH
	DB	0d6H
	DB	07cH
	DB	0d5H
	DB	07cH
	DB	0d6H
	DB	07cH
	DB	0d6H
	DB	07cH
	DB	0d6H
	DB	07cH
	DB	0d6H
	DB	07cH
	DB	0d6H
	DB	07cH
	DB	0d6H
	DB	07cH
	DB	0d6H
	DB	07cH
	DB	0d6H
	DB	07cH
	DB	0d6H
	DB	07cH
	DB	0d5H
	DB	07cH
	DB	0b5H
	DB	07cH
	DB	0d6H
	DB	07cH
	DB	0b5H
	DB	07cH
	DB	0b5H
	DB	07cH
	DB	074H
	DB	074H
	DB	074H
	DB	074H
	DB	073H
	DB	074H
	DB	094H
	DB	074H
	DB	094H
	DB	074H
	DB	094H
	DB	074H
	DB	094H
	DB	074H
	DB	094H
	DB	074H
	DB	094H
	DB	074H
	DB	094H
	DB	07cH
	DB	074H
	DB	074H
	DB	074H
	DB	074H
	DB	094H
	DB	074H
	DB	094H
	DB	074H
	DB	094H
	DB	074H
	DB	095H
	DB	074H
	DB	094H
	DB	074H
	DB	0b5H
	DB	07cH
	DB	0b5H
	DB	07cH
	DB	094H
	DB	074H
	DB	0b5H
	DB	07cH
	DB	0b5H
	DB	074H
	DB	0b5H
	DB	07cH
	DB	0b4H
	DB	07cH
	DB	0b5H
	DB	074H
	DB	0b5H
	DB	07cH
	DB	0b5H
	DB	074H
	DB	0b5H
	DB	074H
	DB	0b5H
	DB	07cH
	DB	0b5H
	DB	07cH
	DB	0b5H
	DB	074H
	DB	0b5H
	DB	07cH
	DB	0b5H
	DB	07cH
	DB	0b5H
	DB	07cH
	DB	0d5H
	DB	07cH
	DB	0b5H
	DB	07cH
	DB	0d5H
	DB	07cH
	DB	0d6H
	DB	07cH
	DB	0b5H
	DB	07cH
	DB	0d5H
	DB	07cH
	DB	0b5H
	DB	07cH
	DB	0b5H
	DB	074H
	DB	0d6H
	DB	07cH
	DB	0d6H
	DB	07cH
	DB	0d6H
	DB	07cH
	DB	0d5H
	DB	07cH
	DB	0d6H
	DB	07cH
	DB	0f6H
	DB	084H
	DB	0d5H
	DB	07cH
	DB	0d6H
	DB	07cH
	DB	0d6H
	DB	07cH
	DB	0d6H
	DB	07cH
	DB	0d5H
	DB	07cH
	DB	0d6H
	DB	084H
	DB	0d4H
	DB	094H
	DB	0b5H
	DB	0e5H
	DB	0b0H
	DB	0c4H
	DB	0f1H
	DB	0d4H
	DB	0d5H
	DB	0edH
	DB	0d5H
	DB	0e5H
	DB	090H
	DB	0c4H
	DB	0c6H
	DB	069H
	DB	08H
	DB	06aH
	DB	089H
	DB	062H
	DB	06cH
	DB	08bH
	DB	08cH
	DB	0a3H
	DB	0ccH
	DB	0b3H
	DB	02eH
	DB	0bcH
	DB	04eH
	DB	0c4H
	DB	08fH
	DB	0ccH
	DB	0f0H
	DB	0d4H
	DB	011H
	DB	0ddH
	DB	032H
	DB	0e5H
	DB	072H
	DB	0edH
	DB	0b3H
	DB	0edH
	DB	0b4H
	DB	0edH
	DB	0d4H
	DB	0f5H
	DB	0d5H
	DB	0edH
	DB	0d5H
	DB	0edH
	DB	0f5H
	DB	0edH
	DB	036H
	DB	0f6H
	DB	057H
	DB	0f6H
	DB	016H
	DB	0eeH
	DB	0b4H
	DB	0e5H
	DB	033H
	DB	0ddH
	DB	012H
	DB	0d5H
	DB	012H
	DB	0d5H
	DB	013H
	DB	0d5H
	DB	054H
	DB	0d5H
	DB	033H
	DB	0cdH
	DB	095H
	DB	0d5H
	DB	095H
	DB	0ddH
	DB	0d6H
	DB	0e5H
	DB	0d5H
	DB	0ddH
	DB	054H
	DB	0ddH
	DB	012H
	DB	0d5H
	DB	074H
	DB	0ddH
	DB	074H
	DB	0d5H
	DB	0f6H
	DB	0e5H
	DB	093H
	DB	0ddH
	DB	011H
	DB	0cdH
	DB	011H
	DB	0cdH
	DB	072H
	DB	0ddH
	DB	0b3H
	DB	0e5H
	DB	015H
	DB	0eeH
	DB	097H
	DB	0f6H
	DB	01aH
	DB	0ffH
	DB	0d9H
	DB	0feH
	DB	056H
	DB	0f6H
	DB	093H
	DB	0ddH
	DB	02eH
	DB	0acH
	DB	047H
	DB	06aH
	DB	023H
	DB	049H
	DB	0e5H
	DB	061H
	DB	0a8H
	DB	07aH
	DB	0cdH
	DB	0a3H
	DB	04eH
	DB	0b4H
	DB	0dH
	DB	0a4H
	DB	0edH
	DB	0a3H
	DB	04fH
	DB	0acH
	DB	0d1H
	DB	0bcH
	DB	032H
	DB	0cdH
	DB	094H
	DB	0d5H
	DB	011H
	DB	0c5H
	DB	0b0H
	DB	0c4H
	DB	04fH
	DB	0bcH
	DB	0eH
	DB	0acH
	DB	06bH
	DB	09bH
	DB	088H
	DB	07aH
	DB	0e7H
	DB	061H
	DB	085H
	DB	049H
	DB	04H
	DB	039H
	DB	025H
	DB	039H
	DB	045H
	DB	039H
	DB	09H
	DB	04aH
	DB	04aH
	DB	052H
	DB	0e8H
	DB	049H
	DB	09H
	DB	04aH
	DB	0eH
	DB	073H
	DB	0e9H
	DB	049H
	DB	025H
	DB	029H
	DB	025H
	DB	031H
	DB	09H
	DB	042H
	DB	073H
	DB	07cH
	DB	0f6H
	DB	07cH
	DB	0f6H
	DB	07cH
	DB	0f6H
	DB	084H
	DB	016H
	DB	085H
	DB	0f6H
	DB	07cH
	DB	0f6H
	DB	07cH
	DB	0f6H
	DB	07cH
	DB	0f6H
	DB	084H
	DB	0f6H
	DB	07cH
	DB	0f6H
	DB	07cH
	DB	0f6H
	DB	084H
	DB	0f6H
	DB	084H
	DB	0f6H
	DB	084H
	DB	0f6H
	DB	07cH
	DB	0d6H
	DB	084H
	DB	0f6H
	DB	084H
	DB	0f6H
	DB	084H
	DB	0f6H
	DB	07cH
	DB	0f6H
	DB	07cH
	DB	0d5H
	DB	07cH
	DB	0d6H
	DB	07cH
	DB	0f6H
	DB	084H
	DB	0d6H
	DB	07cH
	DB	0d6H
	DB	07cH
	DB	0f6H
	DB	07cH
	DB	0d6H
	DB	07cH
	DB	0d5H
	DB	07cH
	DB	0d6H
	DB	07cH
	DB	0d6H
	DB	07cH
	DB	0d6H
	DB	07cH
	DB	0d5H
	DB	07cH
	DB	0d5H
	DB	07cH
	DB	0d6H
	DB	07cH
	DB	0d5H
	DB	07cH
	DB	0d5H
	DB	07cH
	DB	0b5H
	DB	074H
	DB	074H
	DB	074H
	DB	094H
	DB	074H
	DB	094H
	DB	074H
	DB	094H
	DB	074H
	DB	094H
	DB	074H
	DB	094H
	DB	074H
	DB	094H
	DB	074H
	DB	074H
	DB	074H
	DB	094H
	DB	07cH
	DB	094H
	DB	074H
	DB	095H
	DB	07cH
	DB	094H
	DB	07cH
	DB	095H
	DB	074H
	DB	095H
	DB	074H
	DB	094H
	DB	07cH
	DB	095H
	DB	074H
	DB	0b5H
	DB	074H
	DB	0b5H
	DB	07cH
	DB	0b5H
	DB	07cH
	DB	0b5H
	DB	074H
	DB	0b5H
	DB	07cH
	DB	0b5H
	DB	074H
	DB	0b4H
	DB	07cH
	DB	0b5H
	DB	07cH
	DB	0b5H
	DB	07cH
	DB	0b5H
	DB	07cH
	DB	0b5H
	DB	07cH
	DB	0b5H
	DB	074H
	DB	0b5H
	DB	074H
	DB	0b5H
	DB	07cH
	DB	0b5H
	DB	07cH
	DB	0b5H
	DB	07cH
	DB	0d5H
	DB	07cH
	DB	0d5H
	DB	07cH
	DB	0d5H
	DB	07cH
	DB	0d6H
	DB	07cH
	DB	0d5H
	DB	07cH
	DB	0d5H
	DB	07cH
	DB	0b6H
	DB	07cH
	DB	0d6H
	DB	07cH
	DB	0d6H
	DB	07cH
	DB	0d6H
	DB	07cH
	DB	0d6H
	DB	07cH
	DB	0d5H
	DB	07cH
	DB	0d6H
	DB	084H
	DB	0d5H
	DB	07cH
	DB	0d6H
	DB	07cH
	DB	0d6H
	DB	07cH
	DB	0d5H
	DB	07cH
	DB	0d5H
	DB	084H
	DB	0d6H
	DB	084H
	DB	0d6H
	DB	07cH
	DB	0f6H
	DB	084H
	DB	0d6H
	DB	07cH
	DB	0d4H
	DB	094H
	DB	033H
	DB	0d5H
	DB	02fH
	DB	0bcH
	DB	033H
	DB	0ddH
	DB	016H
	DB	0f6H
	DB	016H
	DB	0f6H
	DB	013H
	DB	0d5H
	DB	0bH
	DB	093H
	DB	069H
	DB	072H
	DB	089H
	DB	06aH
	DB	0aH
	DB	083H
	DB	04bH
	DB	09bH
	DB	08cH
	DB	0abH
	DB	02eH
	DB	0bcH
	DB	06fH
	DB	0c4H
	DB	090H
	DB	0ccH
	DB	0d0H
	DB	0d4H
	DB	032H
	DB	0e5H
	DB	093H
	DB	0edH
	DB	0b4H
	DB	0f5H
	DB	0b3H
	DB	0edH
	DB	0d4H
	DB	0f5H
	DB	0f5H
	DB	0f5H
	DB	0f5H
	DB	0edH
	DB	0f5H
	DB	0edH
	DB	0f5H
	DB	0edH
	DB	016H
	DB	0eeH
	DB	036H
	DB	0f6H
	DB	036H
	DB	0eeH
	DB	015H
	DB	0eeH
	DB	0d4H
	DB	0e5H
	DB	073H
	DB	0ddH
	DB	053H
	DB	0ddH
	DB	053H
	DB	0ddH
	DB	094H
	DB	0ddH
	DB	074H
	DB	0ddH
	DB	094H
	DB	0ddH
	DB	074H
	DB	0ddH
	DB	094H
	DB	0e5H
	DB	053H
	DB	0ddH
	DB	032H
	DB	0d5H
	DB	053H
	DB	0ddH
	DB	0d5H
	DB	0e5H
	DB	037H
	DB	0eeH
	DB	0d9H
	DB	0feH
	DB	077H
	DB	0f6H
	DB	093H
	DB	0ddH
	DB	052H
	DB	0d5H
	DB	093H
	DB	0ddH
	DB	0d4H
	DB	0e5H
	DB	015H
	DB	0eeH
	DB	098H
	DB	0f6H
	DB	0faH
	DB	0feH
	DB	098H
	DB	0f6H
	DB	015H
	DB	0eeH
	DB	052H
	DB	0d5H
	DB	08cH
	DB	09bH
	DB	0a5H
	DB	059H
	DB	0c5H
	DB	061H
	DB	0a9H
	DB	082H
	DB	0e9H
	DB	08aH
	DB	0a8H
	DB	082H
	DB	0a8H
	DB	082H
	DB	0c9H
	DB	082H
	DB	04bH
	DB	08bH
	DB	0ceH
	DB	09bH
	DB	02fH
	DB	0a4H
	DB	0b1H
	DB	0b4H
	DB	0eeH
	DB	09bH
	DB	0eH
	DB	0a4H
	DB	070H
	DB	0b4H
	DB	090H
	DB	0bcH
	DB	02eH
	DB	0b4H
	DB	0acH
	DB	0a3H
	DB	088H
	DB	07aH
	DB	0a5H
	DB	051H
	DB	045H
	DB	049H
	DB	024H
	DB	039H
	DB	04H
	DB	031H
	DB	066H
	DB	039H
	DB	049H
	DB	052H
	DB	04aH
	DB	052H
	DB	029H
	DB	052H
	DB	09H
	DB	04aH
	DB	0dH
	DB	06bH
	DB	0a8H
	DB	039H
	DB	087H
	DB	031H
	DB	066H
	DB	031H
	DB	0cH
	DB	05bH
	DB	0d4H
	DB	084H
	DB	0f6H
	DB	07cH
	DB	017H
	DB	085H
	DB	0f6H
	DB	084H
	DB	0f6H
	DB	07cH
	DB	0f6H
	DB	07cH
	DB	016H
	DB	085H
	DB	016H
	DB	085H
	DB	016H
	DB	085H
	DB	0f6H
	DB	07cH
	DB	0f6H
	DB	07cH
	DB	0f6H
	DB	07cH
	DB	0f6H
	DB	084H
	DB	0f6H
	DB	084H
	DB	0d6H
	DB	07cH
	DB	0f6H
	DB	084H
	DB	0f6H
	DB	07cH
	DB	0f6H
	DB	07cH
	DB	0f6H
	DB	084H
	DB	0d5H
	DB	07cH
	DB	0f6H
	DB	084H
	DB	0f6H
	DB	084H
	DB	0f6H
	DB	084H
	DB	0f6H
	DB	084H
	DB	0f5H
	DB	07cH
	DB	0f6H
	DB	084H
	DB	0d5H
	DB	07cH
	DB	0d6H
	DB	07cH
	DB	0f6H
	DB	084H
	DB	0d5H
	DB	07cH
	DB	0f6H
	DB	07cH
	DB	0d6H
	DB	07cH
	DB	0d5H
	DB	07cH
	DB	0d6H
	DB	07cH
	DB	0d6H
	DB	07cH
	DB	0d5H
	DB	07cH
	DB	0b5H
	DB	07cH
	DB	074H
	DB	074H
	DB	094H
	DB	074H
	DB	094H
	DB	074H
	DB	074H
	DB	074H
	DB	074H
	DB	074H
	DB	094H
	DB	074H
	DB	094H
	DB	07cH
	DB	094H
	DB	07cH
	DB	094H
	DB	074H
	DB	094H
	DB	074H
	DB	094H
	DB	07cH
	DB	0b5H
	DB	07cH
	DB	0b5H
	DB	074H
	DB	0b5H
	DB	07cH
	DB	0b5H
	DB	07cH
	DB	0b5H
	DB	07cH
	DB	0b5H
	DB	07cH
	DB	0b5H
	DB	074H
	DB	0b5H
	DB	07cH
	DB	0b5H
	DB	074H
	DB	0b5H
	DB	07cH
	DB	0b5H
	DB	07cH
	DB	0b5H
	DB	07cH
	DB	0b5H
	DB	07cH
	DB	0d5H
	DB	07cH
	DB	0b5H
	DB	07cH
	DB	0b5H
	DB	07cH
	DB	0b5H
	DB	07cH
	DB	0b5H
	DB	07cH
	DB	0b5H
	DB	07cH
	DB	0d5H
	DB	07cH
	DB	0d5H
	DB	07cH
	DB	0b5H
	DB	07cH
	DB	0b5H
	DB	07cH
	DB	0d6H
	DB	07cH
	DB	0d6H
	DB	07cH
	DB	0d6H
	DB	07cH
	DB	0d5H
	DB	07cH
	DB	0d6H
	DB	07cH
	DB	0d5H
	DB	07cH
	DB	0d6H
	DB	07cH
	DB	0f6H
	DB	07cH
	DB	0d5H
	DB	07cH
	DB	0d6H
	DB	07cH
	DB	0d5H
	DB	07cH
	DB	0d6H
	DB	07cH
	DB	0f6H
	DB	084H
	DB	0d6H
	DB	084H
	DB	0f6H
	DB	084H
	DB	0d5H
	DB	07cH
	DB	0d6H
	DB	084H
	DB	0f6H
	DB	07cH
	DB	0f6H
	DB	084H
	DB	0f6H
	DB	07cH
	DB	0d3H
	DB	094H
	DB	0f2H
	DB	0ccH
	DB	04fH
	DB	0bcH
	DB	0b5H
	DB	0e5H
	DB	037H
	DB	0f6H
	DB	0f6H
	DB	0edH
	DB	0f1H
	DB	0d4H
	DB	0eeH
	DB	0abH
	DB	048H
	DB	06aH
	DB	048H
	DB	062H
	DB	0aaH
	DB	07aH
	DB	0aH
	DB	08bH
	DB	08bH
	DB	0a3H
	DB	0eH
	DB	0b4H
	DB	06fH
	DB	0c4H
	DB	0d0H
	DB	0ccH
	DB	011H
	DB	0d5H
	DB	053H
	DB	0e5H
	DB	093H
	DB	0edH
	DB	0d4H
	DB	0edH
	DB	0d4H
	DB	0edH
	DB	0f5H
	DB	0f5H
	DB	016H
	DB	0f6H
	DB	015H
	DB	0f6H
	DB	0f5H
	DB	0edH
	DB	016H
	DB	0f6H
	DB	036H
	DB	0f6H
	DB	036H
	DB	0f6H
	DB	036H
	DB	0eeH
	DB	036H
	DB	0eeH
	DB	015H
	DB	0eeH
	DB	0d4H
	DB	0e5H
	DB	0b4H
	DB	0ddH
	DB	073H
	DB	0ddH
	DB	073H
	DB	0ddH
	DB	0b4H
	DB	0ddH
	DB	0f6H
	DB	0edH
	DB	0b5H
	DB	0e5H
	DB	094H
	DB	0ddH
	DB	032H
	DB	0d5H
	DB	0f2H
	DB	0d4H
	DB	032H
	DB	0d5H
	DB	094H
	DB	0ddH
	DB	016H
	DB	0eeH
	DB	0b7H
	DB	0f6H
	DB	015H
	DB	0e6H
	DB	093H
	DB	0ddH
	DB	073H
	DB	0ddH
	DB	0b3H
	DB	0ddH
	DB	0b4H
	DB	0e5H
	DB	035H
	DB	0f6H
	DB	097H
	DB	0feH
	DB	0d9H
	DB	0feH
	DB	097H
	DB	0f6H
	DB	015H
	DB	0eeH
	DB	052H
	DB	0ddH
	DB	08cH
	DB	09bH
	DB	0e5H
	DB	061H
	DB	0c9H
	DB	082H
	DB	0aH
	DB	08bH
	DB	02bH
	DB	093H
	DB	0bH
	DB	08bH
	DB	0c9H
	DB	07aH
	DB	0eaH
	DB	07aH
	DB	0caH
	DB	06aH
	DB	044H
	DB	039H
	DB	0e6H
	DB	049H
	DB	07H
	DB	052H
	DB	08H
	DB	052H
	DB	069H
	DB	06aH
	DB	089H
	DB	072H
	DB	04aH
	DB	08bH
	DB	0cdH
	DB	0a3H
	DB	0cdH
	DB	0a3H
	DB	0c9H
	DB	07aH
	DB	0e6H
	DB	059H
	DB	045H
	DB	041H
	DB	045H
	DB	041H
	DB	025H
	DB	039H
	DB	066H
	DB	039H
	DB	0abH
	DB	05aH
	DB	06aH
	DB	05aH
	DB	029H
	DB	052H
	DB	02aH
	DB	052H
	DB	0dH
	DB	06bH
	DB	087H
	DB	031H
	DB	08H
	DB	04aH
	DB	0e7H
	DB	041H
	DB	0f1H
	DB	073H
	DB	0f5H
	DB	08cH
	DB	0f6H
	DB	084H
	DB	0f7H
	DB	07cH
	DB	017H
	DB	085H
	DB	0f6H
	DB	084H
	DB	0f6H
	DB	084H
	DB	016H
	DB	085H
	DB	0f6H
	DB	084H
	DB	016H
	DB	085H
	DB	0f6H
	DB	084H
	DB	0f6H
	DB	084H
	DB	0f6H
	DB	07cH
	DB	0f6H
	DB	084H
	DB	0f6H
	DB	07cH
	DB	0f6H
	DB	07cH
	DB	0f6H
	DB	084H
	DB	0f6H
	DB	07cH
	DB	0f6H
	DB	07cH
	DB	0f6H
	DB	084H
	DB	0f6H
	DB	07cH
	DB	0f6H
	DB	07cH
	DB	0f6H
	DB	084H
	DB	016H
	DB	07dH
	DB	016H
	DB	085H
	DB	0f6H
	DB	07cH
	DB	0f6H
	DB	07cH
	DB	0f5H
	DB	07cH
	DB	0f6H
	DB	07cH
	DB	0f6H
	DB	084H
	DB	0f6H
	DB	07cH
	DB	0f6H
	DB	07cH
	DB	0f5H
	DB	07cH
	DB	0d5H
	DB	07cH
	DB	0d5H
	DB	07cH
	DB	0f6H
	DB	07cH
	DB	0d6H
	DB	07cH
	DB	0d5H
	DB	07cH
	DB	074H
	DB	074H
	DB	094H
	DB	074H
	DB	074H
	DB	074H
	DB	074H
	DB	074H
	DB	094H
	DB	074H
	DB	095H
	DB	074H
	DB	095H
	DB	07cH
	DB	094H
	DB	074H
	DB	095H
	DB	074H
	DB	095H
	DB	07cH
	DB	0b4H
	DB	07cH
	DB	094H
	DB	074H
	DB	095H
	DB	074H
	DB	0b5H
	DB	07cH
	DB	0b5H
	DB	074H
	DB	095H
	DB	074H
	DB	0b5H
	DB	07cH
	DB	0b5H
	DB	07cH
	DB	0b5H
	DB	074H
	DB	0b5H
	DB	07cH
	DB	0b5H
	DB	07cH
	DB	0b5H
	DB	074H
	DB	0b5H
	DB	07cH
	DB	0b5H
	DB	074H
	DB	0d5H
	DB	07cH
	DB	0d6H
	DB	07cH
	DB	0d5H
	DB	07cH
	DB	0b5H
	DB	07cH
	DB	0d5H
	DB	07cH
	DB	0d5H
	DB	07cH
	DB	0d5H
	DB	07cH
	DB	0d6H
	DB	07cH
	DB	0b5H
	DB	07cH
	DB	0b5H
	DB	07cH
	DB	0d6H
	DB	07cH
	DB	0d6H
	DB	07cH
	DB	0d6H
	DB	07cH
	DB	0d5H
	DB	07cH
	DB	0d6H
	DB	07cH
	DB	0d5H
	DB	07cH
	DB	0d5H
	DB	07cH
	DB	0d6H
	DB	084H
	DB	0f5H
	DB	07cH
	DB	0f6H
	DB	084H
	DB	0f6H
	DB	084H
	DB	0f6H
	DB	07cH
	DB	0f5H
	DB	07cH
	DB	0f6H
	DB	084H
	DB	0f6H
	DB	07cH
	DB	0f5H
	DB	07cH
	DB	0f6H
	DB	084H
	DB	0f6H
	DB	07cH
	DB	0f6H
	DB	084H
	DB	0f6H
	DB	07cH
	DB	0f4H
	DB	09cH
	DB	0d2H
	DB	0c4H
	DB	012H
	DB	0d5H
	DB	037H
	DB	0f6H
	DB	078H
	DB	0feH
	DB	016H
	DB	0eeH
	DB	012H
	DB	0d5H
	DB	0b1H
	DB	0bcH
	DB	048H
	DB	06aH
	DB	069H
	DB	06aH
	DB	0caH
	DB	07aH
	DB	04bH
	DB	093H
	DB	0acH
	DB	0a3H
	DB	0cdH
	DB	0abH
	DB	04fH
	DB	0bcH
	DB	0f1H
	DB	0d4H
	DB	012H
	DB	0ddH
	DB	093H
	DB	0e5H
	DB	0b4H
	DB	0edH
	DB	0d4H
	DB	0edH
	DB	0f5H
	DB	0f5H
	DB	036H
	DB	0f6H
	DB	036H
	DB	0f6H
	DB	036H
	DB	0f6H
	DB	036H
	DB	0f6H
	DB	036H
	DB	0f6H
	DB	057H
	DB	0f6H
	DB	057H
	DB	0f6H
	DB	077H
	DB	0f6H
	DB	057H
	DB	0f6H
	DB	036H
	DB	0eeH
	DB	056H
	DB	0eeH
	DB	036H
	DB	0eeH
	DB	0d5H
	DB	0e5H
	DB	0d5H
	DB	0ddH
	DB	0b5H
	DB	0ddH
	DB	0f6H
	DB	0e5H
	DB	0d5H
	DB	0ddH
	DB	094H
	DB	0ddH
	DB	095H
	DB	0e5H
	DB	0d5H
	DB	0edH
	DB	0d5H
	DB	0edH
	DB	0b5H
	DB	0ddH
	DB	0f5H
	DB	0e5H
	DB	015H
	DB	0e6H
	DB	093H
	DB	0ddH
	DB	073H
	DB	0d5H
	DB	0b3H
	DB	0ddH
	DB	093H
	DB	0ddH
	DB	093H
	DB	0e5H
	DB	015H
	DB	0eeH
	DB	056H
	DB	0f6H
	DB	0b8H
	DB	0f6H
	DB	077H
	DB	0eeH
	DB	0f4H
	DB	0edH
	DB	052H
	DB	0d5H
	DB	06bH
	DB	09bH
	DB	088H
	DB	07aH
	DB	0eH
	DB	0acH
	DB	0f1H
	DB	0ccH
	DB	04bH
	DB	09bH
	DB	048H
	DB	072H
	DB	0aeH
	DB	093H
	DB	038H
	DB	0d6H
	DB	0b1H
	DB	09cH
	DB	023H
	DB	021H
	DB	065H
	DB	029H
	DB	04H
	DB	021H
	DB	021H
	DB	08H
	DB	061H
	DB	018H
	DB	085H
	DB	049H
	DB	027H
	DB	062H
	DB	06H
	DB	062H
	DB	0aH
	DB	083H
	DB	0eaH
	DB	07aH
	DB	0e7H
	DB	059H
	DB	025H
	DB	041H
	DB	045H
	DB	039H
	DB	065H
	DB	039H
	DB	087H
	DB	041H
	DB	08aH
	DB	05aH
	DB	04aH
	DB	052H
	DB	029H
	DB	052H
	DB	08bH
	DB	062H
	DB	0ccH
	DB	062H
	DB	067H
	DB	031H
	DB	049H
	DB	04aH
	DB	0ecH
	DB	05aH
	DB	0f5H
	DB	084H
	DB	016H
	DB	085H
	DB	017H
	DB	085H
	DB	016H
	DB	07dH
	DB	016H
	DB	085H
	DB	016H
	DB	085H
	DB	016H
	DB	085H
	DB	016H
	DB	085H
	DB	016H
	DB	07dH
	DB	016H
	DB	085H
	DB	016H
	DB	085H
	DB	016H
	DB	085H
	DB	016H
	DB	085H
	DB	016H
	DB	085H
	DB	0f6H
	DB	07cH
	DB	0f6H
	DB	07cH
	DB	0f6H
	DB	084H
	DB	0f6H
	DB	07cH
	DB	0f6H
	DB	084H
	DB	0f6H
	DB	084H
	DB	0f6H
	DB	07cH
	DB	0f6H
	DB	07cH
	DB	0f6H
	DB	084H
	DB	0f6H
	DB	07cH
	DB	0f6H
	DB	07cH
	DB	0f6H
	DB	07cH
	DB	0f6H
	DB	084H
	DB	0f6H
	DB	07cH
	DB	0f6H
	DB	07cH
	DB	0f5H
	DB	07cH
	DB	0f6H
	DB	084H
	DB	0f6H
	DB	07cH
	DB	0f6H
	DB	07cH
	DB	0f6H
	DB	084H
	DB	0d6H
	DB	07cH
	DB	0d5H
	DB	07cH
	DB	0f6H
	DB	07cH
	DB	0d6H
	DB	07cH
	DB	094H
	DB	074H
	DB	094H
	DB	074H
	DB	094H
	DB	074H
	DB	094H
	DB	074H
	DB	094H
	DB	074H
	DB	094H
	DB	074H
	DB	0b5H
	DB	07cH
	DB	0b5H
	DB	07cH
	DB	094H
	DB	07cH
	DB	0b5H
	DB	07cH
	DB	0b5H
	DB	07cH
	DB	0b5H
	DB	07cH
	DB	0b5H
	DB	07cH
	DB	0b5H
	DB	074H
	DB	0b5H
	DB	074H
	DB	0b5H
	DB	07cH
	DB	0b5H
	DB	07cH
	DB	0b5H
	DB	07cH
	DB	0b5H
	DB	07cH
	DB	0b5H
	DB	07cH
	DB	0b5H
	DB	07cH
	DB	0b5H
	DB	07cH
	DB	0b5H
	DB	074H
	DB	0d5H
	DB	07cH
	DB	0d5H
	DB	07cH
	DB	0d6H
	DB	07cH
	DB	0b5H
	DB	07cH
	DB	0d5H
	DB	07cH
	DB	0d6H
	DB	07cH
	DB	0d5H
	DB	07cH
	DB	0d6H
	DB	07cH
	DB	0d6H
	DB	07cH
	DB	0d6H
	DB	07cH
	DB	0d5H
	DB	07cH
	DB	0d5H
	DB	07cH
	DB	0d6H
	DB	07cH
	DB	0f6H
	DB	07cH
	DB	0d5H
	DB	07cH
	DB	0f6H
	DB	084H
	DB	0d6H
	DB	07cH
	DB	0f6H
	DB	07cH
	DB	0f6H
	DB	084H
	DB	0f6H
	DB	07cH
	DB	0f6H
	DB	07cH
	DB	0f6H
	DB	084H
	DB	0f6H
	DB	084H
	DB	0f6H
	DB	07cH
	DB	0f6H
	DB	07cH
	DB	0f6H
	DB	084H
	DB	0f5H
	DB	07cH
	DB	0f6H
	DB	07cH
	DB	0f6H
	DB	07cH
	DB	0f6H
	DB	084H
	DB	0f6H
	DB	07cH
	DB	0d4H
	DB	094H
	DB	091H
	DB	0bcH
	DB	073H
	DB	0e5H
	DB	057H
	DB	0f6H
	DB	098H
	DB	0feH
	DB	036H
	DB	0f6H
	DB	094H
	DB	0ddH
	DB	090H
	DB	0bcH
	DB	0eaH
	DB	07aH
	DB	0aaH
	DB	06aH
	DB	0ebH
	DB	07aH
	DB	02bH
	DB	093H
	DB	0acH
	DB	0a3H
	DB	0edH
	DB	0abH
	DB	090H
	DB	0c4H
	DB	0f1H
	DB	0d4H
	DB	032H
	DB	0ddH
	DB	093H
	DB	0e5H
	DB	0b4H
	DB	0edH
	DB	0d5H
	DB	0f5H
	DB	015H
	DB	0f6H
	DB	035H
	DB	0f6H
	DB	036H
	DB	0f6H
	DB	077H
	DB	0feH
	DB	056H
	DB	0feH
	DB	057H
	DB	0f6H
	DB	098H
	DB	0feH
	DB	097H
	DB	0feH
	DB	077H
	DB	0feH
	DB	098H
	DB	0f6H
	DB	098H
	DB	0f6H
	DB	098H
	DB	0f6H
	DB	098H
	DB	0f6H
	DB	098H
	DB	0f6H
	DB	099H
	DB	0f6H
	DB	098H
	DB	0f6H
	DB	078H
	DB	0f6H
	DB	078H
	DB	0f6H
	DB	037H
	DB	0f6H
	DB	0f6H
	DB	0edH
	DB	0d5H
	DB	0e5H
	DB	0b5H
	DB	0e5H
	DB	0d5H
	DB	0e5H
	DB	037H
	DB	0eeH
	DB	0f5H
	DB	0e5H
	DB	093H
	DB	0ddH
	DB	073H
	DB	0ddH
	DB	0b3H
	DB	0e5H
	DB	093H
	DB	0e5H
	DB	073H
	DB	0e5H
	DB	0d4H
	DB	0edH
	DB	056H
	DB	0f6H
	DB	098H
	DB	0f6H
	DB	077H
	DB	0f6H
	DB	015H
	DB	0eeH
	DB	052H
	DB	0d5H
	DB	06bH
	DB	09bH
	DB	04aH
	DB	093H
	DB	032H
	DB	0d5H
	DB	06fH
	DB	0bcH
	DB	04bH
	DB	093H
	DB	0b1H
	DB	0bcH
	DB	017H
	DB	0e6H
	DB	0dbH
	DB	0f6H
	DB	0f3H
	DB	0acH
	DB	08H
	DB	04aH
	DB	045H
	DB	029H
	DB	0a3H
	DB	018H
	DB	0c4H
	DB	020H
	DB	0e4H
	DB	020H
	DB	029H
	DB	052H
	DB	04H
	DB	031H
	DB	0c6H
	DB	051H
	DB	0a6H
	DB	051H
	DB	07H
	DB	05aH
	DB	0c7H
	DB	051H
	DB	065H
	DB	041H
	DB	086H
	DB	041H
	DB	066H
	DB	039H
	DB	0c7H
	DB	041H
	DB	04aH
	DB	052H
	DB	029H
	DB	052H
	DB	04aH
	DB	052H
	DB	0edH
	DB	062H
	DB	06aH
	DB	052H
	DB	066H
	DB	031H
	DB	049H
	DB	04aH
	DB	0f1H
	DB	073H
	DB	016H
	DB	085H
	DB	016H
	DB	085H
	DB	017H
	DB	085H
	DB	017H
	DB	07dH
	DB	0f6H
	DB	084H
	DB	016H
	DB	085H
	DB	016H
	DB	085H
	DB	017H
	DB	085H
	DB	017H
	DB	085H
	DB	016H
	DB	085H
	DB	017H
	DB	085H
	DB	016H
	DB	07dH
	DB	016H
	DB	085H
	DB	016H
	DB	085H
	DB	0f6H
	DB	084H
	DB	016H
	DB	085H
	DB	016H
	DB	07dH
	DB	0f6H
	DB	084H
	DB	0f6H
	DB	07cH
	DB	016H
	DB	085H
	DB	016H
	DB	085H
	DB	016H
	DB	085H
	DB	0f6H
	DB	084H
	DB	0f6H
	DB	084H
	DB	016H
	DB	085H
	DB	0f6H
	DB	084H
	DB	0f6H
	DB	084H
	DB	0f6H
	DB	084H
	DB	0f6H
	DB	084H
	DB	0f6H
	DB	07cH
	DB	0f6H
	DB	084H
	DB	0f6H
	DB	084H
	DB	0f6H
	DB	07cH
	DB	0f6H
	DB	07cH
	DB	0f6H
	DB	07cH
	DB	0f6H
	DB	084H
	DB	0f6H
	DB	084H
	DB	0f6H
	DB	07cH
	DB	094H
	DB	074H
	DB	095H
	DB	074H
	DB	095H
	DB	074H
	DB	0b5H
	DB	07cH
	DB	0b5H
	DB	074H
	DB	0b5H
	DB	07cH
	DB	094H
	DB	074H
	DB	0b4H
	DB	07cH
	DB	0b5H
	DB	07cH
	DB	0b5H
	DB	074H
	DB	094H
	DB	074H
	DB	0b5H
	DB	07cH
	DB	0b5H
	DB	07cH
	DB	0b5H
	DB	07cH
	DB	0b5H
	DB	07cH
	DB	0d5H
	DB	07cH
	DB	0d5H
	DB	07cH
	DB	0b5H
	DB	074H
	DB	0d5H
	DB	07cH
	DB	0d5H
	DB	07cH
	DB	0b5H
	DB	07cH
	DB	0d5H
	DB	07cH
	DB	0d5H
	DB	07cH
	DB	0d6H
	DB	07cH
	DB	0d6H
	DB	07cH
	DB	0d5H
	DB	07cH
	DB	0d6H
	DB	07cH
	DB	0d6H
	DB	07cH
	DB	0d5H
	DB	07cH
	DB	0d6H
	DB	07cH
	DB	0d5H
	DB	07cH
	DB	0d5H
	DB	07cH
	DB	0d6H
	DB	07cH
	DB	0f6H
	DB	07cH
	DB	0f6H
	DB	07cH
	DB	0f6H
	DB	084H
	DB	0f6H
	DB	084H
	DB	0f6H
	DB	07cH
	DB	0f6H
	DB	084H
	DB	0f6H
	DB	084H
	DB	0f6H
	DB	084H
	DB	0f6H
	DB	07cH
	DB	0d6H
	DB	07cH
	DB	0f6H
	DB	07cH
	DB	0f6H
	DB	07cH
	DB	0f6H
	DB	07cH
	DB	0f6H
	DB	07cH
	DB	0f6H
	DB	084H
	DB	016H
	DB	085H
	DB	016H
	DB	085H
	DB	0f7H
	DB	084H
	DB	016H
	DB	07dH
	DB	0f6H
	DB	084H
	DB	0f6H
	DB	07cH
	DB	0b4H
	DB	08cH
	DB	02fH
	DB	0b4H
	DB	073H
	DB	0e5H
	DB	036H
	DB	0f6H
	DB	098H
	DB	0feH
	DB	078H
	DB	0f6H
	DB	0d5H
	DB	0edH
	DB	04fH
	DB	0b4H
	DB	06cH
	DB	083H
	DB	0ebH
	DB	072H
	DB	0bH
	DB	083H
	DB	04bH
	DB	093H
	DB	0cdH
	DB	0abH
	DB	0eH
	DB	0b4H
	DB	06fH
	DB	0c4H
	DB	011H
	DB	0d5H
	DB	032H
	DB	0ddH
	DB	093H
	DB	0e5H
	DB	0b4H
	DB	0edH
	DB	0f5H
	DB	0f5H
	DB	0f5H
	DB	0edH
	DB	015H
	DB	0f6H
	DB	016H
	DB	0f6H
	DB	056H
	DB	0feH
	DB	057H
	DB	0feH
	DB	097H
	DB	0feH
	DB	098H
	DB	0feH
	DB	098H
	DB	0feH
	DB	098H
	DB	0feH
	DB	098H
	DB	0f6H
	DB	0b8H
	DB	0f6H
	DB	0b9H
	DB	0feH
	DB	0daH
	DB	0feH
	DB	0faH
	DB	0feH
	DB	0faH
	DB	0feH
	DB	0daH
	DB	0feH
	DB	099H
	DB	0f6H
	DB	078H
	DB	0eeH
	DB	017H
	DB	0eeH
	DB	0b5H
	DB	0e5H
	DB	0b5H
	DB	0ddH
	DB	016H
	DB	0e6H
	DB	057H
	DB	0eeH
	DB	036H
	DB	0eeH
	DB	015H
	DB	0eeH
	DB	0b4H
	DB	0e5H
	DB	093H
	DB	0e5H
	DB	0b4H
	DB	0e5H
	DB	073H
	DB	0ddH
	DB	072H
	DB	0ddH
	DB	0d4H
	DB	0edH
	DB	076H
	DB	0f6H
	DB	098H
	DB	0f6H
	DB	056H
	DB	0eeH
	DB	015H
	DB	0eeH
	DB	052H
	DB	0ddH
	DB	0acH
	DB	09bH
	DB	0abH
	DB	0a3H
	DB	052H
	DB	0d5H
	DB	0f5H
	DB	0e5H
	DB	094H
	DB	0ddH
	DB	094H
	DB	0d5H
	DB	0d6H
	DB	0ddH
	DB	099H
	DB	0e6H
	DB	079H
	DB	0deH
	DB	0cH
	DB	06bH
	DB	049H
	DB	052H
	DB	049H
	DB	052H
	DB	0a7H
	DB	039H
	DB	06aH
	DB	05aH
	DB	08eH
	DB	07bH
	DB	086H
	DB	041H
	DB	0e3H
	DB	030H
	DB	045H
	DB	039H
	DB	0e3H
	DB	030H
	DB	0c7H
	DB	051H
	DB	0c7H
	DB	051H
	DB	0c7H
	DB	049H
	DB	087H
	DB	041H
	DB	08H
	DB	052H
	DB	04aH
	DB	052H
	DB	0e8H
	DB	049H
	DB	06aH
	DB	05aH
	DB	02eH
	DB	06bH
	DB	029H
	DB	04aH
	DB	086H
	DB	039H
	DB	0ecH
	DB	05aH
	DB	0d5H
	DB	084H
	DB	017H
	DB	085H
	DB	037H
	DB	085H
	DB	017H
	DB	07dH
	DB	016H
	DB	085H
	DB	016H
	DB	085H
	DB	016H
	DB	085H
	DB	016H
	DB	085H
	DB	017H
	DB	085H
	DB	016H
	DB	085H
	DB	016H
	DB	085H
	DB	017H
	DB	085H
	DB	016H
	DB	085H
	DB	0f6H
	DB	07cH
	DB	016H
	DB	085H
	DB	0f6H
	DB	07cH
	DB	016H
	DB	085H
	DB	016H
	DB	085H
	DB	016H
	DB	085H
	DB	016H
	DB	07dH
	DB	0f6H
	DB	07cH
	DB	0f6H
	DB	084H
	DB	016H
	DB	07dH
	DB	016H
	DB	085H
	DB	016H
	DB	085H
	DB	0f6H
	DB	07cH
	DB	0f6H
	DB	07cH
	DB	0f6H
	DB	084H
	DB	0f6H
	DB	07cH
	DB	0f6H
	DB	07cH
	DB	0f6H
	DB	084H
	DB	0f6H
	DB	07cH
	DB	0f6H
	DB	084H
	DB	0f6H
	DB	084H
	DB	0f6H
	DB	07cH
	DB	016H
	DB	085H
	DB	0f6H
	DB	084H
	DB	0f6H
	DB	07cH
	DB	0d5H
	DB	07cH
	DB	094H
	DB	074H
	DB	0b5H
	DB	074H
	DB	0b5H
	DB	07cH
	DB	0b4H
	DB	074H
	DB	0b5H
	DB	07cH
	DB	094H
	DB	074H
	DB	0b5H
	DB	07cH
	DB	0b5H
	DB	07cH
	DB	0b5H
	DB	07cH
	DB	0b4H
	DB	07cH
	DB	094H
	DB	074H
	DB	0b4H
	DB	07cH
	DB	0b5H
	DB	074H
	DB	0b5H
	DB	07cH
	DB	0b5H
	DB	07cH
	DB	0b5H
	DB	07cH
	DB	0b5H
	DB	07cH
	DB	0b5H
	DB	07cH
	DB	0b5H
	DB	074H
	DB	0b5H
	DB	07cH
	DB	0d5H
	DB	07cH
	DB	0d6H
	DB	07cH
	DB	0b5H
	DB	07cH
	DB	0d6H
	DB	07cH
	DB	0d6H
	DB	07cH
	DB	0d5H
	DB	07cH
	DB	0d6H
	DB	07cH
	DB	0d6H
	DB	07cH
	DB	0d6H
	DB	07cH
	DB	0d5H
	DB	07cH
	DB	0d6H
	DB	07cH
	DB	0d6H
	DB	07cH
	DB	0d6H
	DB	07cH
	DB	0f6H
	DB	07cH
	DB	0f6H
	DB	084H
	DB	0f6H
	DB	084H
	DB	0f6H
	DB	084H
	DB	0f6H
	DB	07cH
	DB	0f6H
	DB	084H
	DB	0f6H
	DB	084H
	DB	0f6H
	DB	07cH
	DB	0f6H
	DB	084H
	DB	0f6H
	DB	084H
	DB	0f6H
	DB	084H
	DB	0f6H
	DB	07cH
	DB	0f6H
	DB	07cH
	DB	016H
	DB	085H
	DB	016H
	DB	07dH
	DB	016H
	DB	07dH
	DB	016H
	DB	07dH
	DB	0f7H
	DB	084H
	DB	016H
	DB	085H
	DB	0f6H
	DB	084H
	DB	017H
	DB	07dH
	DB	0d5H
	DB	08cH
	DB	0fH
	DB	0acH
	DB	012H
	DB	0ddH
	DB	0d5H
	DB	0edH
	DB	037H
	DB	0f6H
	DB	057H
	DB	0f6H
	DB	0d5H
	DB	0edH
	DB	02fH
	DB	0acH
	DB	06dH
	DB	08bH
	DB	0cH
	DB	07bH
	DB	04cH
	DB	08bH
	DB	06cH
	DB	093H
	DB	08dH
	DB	0a3H
	DB	0eeH
	DB	0abH
	DB	06fH
	DB	0c4H
	DB	0d0H
	DB	0ccH
	DB	032H
	DB	0d5H
	DB	073H
	DB	0e5H
	DB	0b4H
	DB	0edH
	DB	0d4H
	DB	0edH
	DB	0d4H
	DB	0edH
	DB	015H
	DB	0f6H
	DB	036H
	DB	0feH
	DB	057H
	DB	0feH
	DB	077H
	DB	0feH
	DB	077H
	DB	0feH
	DB	098H
	DB	0feH
	DB	0b8H
	DB	0feH
	DB	0b8H
	DB	0feH
	DB	0b9H
	DB	0feH
	DB	0d9H
	DB	0feH
	DB	0b9H
	DB	0feH
	DB	0faH
	DB	0feH
	DB	0faH
	DB	0f6H
	DB	0daH
	DB	0feH
	DB	098H
	DB	0f6H
	DB	078H
	DB	0eeH
	DB	037H
	DB	0eeH
	DB	016H
	DB	0eeH
	DB	0d6H
	DB	0e5H
	DB	016H
	DB	0eeH
	DB	057H
	DB	0eeH
	DB	056H
	DB	0eeH
	DB	036H
	DB	0eeH
	DB	015H
	DB	0eeH
	DB	0d4H
	DB	0e5H
	DB	0b3H
	DB	0e5H
	DB	093H
	DB	0e5H
	DB	072H
	DB	0ddH
	DB	072H
	DB	0e5H
	DB	0d4H
	DB	0edH
	DB	077H
	DB	0f6H
	DB	098H
	DB	0f6H
	DB	056H
	DB	0eeH
	DB	0f4H
	DB	0edH
	DB	032H
	DB	0d5H
	DB	0acH
	DB	0a3H
	DB	0acH
	DB	0a3H
	DB	011H
	DB	0c5H
	DB	0f6H
	DB	0e5H
	DB	0d5H
	DB	0e5H
	DB	0d5H
	DB	0e5H
	DB	037H
	DB	0eeH
	DB	037H
	DB	0e6H
	DB	078H
	DB	0e6H
	DB	054H
	DB	0bdH
	DB	06cH
	DB	073H
	DB	02cH
	DB	06bH
	DB	08eH
	DB	07bH
	DB	051H
	DB	09cH
	DB	0aeH
	DB	08bH
	DB	0a6H
	DB	049H
	DB	041H
	DB	018H
	DB	082H
	DB	018H
	DB	0c3H
	DB	028H
	DB	065H
	DB	041H
	DB	0c7H
	DB	051H
	DB	0e7H
	DB	049H
	DB	0a7H
	DB	049H
	DB	09H
	DB	052H
	DB	0e8H
	DB	049H
	DB	0e8H
	DB	049H
	DB	08bH
	DB	05aH
	DB	0eH
	DB	063H
	DB	09H
	DB	04aH
	DB	08H
	DB	052H
	DB	04dH
	DB	063H
	DB	016H
	DB	085H
	DB	037H
	DB	085H
	DB	017H
	DB	085H
	DB	017H
	DB	085H
	DB	017H
	DB	085H
	DB	017H
	DB	085H
	DB	017H
	DB	085H
	DB	017H
	DB	085H
	DB	017H
	DB	085H
	DB	016H
	DB	085H
	DB	017H
	DB	085H
	DB	016H
	DB	07dH
	DB	016H
	DB	085H
	DB	017H
	DB	085H
	DB	016H
	DB	085H
	DB	016H
	DB	085H
	DB	016H
	DB	07dH
	DB	0f6H
	DB	084H
	DB	016H
	DB	085H
	DB	0f6H
	DB	084H
	DB	0f6H
	DB	084H
	DB	016H
	DB	07dH
	DB	016H
	DB	085H
	DB	016H
	DB	085H
	DB	016H
	DB	085H
	DB	016H
	DB	085H
	DB	016H
	DB	07dH
	DB	016H
	DB	085H
	DB	0f6H
	DB	07cH
	DB	0f6H
	DB	07cH
	DB	0f6H
	DB	084H
	DB	0f6H
	DB	07cH
	DB	0f6H
	DB	07cH
	DB	016H
	DB	085H
	DB	0f6H
	DB	084H
	DB	0f6H
	DB	07cH
	DB	0f6H
	DB	084H
	DB	0f6H
	DB	07cH
	DB	0f6H
	DB	07cH
	DB	094H
	DB	074H
	DB	0b5H
	DB	07cH
	DB	0b4H
	DB	07cH
	DB	0b5H
	DB	074H
	DB	0b5H
	DB	074H
	DB	094H
	DB	074H
	DB	0b5H
	DB	07cH
	DB	095H
	DB	074H
	DB	0b5H
	DB	07cH
	DB	0b5H
	DB	07cH
	DB	0b5H
	DB	07cH
	DB	0b5H
	DB	07cH
	DB	0b5H
	DB	07cH
	DB	0d5H
	DB	07cH
	DB	0b5H
	DB	074H
	DB	0d5H
	DB	07cH
	DB	0b5H
	DB	07cH
	DB	0d5H
	DB	07cH
	DB	0b5H
	DB	07cH
	DB	0d6H
	DB	07cH
	DB	0d6H
	DB	07cH
	DB	0d5H
	DB	07cH
	DB	0d5H
	DB	07cH
	DB	0d6H
	DB	07cH
	DB	0f6H
	DB	07cH
	DB	0d5H
	DB	07cH
	DB	0d5H
	DB	07cH
	DB	0f6H
	DB	07cH
	DB	0d6H
	DB	07cH
	DB	0d5H
	DB	07cH
	DB	0f6H
	DB	084H
	DB	0f6H
	DB	084H
	DB	0d5H
	DB	07cH
	DB	0f6H
	DB	084H
	DB	0f6H
	DB	084H
	DB	0f6H
	DB	084H
	DB	0f6H
	DB	07cH
	DB	0f6H
	DB	084H
	DB	0f6H
	DB	07cH
	DB	0f6H
	DB	07cH
	DB	0f6H
	DB	084H
	DB	0f6H
	DB	084H
	DB	0f6H
	DB	084H
	DB	0f6H
	DB	07cH
	DB	016H
	DB	085H
	DB	016H
	DB	085H
	DB	0f6H
	DB	07cH
	DB	0f6H
	DB	07cH
	DB	0f6H
	DB	084H
	DB	016H
	DB	085H
	DB	0f6H
	DB	084H
	DB	016H
	DB	085H
	DB	0f6H
	DB	084H
	DB	017H
	DB	085H
	DB	0f5H
	DB	08cH
	DB	04cH
	DB	08bH
	DB	090H
	DB	0ccH
	DB	0b5H
	DB	0edH
	DB	0d5H
	DB	0edH
	DB	0d5H
	DB	0e5H
	DB	094H
	DB	0e5H
	DB	02fH
	DB	0acH
	DB	08dH
	DB	08bH
	DB	06dH
	DB	083H
	DB	08dH
	DB	093H
	DB	06cH
	DB	093H
	DB	06cH
	DB	09bH
	DB	0eeH
	DB	0abH
	DB	090H
	DB	0c4H
	DB	0d1H
	DB	0ccH
	DB	0f1H
	DB	0d4H
	DB	052H
	DB	0ddH
	DB	093H
	DB	0e5H
	DB	0b3H
	DB	0e5H
	DB	0d4H
	DB	0edH
	DB	0f5H
	DB	0f5H
	DB	015H
	DB	0f6H
	DB	036H
	DB	0f6H
	DB	057H
	DB	0feH
	DB	077H
	DB	0feH
	DB	0b8H
	DB	0feH
	DB	0b8H
	DB	0feH
	DB	0d8H
	DB	0feH
	DB	0faH
	DB	0feH
	DB	0daH
	DB	0feH
	DB	0daH
	DB	0f6H
	DB	0faH
	DB	0feH
	DB	0d9H
	DB	0f6H
	DB	0d9H
	DB	0f6H
	DB	098H
	DB	0f6H
	DB	057H
	DB	0eeH
	DB	057H
	DB	0eeH
	DB	037H
	DB	0eeH
	DB	057H
	DB	0f6H
	DB	077H
	DB	0f6H
	DB	077H
	DB	0f6H
	DB	076H
	DB	0f6H
	DB	015H
	DB	0eeH
	DB	0b4H
	DB	0e5H
	DB	0b3H
	DB	0e5H
	DB	0b3H
	DB	0e5H
	DB	073H
	DB	0e5H
	DB	052H
	DB	0ddH
	DB	052H
	DB	0e5H
	DB	0b4H
	DB	0edH
	DB	056H
	DB	0f6H
	DB	077H
	DB	0eeH
	DB	036H
	DB	0eeH
	DB	0d4H
	DB	0e5H
	DB	0f1H
	DB	0ccH
	DB	08bH
	DB	09bH
	DB	0ccH
	DB	0a3H
	DB	0b0H
	DB	0bcH
	DB	0d4H
	DB	0ddH
	DB	0f5H
	DB	0e5H
	DB	073H
	DB	0d5H
	DB	073H
	DB	0d5H
	DB	0b5H
	DB	0e5H
	DB	074H
	DB	0ddH
	DB	013H
	DB	0cdH
	DB	0f3H
	DB	0c4H
	DB	054H
	DB	0cdH
	DB	034H
	DB	0c5H
	DB	0d2H
	DB	0bcH
	DB	0ceH
	DB	093H
	DB	069H
	DB	06aH
	DB	024H
	DB	039H
	DB	041H
	DB	018H
	DB	0c3H
	DB	020H
	DB	065H
	DB	039H
	DB	0e7H
	DB	049H
	DB	0c7H
	DB	049H
	DB	0a7H
	DB	041H
	DB	0c7H
	DB	049H
	DB	0c8H
	DB	041H
	DB	0e8H
	DB	049H
	DB	0ccH
	DB	062H
	DB	0dH
	DB	063H
	DB	0e8H
	DB	041H
	DB	049H
	DB	052H
	DB	0dH
	DB	05bH
	DB	0f6H
	DB	084H
	DB	037H
	DB	08dH
	DB	037H
	DB	08dH
	DB	036H
	DB	085H
	DB	017H
	DB	085H
	DB	017H
	DB	085H
	DB	017H
	DB	085H
	DB	017H
	DB	085H
	DB	036H
	DB	085H
	DB	037H
	DB	085H
	DB	017H
	DB	085H
	DB	016H
	DB	085H
	DB	017H
	DB	085H
	DB	017H
	DB	085H
	DB	016H
	DB	085H
	DB	017H
	DB	085H
	DB	017H
	DB	085H
	DB	016H
	DB	085H
	DB	017H
	DB	085H
	DB	016H
	DB	085H
	DB	016H
	DB	085H
	DB	016H
	DB	085H
	DB	017H
	DB	085H
	DB	0f6H
	DB	07cH
	DB	0f6H
	DB	07cH
	DB	016H
	DB	085H
	DB	016H
	DB	085H
	DB	0f6H
	DB	084H
	DB	016H
	DB	085H
	DB	016H
	DB	085H
	DB	016H
	DB	085H
	DB	016H
	DB	085H
	DB	016H
	DB	085H
	DB	0f6H
	DB	084H
	DB	0f6H
	DB	07cH
	DB	0f6H
	DB	07cH
	DB	0f6H
	DB	084H
	DB	016H
	DB	085H
	DB	0f6H
	DB	084H
	DB	095H
	DB	074H
	DB	0b5H
	DB	07cH
	DB	0b5H
	DB	074H
	DB	095H
	DB	074H
	DB	0b5H
	DB	07cH
	DB	0b5H
	DB	07cH
	DB	0b5H
	DB	07cH
	DB	0b5H
	DB	07cH
	DB	0b5H
	DB	074H
	DB	0d5H
	DB	07cH
	DB	0d5H
	DB	07cH
	DB	0b5H
	DB	07cH
	DB	0d5H
	DB	07cH
	DB	0b5H
	DB	07cH
	DB	0b5H
	DB	074H
	DB	0d5H
	DB	07cH
	DB	0b5H
	DB	07cH
	DB	0d6H
	DB	07cH
	DB	0d6H
	DB	07cH
	DB	0f6H
	DB	07cH
	DB	0d5H
	DB	07cH
	DB	0d6H
	DB	07cH
	DB	0d5H
	DB	07cH
	DB	0d6H
	DB	07cH
	DB	0d6H
	DB	07cH
	DB	0d5H
	DB	07cH
	DB	0f6H
	DB	07cH
	DB	0f6H
	DB	07cH
	DB	0f6H
	DB	084H
	DB	0d5H
	DB	07cH
	DB	0f6H
	DB	07cH
	DB	0f6H
	DB	07cH
	DB	0f6H
	DB	07cH
	DB	0f6H
	DB	084H
	DB	016H
	DB	07dH
	DB	0f6H
	DB	07cH
	DB	0f6H
	DB	07cH
	DB	0f6H
	DB	084H
	DB	0f6H
	DB	084H
	DB	0f6H
	DB	07cH
	DB	016H
	DB	085H
	DB	016H
	DB	085H
	DB	0f6H
	DB	07cH
	DB	0f6H
	DB	07cH
	DB	016H
	DB	085H
	DB	0f6H
	DB	084H
	DB	016H
	DB	085H
	DB	0f7H
	DB	084H
	DB	016H
	DB	085H
	DB	016H
	DB	085H
	DB	017H
	DB	085H
	DB	0f6H
	DB	084H
	DB	016H
	DB	085H
	DB	017H
	DB	085H
	DB	016H
	DB	085H
	DB	0cH
	DB	073H
	DB	0c9H
	DB	092H
	DB	011H
	DB	0d5H
	DB	053H
	DB	0ddH
	DB	074H
	DB	0ddH
	DB	052H
	DB	0d5H
	DB	0eH
	DB	0acH
	DB	04cH
	DB	083H
	DB	08dH
	DB	08bH
	DB	0adH
	DB	09bH
	DB	02bH
	DB	08bH
	DB	0aH
	DB	093H
	DB	08cH
	DB	0abH
	DB	06fH
	DB	0c4H
	DB	0d1H
	DB	0ccH
	DB	0d1H
	DB	0d4H
	DB	073H
	DB	0e5H
	DB	093H
	DB	0e5H
	DB	0b4H
	DB	0edH
	DB	0d4H
	DB	0f5H
	DB	0d5H
	DB	0edH
	DB	0d4H
	DB	0f5H
	DB	0d5H
	DB	0f5H
	DB	036H
	DB	0f6H
	DB	057H
	DB	0feH
	DB	078H
	DB	0feH
	DB	0b8H
	DB	0feH
	DB	0b9H
	DB	0feH
	DB	0faH
	DB	0feH
	DB	0faH
	DB	0f6H
	DB	0faH
	DB	0feH
	DB	0faH
	DB	0feH
	DB	0d9H
	DB	0f6H
	DB	0b9H
	DB	0f6H
	DB	0b9H
	DB	0f6H
	DB	0b9H
	DB	0f6H
	DB	0b9H
	DB	0f6H
	DB	0d9H
	DB	0f6H
	DB	0d9H
	DB	0f6H
	DB	0b8H
	DB	0f6H
	DB	077H
	DB	0f6H
	DB	035H
	DB	0eeH
	DB	0f5H
	DB	0edH
	DB	0b4H
	DB	0e5H
	DB	073H
	DB	0ddH
	DB	072H
	DB	0ddH
	DB	052H
	DB	0ddH
	DB	032H
	DB	0ddH
	DB	052H
	DB	0ddH
	DB	0b4H
	DB	0edH
	DB	057H
	DB	0f6H
	DB	077H
	DB	0f6H
	DB	057H
	DB	0eeH
	DB	0d4H
	DB	0e5H
	DB	0d0H
	DB	0c4H
	DB	02bH
	DB	093H
	DB	0edH
	DB	0a3H
	DB	0d0H
	DB	0c4H
	DB	093H
	DB	0d5H
	DB	0f5H
	DB	0e5H
	DB	0d5H
	DB	0e5H
	DB	012H
	DB	0d5H
	DB	0d1H
	DB	0ccH
	DB	012H
	DB	0cdH
	DB	090H
	DB	0c4H
	DB	050H
	DB	0bcH
	DB	050H
	DB	0bcH
	DB	0fH
	DB	0acH
	DB	0fH
	DB	0acH
	DB	0eeH
	DB	0a3H
	DB	04cH
	DB	08bH
	DB	0c7H
	DB	059H
	DB	082H
	DB	028H
	DB	0c3H
	DB	028H
	DB	065H
	DB	041H
	DB	0c7H
	DB	051H
	DB	0c7H
	DB	051H
	DB	086H
	DB	041H
	DB	0a7H
	DB	041H
	DB	0c7H
	DB	049H
	DB	08H
	DB	04aH
	DB	0ecH
	DB	062H
	DB	0ecH
	DB	062H
	DB	049H
	DB	052H
	DB	049H
	DB	052H
	DB	029H
	DB	042H
	DB	0f0H
	DB	06bH
	DB	037H
	DB	08dH
	DB	037H
	DB	08dH
	DB	037H
	DB	085H
	DB	037H
	DB	085H
	DB	037H
	DB	08dH
	DB	037H
	DB	085H
	DB	017H
	DB	085H
	DB	037H
	DB	085H
	DB	017H
	DB	085H
	DB	017H
	DB	085H
	DB	017H
	DB	085H
	DB	017H
	DB	085H
	DB	017H
	DB	085H
	DB	017H
	DB	085H
	DB	017H
	DB	085H
	DB	017H
	DB	085H
	DB	017H
	DB	085H
	DB	017H
	DB	085H
	DB	017H
	DB	085H
	DB	017H
	DB	085H
	DB	0f6H
	DB	084H
	DB	0f6H
	DB	084H
	DB	016H
	DB	085H
	DB	0f7H
	DB	084H
	DB	0f7H
	DB	084H
	DB	016H
	DB	085H
	DB	0f7H
	DB	084H
	DB	017H
	DB	085H
	DB	0f6H
	DB	084H
	DB	0f6H
	DB	084H
	DB	0f6H
	DB	07cH
	DB	016H
	DB	07dH
	DB	016H
	DB	085H
	DB	016H
	DB	085H
	DB	0f6H
	DB	07cH
	DB	0f6H
	DB	07cH
	DB	0f6H
	DB	084H
	DB	016H
	DB	085H
	DB	0b5H
	DB	07cH
	DB	0b5H
	DB	074H
	DB	0b5H
	DB	07cH
	DB	095H
	DB	074H
	DB	0b5H
	DB	07cH
	DB	0b5H
	DB	07cH
	DB	0b5H
	DB	07cH
	DB	0b5H
	DB	07cH
	DB	0b5H
	DB	07cH
	DB	0b5H
	DB	07cH
	DB	0d5H
	DB	07cH
	DB	0d6H
	DB	07cH
	DB	0d5H
	DB	07cH
	DB	0d6H
	DB	07cH
	DB	0b5H
	DB	07cH
	DB	0d6H
	DB	07cH
	DB	0d6H
	DB	07cH
	DB	0d6H
	DB	07cH
	DB	0f6H
	DB	07cH
	DB	0d5H
	DB	07cH
	DB	0d6H
	DB	07cH
	DB	0f6H
	DB	07cH
	DB	0d6H
	DB	07cH
	DB	0d5H
	DB	07cH
	DB	0f6H
	DB	07cH
	DB	0f6H
	DB	07cH
	DB	0f6H
	DB	084H
	DB	0f6H
	DB	084H
	DB	0f6H
	DB	084H
	DB	0f6H
	DB	07cH
	DB	016H
	DB	085H
	DB	0f6H
	DB	084H
	DB	016H
	DB	085H
	DB	016H
	DB	085H
	DB	0f6H
	DB	07cH
	DB	0f6H
	DB	07cH
	DB	016H
	DB	085H
	DB	0f6H
	DB	084H
	DB	016H
	DB	085H
	DB	016H
	DB	07dH
	DB	0f6H
	DB	084H
	DB	016H
	DB	085H
	DB	016H
	DB	085H
	DB	017H
	DB	085H
	DB	0f6H
	DB	084H
	DB	0f6H
	DB	084H
	DB	017H
	DB	085H
	DB	017H
	DB	085H
	DB	017H
	DB	085H
	DB	0f6H
	DB	084H
	DB	017H
	DB	085H
	DB	017H
	DB	085H
	DB	017H
	DB	085H
	DB	017H
	DB	085H
	DB	016H
	DB	085H
	DB	010H
	DB	08cH
	DB	0c6H
	DB	069H
	DB	088H
	DB	082H
	DB	06fH
	DB	0c4H
	DB	0b5H
	DB	0e5H
	DB	093H
	DB	0d5H
	DB	02bH
	DB	093H
	DB	04cH
	DB	083H
	DB	0adH
	DB	093H
	DB	08dH
	DB	093H
	DB	02bH
	DB	093H
	DB	0aH
	DB	09bH
	DB	06bH
	DB	0a3H
	DB	02eH
	DB	0bcH
	DB	0b0H
	DB	0ccH
	DB	011H
	DB	0d5H
	DB	052H
	DB	0e5H
	DB	073H
	DB	0e5H
	DB	073H
	DB	0e5H
	DB	0b4H
	DB	0edH
	DB	0d4H
	DB	0f5H
	DB	0f5H
	DB	0f5H
	DB	0f5H
	DB	0f5H
	DB	016H
	DB	0f6H
	DB	036H
	DB	0f6H
	DB	057H
	DB	0f6H
	DB	098H
	DB	0feH
	DB	0b8H
	DB	0f6H
	DB	0d9H
	DB	0f6H
	DB	0faH
	DB	0feH
	DB	01aH
	DB	0ffH
	DB	0faH
	DB	0feH
	DB	0d9H
	DB	0f6H
	DB	0faH
	DB	0feH
	DB	03bH
	DB	0ffH
	DB	03bH
	DB	0ffH
	DB	01aH
	DB	0ffH
	DB	01bH
	DB	0ffH
	DB	01aH
	DB	0ffH
	DB	098H
	DB	0f6H
	DB	056H
	DB	0f6H
	DB	015H
	DB	0eeH
	DB	0d4H
	DB	0e5H
	DB	093H
	DB	0e5H
	DB	073H
	DB	0ddH
	DB	052H
	DB	0ddH
	DB	031H
	DB	0ddH
	DB	052H
	DB	0ddH
	DB	052H
	DB	0ddH
	DB	0b4H
	DB	0edH
	DB	056H
	DB	0f6H
	DB	078H
	DB	0f6H
	DB	057H
	DB	0f6H
	DB	0b4H
	DB	0e5H
	DB	06fH
	DB	0bcH
	DB	0eaH
	DB	08aH
	DB	0cdH
	DB	0a3H
	DB	011H
	DB	0c5H
	DB	053H
	DB	0d5H
	DB	093H
	DB	0ddH
	DB	0b4H
	DB	0ddH
	DB	073H
	DB	0ddH
	DB	0f1H
	DB	0ccH
	DB	0f1H
	DB	0ccH
	DB	0b0H
	DB	0c4H
	DB	06fH
	DB	0bcH
	DB	02fH
	DB	0b4H
	DB	0eeH
	DB	0abH
	DB	06cH
	DB	0a3H
	DB	0ebH
	DB	08aH
	DB	069H
	DB	072H
	DB	024H
	DB	049H
	DB	0e3H
	DB	038H
	DB	024H
	DB	039H
	DB	045H
	DB	041H
	DB	0a6H
	DB	051H
	DB	086H
	DB	049H
	DB	086H
	DB	049H
	DB	0a7H
	DB	049H
	DB	0a7H
	DB	049H
	DB	029H
	DB	052H
	DB	0ecH
	DB	062H
	DB	0abH
	DB	05aH
	DB	0abH
	DB	05aH
	DB	049H
	DB	052H
	DB	024H
	DB	029H
	DB	08bH
	DB	04aH
	DB	017H
	DB	085H
	DB	037H
	DB	085H
	DB	037H
	DB	08dH
	DB	037H
	DB	085H
	DB	037H
	DB	085H
	DB	037H
	DB	08dH
	DB	037H
	DB	08dH
	DB	037H
	DB	085H
	DB	037H
	DB	085H
	DB	016H
	DB	085H
	DB	037H
	DB	085H
	DB	037H
	DB	085H
	DB	016H
	DB	085H
	DB	017H
	DB	085H
	DB	017H
	DB	085H
	DB	016H
	DB	085H
	DB	016H
	DB	085H
	DB	037H
	DB	085H
	DB	017H
	DB	085H
	DB	017H
	DB	085H
	DB	017H
	DB	085H
	DB	017H
	DB	085H
	DB	016H
	DB	085H
	DB	017H
	DB	085H
	DB	017H
	DB	085H
	DB	016H
	DB	085H
	DB	017H
	DB	07dH
	DB	016H
	DB	085H
	DB	017H
	DB	085H
	DB	017H
	DB	085H
	DB	016H
	DB	085H
	DB	016H
	DB	085H
	DB	0f6H
	DB	07cH
	DB	016H
	DB	085H
	DB	016H
	DB	085H
	DB	016H
	DB	085H
	DB	0f6H
	DB	07cH
	DB	0f6H
	DB	07cH
	DB	0b5H
	DB	074H
	DB	0b5H
	DB	07cH
	DB	0b5H
	DB	07cH
	DB	0b5H
	DB	074H
	DB	0b5H
	DB	07cH
	DB	0b5H
	DB	074H
	DB	0d5H
	DB	07cH
	DB	0d5H
	DB	07cH
	DB	0d5H
	DB	07cH
	DB	0d5H
	DB	07cH
	DB	0d6H
	DB	07cH
	DB	0b5H
	DB	07cH
	DB	0d6H
	DB	07cH
	DB	0d6H
	DB	07cH
	DB	0d6H
	DB	07cH
	DB	0d5H
	DB	07cH
	DB	0d5H
	DB	07cH
	DB	0d6H
	DB	07cH
	DB	0f6H
	DB	07cH
	DB	0f5H
	DB	07cH
	DB	0f6H
	DB	07cH
	DB	0f6H
	DB	07cH
	DB	0f6H
	DB	07cH
	DB	0f6H
	DB	084H
	DB	0f6H
	DB	084H
	DB	016H
	DB	085H
	DB	0f6H
	DB	07cH
	DB	0f6H
	DB	084H
	DB	0f6H
	DB	07cH
	DB	0f6H
	DB	07cH
	DB	016H
	DB	085H
	DB	0f6H
	DB	07cH
	DB	0f6H
	DB	084H
	DB	016H
	DB	085H
	DB	0f6H
	DB	07cH
	DB	0f6H
	DB	084H
	DB	0f6H
	DB	084H
	DB	0f6H
	DB	07cH
	DB	016H
	DB	07dH
	DB	016H
	DB	085H
	DB	016H
	DB	085H
	DB	016H
	DB	085H
	DB	016H
	DB	085H
	DB	017H
	DB	085H
	DB	017H
	DB	085H
	DB	017H
	DB	085H
	DB	017H
	DB	085H
	DB	016H
	DB	085H
	DB	016H
	DB	085H
	DB	017H
	DB	085H
	DB	017H
	DB	085H
	DB	017H
	DB	085H
	DB	017H
	DB	085H
	DB	017H
	DB	085H
	DB	017H
	DB	085H
	DB	0b3H
	DB	09cH
	DB	02fH
	DB	0b4H
	DB	02aH
	DB	093H
	DB	02eH
	DB	0b4H
	DB	0f6H
	DB	0edH
	DB	036H
	DB	0eeH
	DB	0ceH
	DB	0a3H
	DB	06cH
	DB	083H
	DB	0ceH
	DB	09bH
	DB	0ceH
	DB	09bH
	DB	04bH
	DB	09bH
	DB	04bH
	DB	09bH
	DB	0cdH
	DB	0abH
	DB	04fH
	DB	0c4H
	DB	0b0H
	DB	0ccH
	DB	012H
	DB	0ddH
	DB	011H
	DB	0ddH
	DB	073H
	DB	0e5H
	DB	093H
	DB	0e5H
	DB	093H
	DB	0e5H
	DB	073H
	DB	0edH
	DB	094H
	DB	0edH
	DB	0d5H
	DB	0f5H
	DB	015H
	DB	0f6H
	DB	015H
	DB	0f6H
	DB	036H
	DB	0f6H
	DB	098H
	DB	0feH
	DB	0d8H
	DB	0feH
	DB	0b9H
	DB	0feH
	DB	0daH
	DB	0feH
	DB	01aH
	DB	0ffH
	DB	01aH
	DB	0ffH
	DB	01aH
	DB	0ffH
	DB	0faH
	DB	0feH
	DB	01aH
	DB	0ffH
	DB	01aH
	DB	0ffH
	DB	03bH
	DB	0ffH
	DB	01bH
	DB	0ffH
	DB	0f9H
	DB	0feH
	DB	057H
	DB	0eeH
	DB	036H
	DB	0f6H
	DB	0f5H
	DB	0edH
	DB	0d4H
	DB	0e5H
	DB	073H
	DB	0ddH
	DB	073H
	DB	0ddH
	DB	052H
	DB	0ddH
	DB	032H
	DB	0d5H
	DB	032H
	DB	0ddH
	DB	073H
	DB	0e5H
	DB	0b4H
	DB	0e5H
	DB	036H
	DB	0f6H
	DB	098H
	DB	0feH
	DB	057H
	DB	0f6H
	DB	093H
	DB	0ddH
	DB	0cdH
	DB	0abH
	DB	0c9H
	DB	082H
	DB	08bH
	DB	093H
	DB	0d0H
	DB	0c4H
	DB	052H
	DB	0d5H
	DB	073H
	DB	0d5H
	DB	052H
	DB	0d5H
	DB	053H
	DB	0d5H
	DB	072H
	DB	0ddH
	DB	011H
	DB	0cdH
	DB	06fH
	DB	0bcH
	DB	0dH
	DB	0b4H
	DB	0ccH
	DB	0abH
	DB	0cdH
	DB	0abH
	DB	02bH
	DB	093H
	DB	088H
	DB	082H
	DB	0e7H
	DB	069H
	DB	0c6H
	DB	061H
	DB	0a6H
	DB	059H
	DB	0c7H
	DB	051H
	DB	065H
	DB	049H
	DB	085H
	DB	051H
	DB	0e7H
	DB	059H
	DB	07H
	DB	05aH
	DB	0c7H
	DB	051H
	DB	0a7H
	DB	049H
	DB	04aH
	DB	05aH
	DB	0cbH
	DB	062H
	DB	08aH
	DB	052H
	DB	0ebH
	DB	062H
	DB	0c6H
	DB	041H
	DB	0c3H
	DB	028H
	DB	08cH
	DB	052H
	DB	017H
	DB	085H
	DB	037H
	DB	08dH
	DB	037H
	DB	08dH
	DB	037H
	DB	08dH
	DB	037H
	DB	085H
	DB	037H
	DB	08dH
	DB	037H
	DB	085H
	DB	017H
	DB	085H
	DB	017H
	DB	085H
	DB	037H
	DB	08dH
	DB	037H
	DB	085H
	DB	017H
	DB	085H
	DB	016H
	DB	085H
	DB	037H
	DB	085H
	DB	017H
	DB	085H
	DB	017H
	DB	085H
	DB	016H
	DB	085H
	DB	017H
	DB	085H
	DB	016H
	DB	085H
	DB	037H
	DB	085H
	DB	017H
	DB	085H
	DB	037H
	DB	085H
	DB	016H
	DB	085H
	DB	017H
	DB	085H
	DB	017H
	DB	085H
	DB	016H
	DB	085H
	DB	017H
	DB	085H
	DB	0f6H
	DB	07cH
	DB	017H
	DB	085H
	DB	016H
	DB	085H
	DB	0f6H
	DB	07cH
	DB	017H
	DB	085H
	DB	017H
	DB	085H
	DB	016H
	DB	085H
	DB	016H
	DB	085H
	DB	016H
	DB	085H
	DB	0f6H
	DB	084H
	DB	016H
	DB	085H
	DB	0b5H
	DB	07cH
	DB	0b5H
	DB	07cH
	DB	0b5H
	DB	07cH
	DB	0b5H
	DB	07cH
	DB	0b5H
	DB	07cH
	DB	0b5H
	DB	07cH
	DB	0b5H
	DB	07cH
	DB	0d5H
	DB	07cH
	DB	0b5H
	DB	074H
	DB	0b5H
	DB	07cH
	DB	0d6H
	DB	07cH
	DB	0d5H
	DB	07cH
	DB	0d5H
	DB	07cH
	DB	0d5H
	DB	07cH
	DB	0d5H
	DB	07cH
	DB	0d6H
	DB	07cH
	DB	0f6H
	DB	084H
	DB	0f6H
	DB	07cH
	DB	0f6H
	DB	07cH
	DB	0f6H
	DB	084H
	DB	0f6H
	DB	084H
	DB	0f6H
	DB	07cH
	DB	0f6H
	DB	084H
	DB	0f6H
	DB	07cH
	DB	0f6H
	DB	07cH
	DB	0f6H
	DB	084H
	DB	0f6H
	DB	07cH
	DB	0f6H
	DB	07cH
	DB	0f6H
	DB	084H
	DB	016H
	DB	085H
	DB	0f6H
	DB	084H
	DB	016H
	DB	07dH
	DB	016H
	DB	085H
	DB	0f6H
	DB	084H
	DB	016H
	DB	07dH
	DB	016H
	DB	085H
	DB	0f6H
	DB	084H
	DB	016H
	DB	085H
	DB	016H
	DB	085H
	DB	016H
	DB	085H
	DB	0f6H
	DB	07cH
	DB	017H
	DB	085H
	DB	016H
	DB	085H
	DB	016H
	DB	085H
	DB	017H
	DB	085H
	DB	016H
	DB	085H
	DB	016H
	DB	085H
	DB	017H
	DB	085H
	DB	017H
	DB	085H
	DB	017H
	DB	085H
	DB	017H
	DB	085H
	DB	037H
	DB	085H
	DB	037H
	DB	085H
	DB	037H
	DB	085H
	DB	017H
	DB	085H
	DB	0d4H
	DB	09cH
	DB	0f3H
	DB	0c4H
	DB	0f1H
	DB	0c4H
	DB	0cdH
	DB	0abH
	DB	012H
	DB	0cdH
	DB	016H
	DB	0e6H
	DB	050H
	DB	0acH
	DB	06dH
	DB	08bH
	DB	0eeH
	DB	09bH
	DB	0adH
	DB	09bH
	DB	06bH
	DB	09bH
	DB	04bH
	DB	09bH
	DB	0cdH
	DB	0b3H
	DB	04eH
	DB	0bcH
	DB	090H
	DB	0c4H
	DB	0f1H
	DB	0d4H
	DB	0f1H
	DB	0d4H
	DB	052H
	DB	0ddH
	DB	052H
	DB	0e5H
	DB	093H
	DB	0e5H
	DB	093H
	DB	0edH
	DB	0b4H
	DB	0f5H
	DB	0b4H
	DB	0f5H
	DB	0f5H
	DB	0f5H
	DB	015H
	DB	0f6H
	DB	016H
	DB	0f6H
	DB	077H
	DB	0feH
	DB	098H
	DB	0feH
	DB	0b8H
	DB	0feH
	DB	0d9H
	DB	0feH
	DB	0faH
	DB	0feH
	DB	0faH
	DB	0feH
	DB	01aH
	DB	0ffH
	DB	0faH
	DB	0feH
	DB	01aH
	DB	0ffH
	DB	01aH
	DB	0ffH
	DB	03bH
	DB	0ffH
	DB	01aH
	DB	0ffH
	DB	0b8H
	DB	0f6H
	DB	077H
	DB	0f6H
	DB	036H
	DB	0eeH
	DB	0d4H
	DB	0e5H
	DB	0b4H
	DB	0e5H
	DB	073H
	DB	0ddH
	DB	073H
	DB	0ddH
	DB	032H
	DB	0ddH
	DB	011H
	DB	0d5H
	DB	032H
	DB	0ddH
	DB	073H
	DB	0e5H
	DB	0d5H
	DB	0edH
	DB	057H
	DB	0f6H
	DB	0b8H
	DB	0feH
	DB	016H
	DB	0eeH
	DB	053H
	DB	0ddH
	DB	0acH
	DB	0a3H
	DB	0c9H
	DB	082H
	DB	04bH
	DB	093H
	DB	06fH
	DB	0b4H
	DB	011H
	DB	0cdH
	DB	052H
	DB	0d5H
	DB	073H
	DB	0ddH
	DB	073H
	DB	0ddH
	DB	052H
	DB	0ddH
	DB	052H
	DB	0ddH
	DB	031H
	DB	0d5H
	DB	06fH
	DB	0bcH
	DB	0ccH
	DB	0abH
	DB	06bH
	DB	09bH
	DB	04bH
	DB	09bH
	DB	0e9H
	DB	08aH
	DB	0a9H
	DB	082H
	DB	0c9H
	DB	07aH
	DB	048H
	DB	06aH
	DB	0c6H
	DB	059H
	DB	0a6H
	DB	059H
	DB	07H
	DB	062H
	DB	089H
	DB	07aH
	DB	048H
	DB	06aH
	DB	0c6H
	DB	051H
	DB	0e7H
	DB	051H
	DB	0abH
	DB	062H
	DB	0abH
	DB	05aH
	DB	0abH
	DB	05aH
	DB	0aaH
	DB	05aH
	DB	024H
	DB	031H
	DB	0a3H
	DB	020H
	DB	0b0H
	DB	073H
	DB	037H
	DB	08dH
	DB	037H
	DB	085H
	DB	037H
	DB	085H
	DB	057H
	DB	08dH
	DB	037H
	DB	08dH
	DB	037H
	DB	08dH
	DB	057H
	DB	08dH
	DB	037H
	DB	08dH
	DB	037H
	DB	085H
	DB	037H
	DB	08dH
	DB	037H
	DB	08dH
	DB	037H
	DB	08dH
	DB	037H
	DB	08dH
	DB	037H
	DB	08dH
	DB	037H
	DB	085H
	DB	037H
	DB	085H
	DB	037H
	DB	085H
	DB	017H
	DB	085H
	DB	017H
	DB	085H
	DB	037H
	DB	085H
	DB	017H
	DB	085H
	DB	017H
	DB	085H
	DB	017H
	DB	085H
	DB	017H
	DB	085H
	DB	037H
	DB	085H
	DB	017H
	DB	085H
	DB	017H
	DB	085H
	DB	017H
	DB	085H
	DB	017H
	DB	085H
	DB	017H
	DB	085H
	DB	016H
	DB	085H
	DB	016H
	DB	085H
	DB	017H
	DB	085H
	DB	0f6H
	DB	07cH
	DB	017H
	DB	085H
	DB	017H
	DB	085H
	DB	016H
	DB	085H
	DB	016H
	DB	085H
	DB	0d5H
	DB	07cH
	DB	0b5H
	DB	07cH
	DB	0b5H
	DB	074H
	DB	0b5H
	DB	07cH
	DB	0b5H
	DB	07cH
	DB	0d5H
	DB	07cH
	DB	0d5H
	DB	07cH
	DB	0b6H
	DB	07cH
	DB	0d6H
	DB	07cH
	DB	0d5H
	DB	07cH
	DB	0d6H
	DB	07cH
	DB	0d6H
	DB	07cH
	DB	0d6H
	DB	07cH
	DB	0d6H
	DB	07cH
	DB	0d6H
	DB	07cH
	DB	0f6H
	DB	084H
	DB	0f6H
	DB	084H
	DB	0d5H
	DB	07cH
	DB	0f6H
	DB	084H
	DB	0f6H
	DB	084H
	DB	0f6H
	DB	07cH
	DB	0f6H
	DB	07cH
	DB	0f6H
	DB	084H
	DB	0f6H
	DB	07cH
	DB	016H
	DB	085H
	DB	0f6H
	DB	07cH
	DB	0f6H
	DB	084H
	DB	016H
	DB	07dH
	DB	0f6H
	DB	084H
	DB	016H
	DB	085H
	DB	0f6H
	DB	07cH
	DB	016H
	DB	085H
	DB	017H
	DB	085H
	DB	016H
	DB	085H
	DB	0f6H
	DB	07cH
	DB	016H
	DB	085H
	DB	017H
	DB	085H
	DB	017H
	DB	085H
	DB	016H
	DB	085H
	DB	017H
	DB	085H
	DB	017H
	DB	085H
	DB	017H
	DB	085H
	DB	017H
	DB	085H
	DB	017H
	DB	085H
	DB	017H
	DB	085H
	DB	017H
	DB	085H
	DB	017H
	DB	085H
	DB	017H
	DB	085H
	DB	017H
	DB	085H
	DB	016H
	DB	085H
	DB	037H
	DB	085H
	DB	037H
	DB	085H
	DB	016H
	DB	085H
	DB	017H
	DB	085H
	DB	037H
	DB	085H
	DB	015H
	DB	095H
	DB	0d3H
	DB	0b4H
	DB	012H
	DB	0c5H
	DB	050H
	DB	0bcH
	DB	04fH
	DB	0bcH
	DB	012H
	DB	0cdH
	DB	0fH
	DB	0a4H
	DB	06cH
	DB	083H
	DB	0eeH
	DB	09bH
	DB	08cH
	DB	09bH
	DB	08cH
	DB	09bH
	DB	06cH
	DB	0a3H
	DB	0edH
	DB	0b3H
	DB	02eH
	DB	0bcH
	DB	04eH
	DB	0c4H
	DB	090H
	DB	0ccH
	DB	011H
	DB	0d5H
	DB	052H
	DB	0ddH
	DB	052H
	DB	0e5H
	DB	052H
	DB	0e5H
	DB	073H
	DB	0e5H
	DB	0b4H
	DB	0f5H
	DB	0b4H
	DB	0f5H
	DB	0f5H
	DB	0f5H
	DB	0f5H
	DB	0f5H
	DB	0f5H
	DB	0f5H
	DB	056H
	DB	0feH
	DB	057H
	DB	0f6H
	DB	077H
	DB	0f6H
	DB	0b9H
	DB	0feH
	DB	0b9H
	DB	0feH
	DB	0faH
	DB	0feH
	DB	0faH
	DB	0feH
	DB	0faH
	DB	0feH
	DB	0faH
	DB	0feH
	DB	0faH
	DB	0feH
	DB	0faH
	DB	0f6H
	DB	0b9H
	DB	0f6H
	DB	057H
	DB	0eeH
	DB	056H
	DB	0f6H
	DB	015H
	DB	0eeH
	DB	093H
	DB	0ddH
	DB	073H
	DB	0ddH
	DB	073H
	DB	0ddH
	DB	053H
	DB	0ddH
	DB	032H
	DB	0d5H
	DB	031H
	DB	0d5H
	DB	052H
	DB	0ddH
	DB	053H
	DB	0e5H
	DB	0d5H
	DB	0edH
	DB	077H
	DB	0f6H
	DB	078H
	DB	0f6H
	DB	016H
	DB	0eeH
	DB	052H
	DB	0ddH
	DB	0ccH
	DB	0a3H
	DB	0c9H
	DB	082H
	DB	02aH
	DB	08bH
	DB	0dH
	DB	0acH
	DB	0f0H
	DB	0ccH
	DB	011H
	DB	0d5H
	DB	053H
	DB	0d5H
	DB	073H
	DB	0ddH
	DB	032H
	DB	0d5H
	DB	032H
	DB	0d5H
	DB	052H
	DB	0d5H
	DB	032H
	DB	0d5H
	DB	0f1H
	DB	0ccH
	DB	090H
	DB	0c4H
	DB	06eH
	DB	0bcH
	DB	0edH
	DB	0abH
	DB	0adH
	DB	0a3H
	DB	02bH
	DB	08bH
	DB	068H
	DB	072H
	DB	07H
	DB	062H
	DB	047H
	DB	06aH
	DB	0eaH
	DB	082H
	DB	0e9H
	DB	082H
	DB	068H
	DB	072H
	DB	07H
	DB	05aH
	DB	048H
	DB	05aH
	DB	0cbH
	DB	062H
	DB	06aH
	DB	052H
	DB	0cbH
	DB	062H
	DB	0a7H
	DB	041H
	DB	021H
	DB	010H
	DB	0c8H
	DB	039H
	DB	017H
	DB	095H
	DB	057H
	DB	08dH
	DB	037H
	DB	08dH
	DB	038H
	DB	08dH
	DB	058H
	DB	08dH
	DB	037H
	DB	08dH
	DB	038H
	DB	08dH
	DB	037H
	DB	085H
	DB	037H
	DB	085H
	DB	037H
	DB	08dH
	DB	037H
	DB	085H
	DB	037H
	DB	085H
	DB	037H
	DB	085H
	DB	057H
	DB	08dH
	DB	037H
	DB	08dH
	DB	037H
	DB	08dH
	DB	037H
	DB	08dH
	DB	037H
	DB	08dH
	DB	037H
	DB	08dH
	DB	037H
	DB	085H
	DB	037H
	DB	085H
	DB	037H
	DB	08dH
	DB	037H
	DB	08dH
	DB	017H
	DB	085H
	DB	037H
	DB	085H
	DB	037H
	DB	085H
	DB	037H
	DB	085H
	DB	037H
	DB	085H
	DB	037H
	DB	085H
	DB	017H
	DB	085H
	DB	017H
	DB	085H
	DB	016H
	DB	085H
	DB	017H
	DB	085H
	DB	016H
	DB	085H
	DB	016H
	DB	085H
	DB	016H
	DB	085H
	DB	017H
	DB	085H
	DB	016H
	DB	085H
	DB	016H
	DB	07dH
	DB	0b5H
	DB	07cH
	DB	0d6H
	DB	07cH
	DB	0d6H
	DB	07cH
	DB	0d5H
	DB	07cH
	DB	0d5H
	DB	07cH
	DB	0d6H
	DB	07cH
	DB	0d6H
	DB	07cH
	DB	0d5H
	DB	07cH
	DB	0d6H
	DB	07cH
	DB	0f6H
	DB	07cH
	DB	0d5H
	DB	07cH
	DB	0d5H
	DB	07cH
	DB	0d6H
	DB	07cH
	DB	0f6H
	DB	07cH
	DB	0f6H
	DB	084H
	DB	0f6H
	DB	07cH
	DB	0f6H
	DB	084H
	DB	0f6H
	DB	07cH
	DB	0f6H
	DB	07cH
	DB	0f6H
	DB	07cH
	DB	0f6H
	DB	07cH
	DB	0f6H
	DB	084H
	DB	0f6H
	DB	084H
	DB	016H
	DB	085H
	DB	016H
	DB	085H
	DB	0f6H
	DB	07cH
	DB	016H
	DB	085H
	DB	016H
	DB	085H
	DB	016H
	DB	085H
	DB	016H
	DB	085H
	DB	016H
	DB	085H
	DB	017H
	DB	085H
	DB	016H
	DB	085H
	DB	017H
	DB	085H
