; Listing generated by Microsoft (R) Optimizing Compiler Version 19.28.29914.0 

	TITLE	C:\TouchGFXProjects\Brainiac\build\Debug\obj\image_background_Welcome.obj
	.686P
	.XMM
	include listing.inc
	.model	flat

INCLUDELIB MSVCRTD
INCLUDELIB OLDNAMES

PUBLIC	?image_background_welcome@@3QBEB		; image_background_welcome
CONST	SEGMENT
?image_background_welcome@@3QBEB DB 06H			; image_background_welcome
	DB	021H
	DB	06H
	DB	021H
	DB	026H
	DB	021H
	DB	026H
	DB	021H
	DB	06H
	DB	021H
	DB	026H
	DB	021H
	DB	026H
	DB	021H
	DB	06H
	DB	021H
	DB	06H
	DB	021H
	DB	06H
	DB	021H
	DB	026H
	DB	021H
	DB	06H
	DB	021H
	DB	06H
	DB	021H
	DB	06H
	DB	021H
	DB	026H
	DB	021H
	DB	026H
	DB	021H
	DB	06H
	DB	021H
	DB	026H
	DB	021H
	DB	026H
	DB	021H
	DB	026H
	DB	021H
	DB	06H
	DB	021H
	DB	06H
	DB	021H
	DB	026H
	DB	021H
	DB	026H
	DB	021H
	DB	06H
	DB	021H
	DB	026H
	DB	021H
	DB	026H
	DB	021H
	DB	026H
	DB	021H
	DB	026H
	DB	021H
	DB	026H
	DB	021H
	DB	026H
	DB	021H
	DB	026H
	DB	021H
	DB	06H
	DB	021H
	DB	06H
	DB	021H
	DB	06H
	DB	021H
	DB	026H
	DB	021H
	DB	026H
	DB	021H
	DB	06H
	DB	021H
	DB	06H
	DB	021H
	DB	06H
	DB	021H
	DB	06H
	DB	021H
	DB	026H
	DB	021H
	DB	06H
	DB	021H
	DB	026H
	DB	021H
	DB	026H
	DB	021H
	DB	026H
	DB	021H
	DB	06H
	DB	021H
	DB	026H
	DB	021H
	DB	06H
	DB	021H
	DB	06H
	DB	019H
	DB	026H
	DB	021H
	DB	06H
	DB	021H
	DB	026H
	DB	021H
	DB	06H
	DB	021H
	DB	06H
	DB	021H
	DB	026H
	DB	021H
	DB	06H
	DB	021H
	DB	0e5H
	DB	018H
	DB	06H
	DB	019H
	DB	06H
	DB	021H
	DB	06H
	DB	021H
	DB	06H
	DB	021H
	DB	026H
	DB	021H
	DB	026H
	DB	021H
	DB	06H
	DB	021H
	DB	06H
	DB	021H
	DB	06H
	DB	019H
	DB	06H
	DB	021H
	DB	026H
	DB	021H
	DB	06H
	DB	021H
	DB	026H
	DB	021H
	DB	026H
	DB	021H
	DB	026H
	DB	021H
	DB	06H
	DB	021H
	DB	026H
	DB	021H
	DB	06H
	DB	021H
	DB	06H
	DB	021H
	DB	06H
	DB	021H
	DB	06H
	DB	021H
	DB	06H
	DB	021H
	DB	026H
	DB	021H
	DB	06H
	DB	021H
	DB	06H
	DB	021H
	DB	026H
	DB	021H
	DB	026H
	DB	021H
	DB	026H
	DB	021H
	DB	06H
	DB	021H
	DB	026H
	DB	021H
	DB	026H
	DB	021H
	DB	06H
	DB	021H
	DB	026H
	DB	021H
	DB	06H
	DB	021H
	DB	026H
	DB	021H
	DB	06H
	DB	021H
	DB	06H
	DB	021H
	DB	06H
	DB	021H
	DB	06H
	DB	021H
	DB	026H
	DB	021H
	DB	06H
	DB	021H
	DB	06H
	DB	021H
	DB	026H
	DB	021H
	DB	026H
	DB	021H
	DB	06H
	DB	021H
	DB	06H
	DB	021H
	DB	026H
	DB	021H
	DB	06H
	DB	021H
	DB	06H
	DB	021H
	DB	06H
	DB	021H
	DB	06H
	DB	019H
	DB	06H
	DB	021H
	DB	026H
	DB	021H
	DB	026H
	DB	021H
	DB	06H
	DB	021H
	DB	06H
	DB	021H
	DB	06H
	DB	021H
	DB	026H
	DB	021H
	DB	06H
	DB	019H
	DB	06H
	DB	021H
	DB	026H
	DB	021H
	DB	06H
	DB	021H
	DB	06H
	DB	021H
	DB	06H
	DB	021H
	DB	06H
	DB	021H
	DB	06H
	DB	021H
	DB	06H
	DB	021H
	DB	026H
	DB	021H
	DB	06H
	DB	021H
	DB	06H
	DB	021H
	DB	06H
	DB	019H
	DB	026H
	DB	021H
	DB	026H
	DB	021H
	DB	026H
	DB	021H
	DB	06H
	DB	021H
	DB	06H
	DB	021H
	DB	026H
	DB	021H
	DB	026H
	DB	021H
	DB	026H
	DB	021H
	DB	06H
	DB	021H
	DB	06H
	DB	021H
	DB	06H
	DB	021H
	DB	026H
	DB	021H
	DB	06H
	DB	021H
	DB	06H
	DB	021H
	DB	026H
	DB	021H
	DB	026H
	DB	021H
	DB	06H
	DB	021H
	DB	06H
	DB	021H
	DB	06H
	DB	019H
	DB	06H
	DB	021H
	DB	026H
	DB	021H
	DB	06H
	DB	021H
	DB	06H
	DB	021H
	DB	026H
	DB	021H
	DB	026H
	DB	021H
	DB	06H
	DB	021H
	DB	06H
	DB	021H
	DB	026H
	DB	021H
	DB	06H
	DB	021H
	DB	06H
	DB	021H
	DB	026H
	DB	021H
	DB	026H
	DB	021H
	DB	026H
	DB	021H
	DB	06H
	DB	021H
	DB	06H
	DB	021H
	DB	06H
	DB	021H
	DB	06H
	DB	021H
	DB	06H
	DB	021H
	DB	026H
	DB	021H
	DB	06H
	DB	021H
	DB	06H
	DB	021H
	DB	06H
	DB	021H
	DB	06H
	DB	021H
	DB	06H
	DB	021H
	DB	026H
	DB	021H
	DB	026H
	DB	021H
	DB	026H
	DB	021H
	DB	026H
	DB	021H
	DB	026H
	DB	021H
	DB	026H
	DB	021H
	DB	06H
	DB	021H
	DB	06H
	DB	021H
	DB	026H
	DB	021H
	DB	026H
	DB	021H
	DB	06H
	DB	021H
	DB	06H
	DB	021H
	DB	026H
	DB	021H
	DB	026H
	DB	021H
	DB	06H
	DB	021H
	DB	06H
	DB	021H
	DB	06H
	DB	021H
	DB	06H
	DB	021H
	DB	06H
	DB	021H
	DB	026H
	DB	021H
	DB	06H
	DB	021H
	DB	026H
	DB	021H
	DB	026H
	DB	021H
	DB	026H
	DB	021H
	DB	06H
	DB	021H
	DB	026H
	DB	021H
	DB	06H
	DB	021H
	DB	06H
	DB	021H
	DB	026H
	DB	021H
	DB	026H
	DB	021H
	DB	026H
	DB	021H
	DB	06H
	DB	021H
	DB	06H
	DB	021H
	DB	06H
	DB	021H
	DB	026H
	DB	021H
	DB	026H
	DB	021H
	DB	06H
	DB	021H
	DB	026H
	DB	021H
	DB	06H
	DB	019H
	DB	06H
	DB	021H
	DB	026H
	DB	021H
	DB	06H
	DB	021H
	DB	06H
	DB	021H
	DB	06H
	DB	021H
	DB	026H
	DB	021H
	DB	06H
	DB	021H
	DB	06H
	DB	021H
	DB	06H
	DB	021H
	DB	026H
	DB	021H
	DB	026H
	DB	021H
	DB	06H
	DB	021H
	DB	06H
	DB	021H
	DB	06H
	DB	021H
	DB	026H
	DB	021H
	DB	026H
	DB	021H
	DB	026H
	DB	021H
	DB	026H
	DB	021H
	DB	026H
	DB	021H
	DB	06H
	DB	021H
	DB	06H
	DB	021H
	DB	026H
	DB	021H
	DB	06H
	DB	021H
	DB	06H
	DB	021H
	DB	026H
	DB	021H
	DB	026H
	DB	021H
	DB	026H
	DB	021H
	DB	06H
	DB	021H
	DB	026H
	DB	021H
	DB	026H
	DB	021H
	DB	06H
	DB	021H
	DB	06H
	DB	021H
	DB	06H
	DB	021H
	DB	026H
	DB	021H
	DB	026H
	DB	021H
	DB	026H
	DB	021H
	DB	06H
	DB	021H
	DB	06H
	DB	021H
	DB	06H
	DB	019H
	DB	06H
	DB	021H
	DB	026H
	DB	021H
	DB	06H
	DB	021H
	DB	06H
	DB	019H
	DB	06H
	DB	021H
	DB	06H
	DB	021H
	DB	026H
	DB	021H
	DB	026H
	DB	021H
	DB	06H
	DB	021H
	DB	06H
	DB	021H
	DB	026H
	DB	021H
	DB	06H
	DB	019H
	DB	06H
	DB	021H
	DB	06H
	DB	021H
	DB	06H
	DB	021H
	DB	06H
	DB	021H
	DB	06H
	DB	021H
	DB	026H
	DB	021H
	DB	06H
	DB	021H
	DB	026H
	DB	021H
	DB	026H
	DB	021H
	DB	026H
	DB	021H
	DB	026H
	DB	021H
	DB	06H
	DB	021H
	DB	06H
	DB	021H
	DB	06H
	DB	021H
	DB	06H
	DB	021H
	DB	06H
	DB	021H
	DB	06H
	DB	019H
	DB	026H
	DB	021H
	DB	06H
	DB	021H
	DB	06H
	DB	021H
	DB	06H
	DB	021H
	DB	06H
	DB	019H
	DB	06H
	DB	019H
	DB	06H
	DB	021H
	DB	06H
	DB	021H
	DB	06H
	DB	021H
	DB	026H
	DB	021H
	DB	026H
	DB	021H
	DB	06H
	DB	021H
	DB	06H
	DB	021H
	DB	06H
	DB	021H
	DB	06H
	DB	019H
	DB	06H
	DB	021H
	DB	026H
	DB	021H
	DB	06H
	DB	021H
	DB	06H
	DB	021H
	DB	026H
	DB	021H
	DB	026H
	DB	021H
	DB	06H
	DB	021H
	DB	06H
	DB	021H
	DB	06H
	DB	021H
	DB	06H
	DB	019H
	DB	06H
	DB	021H
	DB	026H
	DB	021H
	DB	026H
	DB	021H
	DB	026H
	DB	021H
	DB	06H
	DB	021H
	DB	06H
	DB	021H
	DB	06H
	DB	021H
	DB	06H
	DB	019H
	DB	026H
	DB	021H
	DB	06H
	DB	021H
	DB	06H
	DB	021H
	DB	026H
	DB	021H
	DB	026H
	DB	021H
	DB	06H
	DB	021H
	DB	026H
	DB	021H
	DB	06H
	DB	021H
	DB	06H
	DB	021H
	DB	026H
	DB	021H
	DB	026H
	DB	021H
	DB	06H
	DB	021H
	DB	06H
	DB	021H
	DB	026H
	DB	021H
	DB	026H
	DB	021H
	DB	06H
	DB	021H
	DB	026H
	DB	021H
	DB	06H
	DB	021H
	DB	026H
	DB	021H
	DB	026H
	DB	021H
	DB	026H
	DB	021H
	DB	026H
	DB	021H
	DB	06H
	DB	021H
	DB	06H
	DB	021H
	DB	06H
	DB	021H
	DB	06H
	DB	019H
	DB	06H
	DB	021H
	DB	026H
	DB	021H
	DB	06H
	DB	021H
	DB	026H
	DB	021H
	DB	06H
	DB	021H
	DB	06H
	DB	021H
	DB	06H
	DB	021H
	DB	06H
	DB	021H
	DB	026H
	DB	021H
	DB	026H
	DB	021H
	DB	026H
	DB	021H
	DB	026H
	DB	021H
	DB	06H
	DB	021H
	DB	06H
	DB	021H
	DB	06H
	DB	019H
	DB	026H
	DB	021H
	DB	06H
	DB	021H
	DB	026H
	DB	021H
	DB	06H
	DB	021H
	DB	06H
	DB	019H
	DB	026H
	DB	021H
	DB	06H
	DB	021H
	DB	06H
	DB	019H
	DB	026H
	DB	021H
	DB	026H
	DB	021H
	DB	06H
	DB	021H
	DB	06H
	DB	021H
	DB	06H
	DB	021H
	DB	06H
	DB	021H
	DB	026H
	DB	021H
	DB	026H
	DB	021H
	DB	06H
	DB	021H
	DB	06H
	DB	021H
	DB	026H
	DB	021H
	DB	026H
	DB	021H
	DB	026H
	DB	021H
	DB	026H
	DB	021H
	DB	026H
	DB	021H
	DB	06H
	DB	021H
	DB	06H
	DB	021H
	DB	026H
	DB	021H
	DB	06H
	DB	021H
	DB	026H
	DB	021H
	DB	026H
	DB	021H
	DB	06H
	DB	021H
	DB	026H
	DB	021H
	DB	026H
	DB	021H
	DB	06H
	DB	021H
	DB	06H
	DB	021H
	DB	026H
	DB	021H
	DB	026H
	DB	021H
	DB	026H
	DB	021H
	DB	026H
	DB	021H
	DB	026H
	DB	021H
	DB	026H
	DB	021H
	DB	06H
	DB	021H
	DB	06H
	DB	019H
	DB	06H
	DB	021H
	DB	026H
	DB	021H
	DB	026H
	DB	021H
	DB	06H
	DB	021H
	DB	06H
	DB	021H
	DB	026H
	DB	021H
	DB	06H
	DB	021H
	DB	06H
	DB	021H
	DB	06H
	DB	021H
	DB	06H
	DB	019H
	DB	06H
	DB	019H
	DB	06H
	DB	021H
	DB	026H
	DB	021H
	DB	06H
	DB	021H
	DB	06H
	DB	021H
	DB	06H
	DB	021H
	DB	06H
	DB	021H
	DB	06H
	DB	021H
	DB	06H
	DB	021H
	DB	06H
	DB	019H
	DB	06H
	DB	021H
	DB	06H
	DB	021H
	DB	026H
	DB	021H
	DB	026H
	DB	021H
	DB	026H
	DB	021H
	DB	06H
	DB	021H
	DB	06H
	DB	021H
	DB	026H
	DB	021H
	DB	06H
	DB	021H
	DB	026H
	DB	021H
	DB	06H
	DB	021H
	DB	06H
	DB	021H
	DB	06H
	DB	021H
	DB	06H
	DB	021H
	DB	06H
	DB	021H
	DB	06H
	DB	021H
	DB	06H
	DB	021H
	DB	026H
	DB	021H
	DB	06H
	DB	021H
	DB	026H
	DB	021H
	DB	06H
	DB	021H
	DB	06H
	DB	019H
	DB	026H
	DB	021H
	DB	026H
	DB	021H
	DB	026H
	DB	021H
	DB	06H
	DB	021H
	DB	026H
	DB	021H
	DB	026H
	DB	021H
	DB	06H
	DB	021H
	DB	06H
	DB	021H
	DB	026H
	DB	021H
	DB	06H
	DB	021H
	DB	06H
	DB	021H
	DB	06H
	DB	021H
	DB	06H
	DB	019H
	DB	06H
	DB	021H
	DB	06H
	DB	021H
	DB	026H
	DB	021H
	DB	026H
	DB	021H
	DB	06H
	DB	021H
	DB	06H
	DB	021H
	DB	06H
	DB	019H
	DB	06H
	DB	021H
	DB	06H
	DB	021H
	DB	026H
	DB	021H
	DB	026H
	DB	021H
	DB	026H
	DB	021H
	DB	026H
	DB	021H
	DB	06H
	DB	021H
	DB	026H
	DB	021H
	DB	06H
	DB	021H
	DB	06H
	DB	021H
	DB	026H
	DB	021H
	DB	026H
	DB	021H
	DB	06H
	DB	021H
	DB	026H
	DB	021H
	DB	026H
	DB	021H
	DB	026H
	DB	021H
	DB	06H
	DB	021H
	DB	026H
	DB	021H
	DB	06H
	DB	021H
	DB	06H
	DB	021H
	DB	026H
	DB	021H
	DB	06H
	DB	021H
	DB	06H
	DB	019H
	DB	06H
	DB	021H
	DB	026H
	DB	021H
	DB	026H
	DB	021H
	DB	06H
	DB	021H
	DB	026H
	DB	021H
	DB	026H
	DB	021H
	DB	06H
	DB	019H
	DB	06H
	DB	021H
	DB	06H
	DB	021H
	DB	026H
	DB	021H
	DB	026H
	DB	021H
	DB	06H
	DB	021H
	DB	06H
	DB	021H
	DB	026H
	DB	021H
	DB	026H
	DB	021H
	DB	06H
	DB	021H
	DB	026H
	DB	021H
	DB	026H
	DB	021H
	DB	026H
	DB	021H
	DB	06H
	DB	021H
	DB	026H
	DB	021H
	DB	06H
	DB	021H
	DB	026H
	DB	021H
	DB	06H
	DB	021H
	DB	026H
	DB	021H
	DB	027H
	DB	021H
	DB	026H
	DB	021H
	DB	026H
	DB	021H
	DB	026H
	DB	021H
	DB	026H
	DB	021H
	DB	026H
	DB	021H
	DB	06H
	DB	021H
	DB	06H
	DB	021H
	DB	026H
	DB	021H
	DB	026H
	DB	021H
	DB	026H
	DB	021H
	DB	06H
	DB	021H
	DB	026H
	DB	021H
	DB	026H
	DB	021H
	DB	06H
	DB	019H
	DB	026H
	DB	021H
	DB	06H
	DB	021H
	DB	026H
	DB	021H
	DB	026H
	DB	021H
	DB	026H
	DB	021H
	DB	026H
	DB	021H
	DB	026H
	DB	021H
	DB	06H
	DB	021H
	DB	06H
	DB	019H
	DB	026H
	DB	021H
	DB	06H
	DB	021H
	DB	026H
	DB	021H
	DB	06H
	DB	021H
	DB	06H
	DB	021H
	DB	026H
	DB	021H
	DB	06H
	DB	021H
	DB	06H
	DB	019H
	DB	05H
	DB	021H
	DB	026H
	DB	021H
	DB	06H
	DB	021H
	DB	06H
	DB	021H
	DB	026H
	DB	021H
	DB	026H
	DB	021H
	DB	06H
	DB	021H
	DB	026H
	DB	021H
	DB	05H
	DB	019H
	DB	06H
	DB	021H
	DB	026H
	DB	021H
	DB	06H
	DB	021H
	DB	026H
	DB	021H
	DB	026H
	DB	021H
	DB	026H
	DB	021H
	DB	06H
	DB	021H
	DB	026H
	DB	021H
	DB	06H
	DB	021H
	DB	06H
	DB	019H
	DB	06H
	DB	021H
	DB	06H
	DB	021H
	DB	06H
	DB	019H
	DB	026H
	DB	021H
	DB	026H
	DB	021H
	DB	06H
	DB	021H
	DB	026H
	DB	021H
	DB	026H
	DB	021H
	DB	026H
	DB	021H
	DB	06H
	DB	021H
	DB	026H
	DB	021H
	DB	026H
	DB	021H
	DB	06H
	DB	021H
	DB	026H
	DB	021H
	DB	06H
	DB	021H
	DB	026H
	DB	021H
	DB	026H
	DB	021H
	DB	026H
	DB	021H
	DB	06H
	DB	021H
	DB	06H
	DB	019H
	DB	026H
	DB	021H
	DB	06H
	DB	021H
	DB	026H
	DB	021H
	DB	047H
	DB	021H
	DB	026H
	DB	021H
	DB	06H
	DB	021H
	DB	026H
	DB	021H
	DB	026H
	DB	021H
	DB	026H
	DB	021H
	DB	06H
	DB	021H
	DB	06H
	DB	021H
	DB	05H
	DB	019H
	DB	06H
	DB	021H
	DB	026H
	DB	021H
	DB	026H
	DB	021H
	DB	06H
	DB	021H
	DB	026H
	DB	021H
	DB	06H
	DB	021H
	DB	026H
	DB	021H
	DB	05H
	DB	019H
	DB	06H
	DB	021H
	DB	026H
	DB	021H
	DB	06H
	DB	021H
	DB	026H
	DB	021H
	DB	026H
	DB	021H
	DB	06H
	DB	021H
	DB	026H
	DB	021H
	DB	06H
	DB	019H
	DB	026H
	DB	021H
	DB	026H
	DB	021H
	DB	06H
	DB	021H
	DB	06H
	DB	021H
	DB	026H
	DB	021H
	DB	026H
	DB	021H
	DB	026H
	DB	021H
	DB	06H
	DB	021H
	DB	06H
	DB	021H
	DB	026H
	DB	021H
	DB	026H
	DB	021H
	DB	027H
	DB	021H
	DB	026H
	DB	021H
	DB	06H
	DB	021H
	DB	06H
	DB	019H
	DB	026H
	DB	021H
	DB	06H
	DB	021H
	DB	026H
	DB	021H
	DB	026H
	DB	021H
	DB	026H
	DB	021H
	DB	06H
	DB	021H
	DB	06H
	DB	021H
	DB	06H
	DB	019H
	DB	06H
	DB	021H
	DB	026H
	DB	021H
	DB	026H
	DB	021H
	DB	06H
	DB	021H
	DB	026H
	DB	021H
	DB	026H
	DB	021H
	DB	06H
	DB	021H
	DB	06H
	DB	019H
	DB	026H
	DB	021H
	DB	06H
	DB	021H
	DB	06H
	DB	021H
	DB	026H
	DB	021H
	DB	026H
	DB	021H
	DB	026H
	DB	021H
	DB	06H
	DB	021H
	DB	06H
	DB	021H
	DB	06H
	DB	019H
	DB	06H
	DB	021H
	DB	06H
	DB	021H
	DB	026H
	DB	021H
	DB	026H
	DB	021H
	DB	06H
	DB	021H
	DB	06H
	DB	019H
	DB	026H
	DB	021H
	DB	06H
	DB	021H
	DB	026H
	DB	021H
	DB	026H
	DB	021H
	DB	026H
	DB	021H
	DB	026H
	DB	021H
	DB	026H
	DB	021H
	DB	026H
	DB	021H
	DB	026H
	DB	021H
	DB	06H
	DB	021H
	DB	026H
	DB	021H
	DB	026H
	DB	021H
	DB	026H
	DB	021H
	DB	06H
	DB	021H
	DB	026H
	DB	021H
	DB	026H
	DB	021H
	DB	06H
	DB	021H
	DB	06H
	DB	019H
	DB	06H
	DB	021H
	DB	026H
	DB	021H
	DB	026H
	DB	021H
	DB	06H
	DB	021H
	DB	06H
	DB	021H
	DB	026H
	DB	021H
	DB	026H
	DB	021H
	DB	026H
	DB	021H
	DB	06H
	DB	021H
	DB	026H
	DB	021H
	DB	06H
	DB	021H
	DB	06H
	DB	019H
	DB	026H
	DB	021H
	DB	026H
	DB	021H
	DB	026H
	DB	021H
	DB	06H
	DB	021H
	DB	06H
	DB	019H
	DB	026H
	DB	021H
	DB	026H
	DB	021H
	DB	026H
	DB	021H
	DB	06H
	DB	021H
	DB	026H
	DB	021H
	DB	06H
	DB	019H
	DB	05H
	DB	021H
	DB	026H
	DB	021H
	DB	06H
	DB	021H
	DB	06H
	DB	019H
	DB	026H
	DB	021H
	DB	026H
	DB	021H
	DB	06H
	DB	021H
	DB	026H
	DB	021H
	DB	06H
	DB	021H
	DB	026H
	DB	021H
	DB	026H
	DB	021H
	DB	06H
	DB	021H
	DB	026H
	DB	021H
	DB	06H
	DB	021H
	DB	06H
	DB	021H
	DB	026H
	DB	021H
	DB	026H
	DB	021H
	DB	026H
	DB	021H
	DB	026H
	DB	021H
	DB	026H
	DB	021H
	DB	06H
	DB	021H
	DB	026H
	DB	021H
	DB	06H
	DB	021H
	DB	06H
	DB	021H
	DB	026H
	DB	021H
	DB	026H
	DB	021H
	DB	026H
	DB	021H
	DB	06H
	DB	021H
	DB	026H
	DB	021H
	DB	026H
	DB	021H
	DB	06H
	DB	021H
	DB	026H
	DB	021H
	DB	06H
	DB	021H
	DB	026H
	DB	021H
	DB	026H
	DB	021H
	DB	026H
	DB	021H
	DB	06H
	DB	021H
	DB	06H
	DB	019H
	DB	06H
	DB	021H
	DB	06H
	DB	021H
	DB	026H
	DB	021H
	DB	06H
	DB	021H
	DB	05H
	DB	019H
	DB	06H
	DB	021H
	DB	06H
	DB	021H
	DB	026H
	DB	021H
	DB	026H
	DB	021H
	DB	06H
	DB	019H
	DB	06H
	DB	021H
	DB	026H
	DB	021H
	DB	05H
	DB	019H
	DB	06H
	DB	021H
	DB	06H
	DB	021H
	DB	06H
	DB	019H
	DB	06H
	DB	021H
	DB	06H
	DB	021H
	DB	026H
	DB	021H
	DB	06H
	DB	021H
	DB	026H
	DB	021H
	DB	026H
	DB	021H
	DB	026H
	DB	021H
	DB	026H
	DB	021H
	DB	06H
	DB	021H
	DB	06H
	DB	021H
	DB	06H
	DB	021H
	DB	026H
	DB	021H
	DB	06H
	DB	021H
	DB	06H
	DB	021H
	DB	026H
	DB	021H
	DB	06H
	DB	021H
	DB	06H
	DB	021H
	DB	06H
	DB	021H
	DB	05H
	DB	021H
	DB	05H
	DB	019H
	DB	06H
	DB	021H
	DB	06H
	DB	021H
	DB	026H
	DB	021H
	DB	026H
	DB	021H
	DB	026H
	DB	021H
	DB	06H
	DB	019H
	DB	06H
	DB	021H
	DB	06H
	DB	021H
	DB	06H
	DB	021H
	DB	026H
	DB	021H
	DB	026H
	DB	021H
	DB	026H
	DB	021H
	DB	06H
	DB	021H
	DB	026H
	DB	021H
	DB	026H
	DB	021H
	DB	06H
	DB	021H
	DB	06H
	DB	021H
	DB	06H
	DB	019H
	DB	06H
	DB	021H
	DB	026H
	DB	021H
	DB	026H
	DB	021H
	DB	026H
	DB	021H
	DB	026H
	DB	021H
	DB	06H
	DB	021H
	DB	06H
	DB	019H
	DB	06H
	DB	021H
	DB	06H
	DB	021H
	DB	026H
	DB	021H
	DB	06H
	DB	021H
	DB	06H
	DB	021H
	DB	026H
	DB	021H
	DB	026H
	DB	021H
	DB	06H
	DB	019H
	DB	026H
	DB	021H
	DB	06H
	DB	021H
	DB	026H
	DB	021H
	DB	026H
	DB	021H
	DB	026H
	DB	021H
	DB	06H
	DB	021H
	DB	06H
	DB	021H
	DB	026H
	DB	021H
	DB	026H
	DB	021H
	DB	06H
	DB	021H
	DB	026H
	DB	021H
	DB	06H
	DB	021H
	DB	047H
	DB	021H
	DB	026H
	DB	021H
	DB	026H
	DB	021H
	DB	026H
	DB	021H
	DB	06H
	DB	021H
	DB	06H
	DB	021H
	DB	06H
	DB	021H
	DB	06H
	DB	019H
	DB	06H
	DB	021H
	DB	026H
	DB	021H
	DB	06H
	DB	021H
	DB	026H
	DB	021H
	DB	06H
	DB	021H
	DB	026H
	DB	021H
	DB	06H
	DB	021H
	DB	026H
	DB	021H
	DB	026H
	DB	021H
	DB	026H
	DB	021H
	DB	026H
	DB	021H
	DB	026H
	DB	021H
	DB	06H
	DB	021H
	DB	06H
	DB	021H
	DB	06H
	DB	021H
	DB	026H
	DB	021H
	DB	06H
	DB	021H
	DB	026H
	DB	021H
	DB	026H
	DB	021H
	DB	06H
	DB	021H
	DB	026H
	DB	021H
	DB	06H
	DB	021H
	DB	06H
	DB	019H
	DB	026H
	DB	021H
	DB	026H
	DB	021H
	DB	06H
	DB	021H
	DB	06H
	DB	021H
	DB	026H
	DB	021H
	DB	06H
	DB	021H
	DB	026H
	DB	021H
	DB	026H
	DB	021H
	DB	026H
	DB	021H
	DB	06H
	DB	021H
	DB	06H
	DB	021H
	DB	026H
	DB	021H
	DB	026H
	DB	021H
	DB	026H
	DB	021H
	DB	026H
	DB	021H
	DB	06H
	DB	021H
	DB	06H
	DB	021H
	DB	026H
	DB	021H
	DB	06H
	DB	019H
	DB	026H
	DB	021H
	DB	026H
	DB	021H
	DB	06H
	DB	021H
	DB	026H
	DB	021H
	DB	026H
	DB	021H
	DB	06H
	DB	021H
	DB	06H
	DB	021H
	DB	026H
	DB	021H
	DB	026H
	DB	021H
	DB	06H
	DB	021H
	DB	026H
	DB	021H
	DB	026H
	DB	021H
	DB	06H
	DB	021H
	DB	06H
	DB	021H
	DB	06H
	DB	019H
	DB	06H
	DB	021H
	DB	026H
	DB	021H
	DB	026H
	DB	021H
	DB	06H
	DB	021H
	DB	06H
	DB	021H
	DB	026H
	DB	021H
	DB	06H
	DB	019H
	DB	06H
	DB	021H
	DB	06H
	DB	021H
	DB	06H
	DB	021H
	DB	05H
	DB	019H
	DB	06H
	DB	021H
	DB	026H
	DB	021H
	DB	06H
	DB	021H
	DB	06H
	DB	021H
	DB	06H
	DB	019H
	DB	026H
	DB	021H
	DB	06H
	DB	019H
	DB	026H
	DB	021H
	DB	06H
	DB	021H
	DB	06H
	DB	019H
	DB	06H
	DB	021H
	DB	026H
	DB	021H
	DB	026H
	DB	021H
	DB	026H
	DB	021H
	DB	026H
	DB	021H
	DB	06H
	DB	021H
	DB	026H
	DB	021H
	DB	06H
	DB	021H
	DB	026H
	DB	021H
	DB	06H
	DB	021H
	DB	06H
	DB	019H
	DB	06H
	DB	021H
	DB	026H
	DB	021H
	DB	06H
	DB	019H
	DB	06H
	DB	021H
	DB	026H
	DB	021H
	DB	026H
	DB	021H
	DB	06H
	DB	021H
	DB	026H
	DB	021H
	DB	06H
	DB	021H
	DB	06H
	DB	019H
	DB	026H
	DB	021H
	DB	026H
	DB	021H
	DB	026H
	DB	021H
	DB	06H
	DB	021H
	DB	026H
	DB	021H
	DB	026H
	DB	021H
	DB	06H
	DB	021H
	DB	06H
	DB	021H
	DB	026H
	DB	021H
	DB	06H
	DB	021H
	DB	06H
	DB	021H
	DB	06H
	DB	021H
	DB	05H
	DB	019H
	DB	06H
	DB	021H
	DB	06H
	DB	021H
	DB	026H
	DB	021H
	DB	026H
	DB	021H
	DB	06H
	DB	021H
	DB	06H
	DB	021H
	DB	06H
	DB	019H
	DB	06H
	DB	021H
	DB	06H
	DB	021H
	DB	026H
	DB	021H
	DB	026H
	DB	021H
	DB	026H
	DB	021H
	DB	026H
	DB	021H
	DB	06H
	DB	021H
	DB	026H
	DB	021H
	DB	06H
	DB	021H
	DB	026H
	DB	021H
	DB	027H
	DB	021H
	DB	06H
	DB	021H
	DB	06H
	DB	021H
	DB	026H
	DB	021H
	DB	026H
	DB	021H
	DB	026H
	DB	021H
	DB	026H
	DB	021H
	DB	026H
	DB	021H
	DB	06H
	DB	021H
	DB	026H
	DB	021H
	DB	026H
	DB	021H
	DB	06H
	DB	021H
	DB	026H
	DB	021H
	DB	06H
	DB	021H
	DB	06H
	DB	021H
	DB	026H
	DB	021H
	DB	06H
	DB	021H
	DB	026H
	DB	021H
	DB	026H
	DB	021H
	DB	06H
	DB	021H
	DB	06H
	DB	019H
	DB	05H
	DB	019H
	DB	06H
	DB	019H
	DB	026H
	DB	021H
	DB	026H
	DB	021H
	DB	06H
	DB	021H
	DB	026H
	DB	021H
	DB	06H
	DB	021H
	DB	026H
	DB	021H
	DB	026H
	DB	021H
	DB	026H
	DB	021H
	DB	06H
	DB	021H
	DB	026H
	DB	021H
	DB	026H
	DB	021H
	DB	06H
	DB	021H
	DB	027H
	DB	021H
	DB	026H
	DB	021H
	DB	026H
	DB	021H
	DB	06H
	DB	021H
	DB	026H
	DB	021H
	DB	026H
	DB	021H
	DB	027H
	DB	021H
	DB	027H
	DB	021H
	DB	026H
	DB	021H
	DB	06H
	DB	019H
	DB	06H
	DB	021H
	DB	026H
	DB	021H
	DB	06H
	DB	021H
	DB	06H
	DB	019H
	DB	026H
	DB	021H
	DB	026H
	DB	021H
	DB	026H
	DB	021H
	DB	026H
	DB	021H
	DB	026H
	DB	021H
	DB	06H
	DB	021H
	DB	06H
	DB	021H
	DB	027H
	DB	021H
	DB	026H
	DB	021H
	DB	06H
	DB	021H
	DB	06H
	DB	021H
	DB	06H
	DB	021H
	DB	06H
	DB	021H
	DB	05H
	DB	019H
	DB	06H
	DB	021H
	DB	06H
	DB	021H
	DB	06H
	DB	019H
	DB	06H
	DB	019H
	DB	026H
	DB	021H
	DB	026H
	DB	021H
	DB	026H
	DB	021H
	DB	026H
	DB	021H
	DB	026H
	DB	021H
	DB	026H
	DB	021H
	DB	06H
	DB	021H
	DB	06H
	DB	019H
	DB	026H
	DB	021H
	DB	026H
	DB	021H
	DB	026H
	DB	021H
	DB	026H
	DB	021H
	DB	026H
	DB	021H
	DB	026H
	DB	021H
	DB	026H
	DB	021H
	DB	026H
	DB	021H
	DB	06H
	DB	021H
	DB	06H
	DB	021H
	DB	026H
	DB	021H
	DB	06H
	DB	021H
	DB	06H
	DB	021H
	DB	026H
	DB	021H
	DB	026H
	DB	021H
	DB	026H
	DB	021H
	DB	026H
	DB	021H
	DB	06H
	DB	019H
	DB	06H
	DB	021H
	DB	026H
	DB	021H
	DB	026H
	DB	021H
	DB	06H
	DB	021H
	DB	06H
	DB	021H
	DB	06H
	DB	021H
	DB	026H
	DB	021H
	DB	026H
	DB	021H
	DB	06H
	DB	021H
	DB	026H
	DB	021H
	DB	06H
	DB	019H
	DB	026H
	DB	021H
	DB	026H
	DB	021H
	DB	06H
	DB	019H
	DB	06H
	DB	021H
	DB	06H
	DB	021H
	DB	06H
	DB	019H
	DB	026H
	DB	021H
	DB	026H
	DB	021H
	DB	06H
	DB	021H
	DB	06H
	DB	021H
	DB	026H
	DB	021H
	DB	026H
	DB	021H
	DB	06H
	DB	021H
	DB	026H
	DB	021H
	DB	026H
	DB	021H
	DB	06H
	DB	019H
	DB	06H
	DB	021H
	DB	026H
	DB	021H
	DB	06H
	DB	021H
	DB	06H
	DB	019H
	DB	06H
	DB	019H
	DB	06H
	DB	021H
	DB	026H
	DB	021H
	DB	06H
	DB	021H
	DB	026H
	DB	021H
	DB	06H
	DB	021H
	DB	06H
	DB	021H
	DB	026H
	DB	021H
	DB	026H
	DB	021H
	DB	06H
	DB	019H
	DB	06H
	DB	021H
	DB	05H
	DB	019H
	DB	06H
	DB	021H
	DB	06H
	DB	021H
	DB	06H
	DB	019H
	DB	026H
	DB	021H
	DB	026H
	DB	021H
	DB	06H
	DB	021H
	DB	06H
	DB	019H
	DB	06H
	DB	021H
	DB	026H
	DB	021H
	DB	026H
	DB	021H
	DB	026H
	DB	021H
	DB	06H
	DB	021H
	DB	06H
	DB	021H
	DB	026H
	DB	021H
	DB	026H
	DB	021H
	DB	06H
	DB	021H
	DB	06H
	DB	019H
	DB	026H
	DB	021H
	DB	026H
	DB	021H
	DB	06H
	DB	021H
	DB	06H
	DB	021H
	DB	026H
	DB	021H
	DB	026H
	DB	021H
	DB	026H
	DB	021H
	DB	06H
	DB	021H
	DB	026H
	DB	021H
	DB	026H
	DB	021H
	DB	06H
	DB	021H
	DB	026H
	DB	021H
	DB	026H
	DB	021H
	DB	026H
	DB	021H
	DB	026H
	DB	021H
	DB	026H
	DB	021H
	DB	026H
	DB	021H
	DB	06H
	DB	021H
	DB	06H
	DB	019H
	DB	026H
	DB	021H
	DB	026H
	DB	021H
	DB	0e6H
	DB	018H
	DB	06H
	DB	021H
	DB	026H
	DB	021H
	DB	026H
	DB	021H
	DB	06H
	DB	019H
	DB	026H
	DB	021H
	DB	026H
	DB	021H
	DB	026H
	DB	021H
	DB	026H
	DB	021H
	DB	026H
	DB	021H
	DB	026H
	DB	021H
	DB	06H
	DB	021H
	DB	026H
	DB	021H
	DB	06H
	DB	021H
	DB	026H
	DB	021H
	DB	06H
	DB	021H
	DB	06H
	DB	021H
	DB	026H
	DB	021H
	DB	026H
	DB	021H
	DB	06H
	DB	021H
	DB	026H
	DB	021H
	DB	026H
	DB	021H
	DB	06H
	DB	021H
	DB	026H
	DB	021H
	DB	06H
	DB	021H
	DB	06H
	DB	021H
	DB	06H
	DB	019H
	DB	06H
	DB	021H
	DB	06H
	DB	021H
	DB	026H
	DB	021H
	DB	026H
	DB	021H
	DB	026H
	DB	021H
	DB	026H
	DB	021H
	DB	06H
	DB	021H
	DB	026H
	DB	021H
	DB	026H
	DB	021H
	DB	026H
	DB	021H
	DB	026H
	DB	021H
	DB	06H
	DB	021H
	DB	026H
	DB	021H
	DB	06H
	DB	021H
	DB	06H
	DB	021H
	DB	06H
	DB	019H
	DB	06H
	DB	021H
	DB	026H
	DB	021H
	DB	06H
	DB	021H
	DB	026H
	DB	021H
	DB	026H
	DB	021H
	DB	06H
	DB	021H
	DB	06H
	DB	021H
	DB	026H
	DB	021H
	DB	06H
	DB	019H
	DB	026H
	DB	021H
	DB	06H
	DB	021H
	DB	06H
	DB	021H
	DB	06H
	DB	019H
	DB	026H
	DB	021H
	DB	026H
	DB	021H
	DB	026H
	DB	021H
	DB	06H
	DB	019H
	DB	06H
	DB	021H
	DB	026H
	DB	021H
	DB	06H
	DB	021H
	DB	06H
	DB	019H
	DB	026H
	DB	021H
	DB	026H
	DB	021H
	DB	06H
	DB	021H
	DB	06H
	DB	021H
	DB	026H
	DB	021H
	DB	026H
	DB	021H
	DB	06H
	DB	021H
	DB	06H
	DB	019H
	DB	06H
	DB	019H
	DB	06H
	DB	021H
	DB	026H
	DB	021H
	DB	026H
	DB	021H
	DB	06H
	DB	021H
	DB	06H
	DB	021H
	DB	06H
	DB	021H
	DB	026H
	DB	021H
	DB	06H
	DB	019H
	DB	06H
	DB	021H
	DB	06H
	DB	021H
	DB	06H
	DB	019H
	DB	06H
	DB	021H
	DB	06H
	DB	021H
	DB	026H
	DB	021H
	DB	026H
	DB	021H
	DB	026H
	DB	021H
	DB	026H
	DB	021H
	DB	06H
	DB	021H
	DB	06H
	DB	021H
	DB	026H
	DB	021H
	DB	06H
	DB	019H
	DB	06H
	DB	021H
	DB	06H
	DB	021H
	DB	06H
	DB	019H
	DB	026H
	DB	021H
	DB	06H
	DB	021H
	DB	026H
	DB	021H
	DB	06H
	DB	021H
	DB	06H
	DB	021H
	DB	026H
	DB	021H
	DB	026H
	DB	021H
	DB	06H
	DB	021H
	DB	026H
	DB	021H
	DB	06H
	DB	019H
	DB	06H
	DB	019H
	DB	026H
	DB	021H
	DB	026H
	DB	021H
	DB	026H
	DB	021H
	DB	06H
	DB	021H
	DB	026H
	DB	021H
	DB	026H
	DB	021H
	DB	026H
	DB	021H
	DB	026H
	DB	021H
	DB	06H
	DB	019H
	DB	026H
	DB	021H
	DB	026H
	DB	021H
	DB	026H
	DB	021H
	DB	026H
	DB	021H
	DB	026H
	DB	021H
	DB	06H
	DB	021H
	DB	06H
	DB	021H
	DB	026H
	DB	021H
	DB	06H
	DB	021H
	DB	06H
	DB	019H
	DB	026H
	DB	021H
	DB	026H
	DB	021H
	DB	026H
	DB	021H
	DB	06H
	DB	021H
	DB	026H
	DB	021H
	DB	06H
	DB	021H
	DB	026H
	DB	021H
	DB	026H
	DB	021H
	DB	06H
	DB	021H
	DB	026H
	DB	021H
	DB	026H
	DB	021H
	DB	06H
	DB	021H
	DB	06H
	DB	019H
	DB	026H
	DB	021H
	DB	026H
	DB	021H
	DB	06H
	DB	021H
	DB	026H
	DB	021H
	DB	026H
	DB	021H
	DB	027H
	DB	021H
	DB	06H
	DB	021H
	DB	026H
	DB	021H
	DB	06H
	DB	021H
	DB	026H
	DB	021H
	DB	026H
	DB	021H
	DB	026H
	DB	021H
	DB	06H
	DB	019H
	DB	06H
	DB	021H
	DB	026H
	DB	021H
	DB	06H
	DB	021H
	DB	06H
	DB	021H
	DB	06H
	DB	021H
	DB	026H
	DB	021H
	DB	06H
	DB	021H
	DB	026H
	DB	021H
	DB	026H
	DB	021H
	DB	026H
	DB	021H
	DB	026H
	DB	021H
	DB	026H
	DB	021H
	DB	026H
	DB	021H
	DB	026H
	DB	021H
	DB	06H
	DB	021H
	DB	06H
	DB	019H
	DB	026H
	DB	021H
	DB	026H
	DB	021H
	DB	06H
	DB	021H
	DB	026H
	DB	021H
	DB	06H
	DB	019H
	DB	06H
	DB	021H
	DB	026H
	DB	021H
	DB	06H
	DB	021H
	DB	06H
	DB	019H
	DB	026H
	DB	021H
	DB	046H
	DB	021H
	DB	026H
	DB	021H
	DB	06H
	DB	019H
	DB	06H
	DB	019H
	DB	026H
	DB	021H
	DB	026H
	DB	021H
	DB	026H
	DB	021H
	DB	06H
	DB	021H
	DB	06H
	DB	021H
	DB	06H
	DB	019H
	DB	06H
	DB	019H
	DB	06H
	DB	021H
	DB	026H
	DB	021H
	DB	026H
	DB	021H
	DB	06H
	DB	019H
	DB	06H
	DB	021H
	DB	06H
	DB	019H
	DB	026H
	DB	021H
	DB	026H
	DB	021H
	DB	06H
	DB	021H
	DB	06H
	DB	021H
	DB	026H
	DB	021H
	DB	026H
	DB	021H
	DB	026H
	DB	021H
	DB	026H
	DB	021H
	DB	06H
	DB	021H
	DB	026H
	DB	021H
	DB	026H
	DB	021H
	DB	026H
	DB	021H
	DB	026H
	DB	021H
	DB	026H
	DB	021H
	DB	06H
	DB	021H
	DB	026H
	DB	021H
	DB	026H
	DB	021H
	DB	06H
	DB	021H
	DB	06H
	DB	021H
	DB	06H
	DB	021H
	DB	026H
	DB	021H
	DB	026H
	DB	021H
	DB	026H
	DB	021H
	DB	06H
	DB	021H
	DB	06H
	DB	021H
	DB	06H
	DB	021H
	DB	06H
	DB	021H
	DB	06H
	DB	019H
	DB	026H
	DB	021H
	DB	026H
	DB	021H
	DB	06H
	DB	021H
	DB	026H
	DB	021H
	DB	06H
	DB	021H
	DB	026H
	DB	021H
	DB	027H
	DB	021H
	DB	026H
	DB	021H
	DB	06H
	DB	021H
	DB	06H
	DB	021H
	DB	026H
	DB	021H
	DB	06H
	DB	021H
	DB	026H
	DB	021H
	DB	06H
	DB	021H
	DB	06H
	DB	021H
	DB	06H
	DB	019H
	DB	06H
	DB	021H
	DB	06H
	DB	019H
	DB	026H
	DB	021H
	DB	026H
	DB	021H
	DB	05H
	DB	021H
	DB	06H
	DB	021H
	DB	06H
	DB	019H
	DB	026H
	DB	021H
	DB	026H
	DB	021H
	DB	06H
	DB	019H
	DB	026H
	DB	021H
	DB	05H
	DB	021H
	DB	06H
	DB	021H
	DB	026H
	DB	021H
	DB	06H
	DB	021H
	DB	026H
	DB	021H
	DB	026H
	DB	021H
	DB	026H
	DB	021H
	DB	026H
	DB	021H
	DB	06H
	DB	021H
	DB	06H
	DB	021H
	DB	06H
	DB	019H
	DB	06H
	DB	021H
	DB	06H
	DB	019H
	DB	06H
	DB	021H
	DB	026H
	DB	021H
	DB	06H
	DB	019H
	DB	026H
	DB	021H
	DB	05H
	DB	019H
	DB	06H
	DB	019H
	DB	026H
	DB	021H
	DB	026H
	DB	021H
	DB	026H
	DB	021H
	DB	06H
	DB	021H
	DB	05H
	DB	019H
	DB	06H
	DB	021H
	DB	06H
	DB	021H
	DB	06H
	DB	021H
	DB	06H
	DB	021H
	DB	06H
	DB	021H
	DB	06H
	DB	021H
	DB	026H
	DB	021H
	DB	06H
	DB	021H
	DB	06H
	DB	019H
	DB	026H
	DB	021H
	DB	06H
	DB	019H
	DB	06H
	DB	021H
	DB	026H
	DB	021H
	DB	05H
	DB	019H
	DB	06H
	DB	021H
	DB	026H
	DB	021H
	DB	026H
	DB	021H
	DB	06H
	DB	019H
	DB	06H
	DB	021H
	DB	06H
	DB	021H
	DB	06H
	DB	021H
	DB	06H
	DB	021H
	DB	026H
	DB	021H
	DB	026H
	DB	021H
	DB	06H
	DB	021H
	DB	026H
	DB	021H
	DB	06H
	DB	021H
	DB	026H
	DB	021H
	DB	026H
	DB	021H
	DB	06H
	DB	021H
	DB	026H
	DB	021H
	DB	026H
	DB	021H
	DB	06H
	DB	021H
	DB	06H
	DB	019H
	DB	026H
	DB	021H
	DB	027H
	DB	021H
	DB	06H
	DB	021H
	DB	06H
	DB	021H
	DB	026H
	DB	021H
	DB	06H
	DB	019H
	DB	026H
	DB	021H
	DB	026H
	DB	021H
	DB	026H
	DB	021H
	DB	06H
	DB	021H
	DB	026H
	DB	021H
	DB	026H
	DB	021H
	DB	06H
	DB	021H
	DB	06H
	DB	019H
	DB	026H
	DB	021H
	DB	026H
	DB	021H
	DB	06H
	DB	021H
	DB	06H
	DB	019H
	DB	06H
	DB	021H
	DB	026H
	DB	021H
	DB	06H
	DB	021H
	DB	06H
	DB	021H
	DB	06H
	DB	019H
	DB	06H
	DB	021H
	DB	026H
	DB	021H
	DB	06H
	DB	019H
	DB	026H
	DB	021H
	DB	026H
	DB	021H
	DB	06H
	DB	021H
	DB	026H
	DB	021H
	DB	026H
	DB	021H
	DB	06H
	DB	019H
	DB	047H
	DB	021H
	DB	026H
	DB	021H
	DB	026H
	DB	021H
	DB	06H
	DB	021H
	DB	06H
	DB	021H
	DB	06H
	DB	021H
	DB	06H
	DB	021H
	DB	06H
	DB	021H
	DB	06H
	DB	021H
	DB	0e5H
	DB	018H
	DB	06H
	DB	021H
	DB	06H
	DB	021H
	DB	06H
	DB	021H
	DB	026H
	DB	021H
	DB	026H
	DB	021H
	DB	06H
	DB	021H
	DB	06H
	DB	021H
	DB	06H
	DB	019H
	DB	06H
	DB	021H
	DB	06H
	DB	021H
	DB	026H
	DB	021H
	DB	06H
	DB	021H
	DB	06H
	DB	021H
	DB	06H
	DB	021H
	DB	026H
	DB	021H
	DB	06H
	DB	019H
	DB	026H
	DB	021H
	DB	06H
	DB	021H
	DB	026H
	DB	021H
	DB	026H
	DB	021H
	DB	026H
	DB	021H
	DB	026H
	DB	021H
	DB	026H
	DB	021H
	DB	027H
	DB	021H
	DB	06H
	DB	021H
	DB	026H
	DB	021H
	DB	027H
	DB	021H
	DB	026H
	DB	021H
	DB	026H
	DB	021H
	DB	026H
	DB	021H
	DB	026H
	DB	021H
	DB	026H
	DB	021H
	DB	06H
	DB	019H
	DB	06H
	DB	021H
	DB	026H
	DB	021H
	DB	06H
	DB	021H
	DB	06H
	DB	019H
	DB	06H
	DB	021H
	DB	026H
	DB	021H
	DB	027H
	DB	021H
	DB	026H
	DB	021H
	DB	026H
	DB	021H
	DB	06H
	DB	019H
	DB	05H
	DB	019H
	DB	06H
	DB	019H
	DB	06H
	DB	021H
	DB	026H
	DB	021H
	DB	026H
	DB	021H
	DB	026H
	DB	021H
	DB	026H
	DB	021H
	DB	06H
	DB	021H
	DB	06H
	DB	021H
	DB	026H
	DB	021H
	DB	026H
	DB	021H
	DB	026H
	DB	021H
	DB	06H
	DB	019H
	DB	026H
	DB	021H
	DB	026H
	DB	021H
	DB	06H
	DB	021H
	DB	026H
	DB	021H
	DB	06H
	DB	019H
	DB	06H
	DB	021H
	DB	026H
	DB	021H
	DB	026H
	DB	021H
	DB	026H
	DB	021H
	DB	026H
	DB	021H
	DB	06H
	DB	021H
	DB	06H
	DB	019H
	DB	06H
	DB	021H
	DB	026H
	DB	021H
	DB	026H
	DB	021H
	DB	06H
	DB	021H
	DB	06H
	DB	019H
	DB	06H
	DB	021H
	DB	0e5H
	DB	018H
	DB	026H
	DB	021H
	DB	06H
	DB	021H
	DB	06H
	DB	019H
	DB	06H
	DB	021H
	DB	026H
	DB	021H
	DB	026H
	DB	021H
	DB	06H
	DB	019H
	DB	06H
	DB	021H
	DB	06H
	DB	019H
	DB	06H
	DB	019H
	DB	06H
	DB	021H
	DB	026H
	DB	021H
	DB	026H
	DB	021H
	DB	026H
	DB	021H
	DB	026H
	DB	021H
	DB	026H
	DB	021H
	DB	06H
	DB	021H
	DB	05H
	DB	019H
	DB	06H
	DB	021H
	DB	026H
	DB	021H
	DB	06H
	DB	021H
	DB	06H
	DB	021H
	DB	026H
	DB	021H
	DB	06H
	DB	021H
	DB	06H
	DB	019H
	DB	06H
	DB	021H
	DB	06H
	DB	019H
	DB	06H
	DB	019H
	DB	06H
	DB	021H
	DB	026H
	DB	021H
	DB	026H
	DB	021H
	DB	026H
	DB	021H
	DB	026H
	DB	021H
	DB	06H
	DB	021H
	DB	06H
	DB	019H
	DB	06H
	DB	019H
	DB	026H
	DB	021H
	DB	06H
	DB	019H
	DB	026H
	DB	021H
	DB	06H
	DB	021H
	DB	06H
	DB	021H
	DB	06H
	DB	019H
	DB	026H
	DB	021H
	DB	06H
	DB	019H
	DB	026H
	DB	021H
	DB	027H
	DB	021H
	DB	026H
	DB	021H
	DB	06H
	DB	021H
	DB	06H
	DB	021H
	DB	026H
	DB	021H
	DB	026H
	DB	021H
	DB	06H
	DB	021H
	DB	026H
	DB	021H
	DB	026H
	DB	021H
	DB	026H
	DB	021H
	DB	026H
	DB	021H
	DB	06H
	DB	021H
	DB	046H
	DB	021H
	DB	06H
	DB	021H
	DB	06H
	DB	019H
	DB	06H
	DB	019H
	DB	06H
	DB	021H
	DB	06H
	DB	021H
	DB	026H
	DB	021H
	DB	026H
	DB	021H
	DB	026H
	DB	021H
	DB	06H
	DB	021H
	DB	026H
	DB	021H
	DB	06H
	DB	021H
	DB	06H
	DB	021H
	DB	026H
	DB	021H
	DB	06H
	DB	021H
	DB	06H
	DB	019H
	DB	06H
	DB	021H
	DB	06H
	DB	021H
	DB	06H
	DB	021H
	DB	026H
	DB	021H
	DB	06H
	DB	019H
	DB	06H
	DB	019H
	DB	06H
	DB	021H
	DB	026H
	DB	021H
	DB	026H
	DB	021H
	DB	06H
	DB	019H
	DB	026H
	DB	021H
	DB	06H
	DB	019H
	DB	06H
	DB	021H
	DB	06H
	DB	019H
	DB	06H
	DB	021H
	DB	06H
	DB	021H
	DB	026H
	DB	021H
	DB	06H
	DB	021H
	DB	06H
	DB	021H
	DB	06H
	DB	019H
	DB	06H
	DB	021H
	DB	06H
	DB	021H
	DB	026H
	DB	021H
	DB	026H
	DB	021H
	DB	026H
	DB	021H
	DB	026H
	DB	021H
	DB	026H
	DB	021H
	DB	027H
	DB	021H
	DB	026H
	DB	021H
	DB	026H
	DB	021H
	DB	06H
	DB	021H
	DB	026H
	DB	021H
	DB	06H
	DB	021H
	DB	06H
	DB	021H
	DB	026H
	DB	021H
	DB	06H
	DB	021H
	DB	026H
	DB	021H
	DB	026H
	DB	021H
	DB	026H
	DB	021H
	DB	026H
	DB	021H
	DB	026H
	DB	021H
	DB	026H
	DB	021H
	DB	026H
	DB	021H
	DB	026H
	DB	021H
	DB	026H
	DB	021H
	DB	026H
	DB	021H
	DB	06H
	DB	021H
	DB	06H
	DB	019H
	DB	06H
	DB	021H
	DB	06H
	DB	021H
	DB	06H
	DB	021H
	DB	06H
	DB	021H
	DB	06H
	DB	019H
	DB	06H
	DB	021H
	DB	06H
	DB	019H
	DB	026H
	DB	021H
	DB	026H
	DB	021H
	DB	026H
	DB	021H
	DB	027H
	DB	021H
	DB	026H
	DB	021H
	DB	026H
	DB	021H
	DB	047H
	DB	021H
	DB	06H
	DB	021H
	DB	06H
	DB	021H
	DB	026H
	DB	021H
	DB	06H
	DB	019H
	DB	06H
	DB	021H
	DB	026H
	DB	021H
	DB	026H
	DB	021H
	DB	026H
	DB	021H
	DB	026H
	DB	021H
	DB	06H
	DB	021H
	DB	06H
	DB	021H
	DB	026H
	DB	021H
	DB	06H
	DB	021H
	DB	06H
	DB	019H
	DB	026H
	DB	021H
	DB	05H
	DB	021H
	DB	026H
	DB	021H
	DB	026H
	DB	021H
	DB	06H
	DB	021H
	DB	026H
	DB	021H
	DB	026H
	DB	021H
	DB	026H
	DB	021H
	DB	06H
	DB	021H
	DB	026H
	DB	021H
	DB	026H
	DB	021H
	DB	06H
	DB	021H
	DB	05H
	DB	019H
	DB	06H
	DB	021H
	DB	06H
	DB	021H
	DB	06H
	DB	021H
	DB	06H
	DB	021H
	DB	027H
	DB	021H
	DB	026H
	DB	021H
	DB	06H
	DB	021H
	DB	026H
	DB	021H
	DB	06H
	DB	021H
	DB	06H
	DB	021H
	DB	026H
	DB	021H
	DB	026H
	DB	021H
	DB	06H
	DB	019H
	DB	06H
	DB	019H
	DB	06H
	DB	021H
	DB	026H
	DB	021H
	DB	06H
	DB	019H
	DB	026H
	DB	021H
	DB	026H
	DB	021H
	DB	06H
	DB	021H
	DB	06H
	DB	021H
	DB	026H
	DB	021H
	DB	026H
	DB	021H
	DB	026H
	DB	021H
	DB	026H
	DB	021H
	DB	026H
	DB	021H
	DB	026H
	DB	021H
	DB	026H
	DB	021H
	DB	06H
	DB	021H
	DB	026H
	DB	021H
	DB	026H
	DB	021H
	DB	026H
	DB	021H
	DB	026H
	DB	021H
	DB	026H
	DB	021H
	DB	026H
	DB	021H
	DB	06H
	DB	021H
	DB	06H
	DB	021H
	DB	06H
	DB	021H
	DB	026H
	DB	021H
	DB	06H
	DB	021H
	DB	05H
	DB	019H
	DB	06H
	DB	019H
	DB	05H
	DB	019H
	DB	06H
	DB	021H
	DB	026H
	DB	021H
	DB	026H
	DB	021H
	DB	026H
	DB	021H
	DB	026H
	DB	021H
	DB	06H
	DB	021H
	DB	026H
	DB	021H
	DB	026H
	DB	021H
	DB	026H
	DB	021H
	DB	026H
	DB	021H
	DB	026H
	DB	021H
	DB	06H
	DB	021H
	DB	06H
	DB	019H
	DB	06H
	DB	021H
	DB	026H
	DB	021H
	DB	027H
	DB	021H
	DB	06H
	DB	021H
	DB	06H
	DB	021H
	DB	06H
	DB	021H
	DB	06H
	DB	021H
	DB	06H
	DB	021H
	DB	026H
	DB	021H
	DB	06H
	DB	021H
	DB	06H
	DB	019H
	DB	026H
	DB	021H
	DB	05H
	DB	021H
	DB	06H
	DB	021H
	DB	026H
	DB	021H
	DB	026H
	DB	021H
	DB	06H
	DB	021H
	DB	026H
	DB	021H
	DB	06H
	DB	021H
	DB	06H
	DB	021H
	DB	026H
	DB	021H
	DB	06H
	DB	021H
	DB	06H
	DB	021H
	DB	026H
	DB	021H
	DB	06H
	DB	021H
	DB	06H
	DB	021H
	DB	06H
	DB	021H
	DB	06H
	DB	021H
	DB	026H
	DB	021H
	DB	026H
	DB	021H
	DB	026H
	DB	021H
	DB	06H
	DB	021H
	DB	06H
	DB	021H
	DB	06H
	DB	021H
	DB	026H
	DB	021H
	DB	026H
	DB	021H
	DB	026H
	DB	021H
	DB	06H
	DB	021H
	DB	06H
	DB	021H
	DB	06H
	DB	021H
	DB	06H
	DB	019H
	DB	06H
	DB	019H
	DB	026H
	DB	021H
	DB	026H
	DB	021H
	DB	026H
	DB	021H
	DB	026H
	DB	021H
	DB	06H
	DB	021H
	DB	06H
	DB	021H
	DB	06H
	DB	021H
	DB	06H
	DB	019H
	DB	06H
	DB	019H
	DB	06H
	DB	021H
	DB	06H
	DB	021H
	DB	026H
	DB	021H
	DB	026H
	DB	021H
	DB	06H
	DB	019H
	DB	06H
	DB	021H
	DB	026H
	DB	021H
	DB	026H
	DB	021H
	DB	06H
	DB	019H
	DB	026H
	DB	021H
	DB	047H
	DB	021H
	DB	06H
	DB	021H
	DB	06H
	DB	019H
	DB	026H
	DB	021H
	DB	026H
	DB	021H
	DB	06H
	DB	021H
	DB	06H
	DB	021H
	DB	026H
	DB	021H
	DB	026H
	DB	021H
	DB	06H
	DB	021H
	DB	06H
	DB	021H
	DB	06H
	DB	019H
	DB	06H
	DB	019H
	DB	05H
	DB	019H
	DB	06H
	DB	021H
	DB	06H
	DB	021H
	DB	026H
	DB	021H
	DB	026H
	DB	021H
	DB	06H
	DB	019H
	DB	06H
	DB	021H
	DB	06H
	DB	021H
	DB	026H
	DB	021H
	DB	026H
	DB	021H
	DB	026H
	DB	021H
	DB	026H
	DB	021H
	DB	026H
	DB	021H
	DB	06H
	DB	021H
	DB	026H
	DB	021H
	DB	06H
	DB	019H
	DB	06H
	DB	021H
	DB	06H
	DB	021H
	DB	06H
	DB	021H
	DB	06H
	DB	021H
	DB	06H
	DB	019H
	DB	06H
	DB	021H
	DB	06H
	DB	021H
	DB	026H
	DB	021H
	DB	06H
	DB	019H
	DB	05H
	DB	019H
	DB	06H
	DB	021H
	DB	026H
	DB	021H
	DB	06H
	DB	021H
	DB	026H
	DB	021H
	DB	06H
	DB	021H
	DB	05H
	DB	019H
	DB	06H
	DB	021H
	DB	026H
	DB	021H
	DB	06H
	DB	021H
	DB	0e6H
	DB	018H
	DB	026H
	DB	021H
	DB	026H
	DB	021H
	DB	026H
	DB	021H
	DB	026H
	DB	021H
	DB	06H
	DB	021H
	DB	06H
	DB	021H
	DB	026H
	DB	021H
	DB	026H
	DB	021H
	DB	026H
	DB	021H
	DB	06H
	DB	021H
	DB	06H
	DB	021H
	DB	06H
	DB	019H
	DB	06H
	DB	021H
	DB	026H
	DB	021H
	DB	06H
	DB	021H
	DB	026H
	DB	021H
	DB	06H
	DB	021H
	DB	026H
	DB	021H
	DB	026H
	DB	021H
	DB	026H
	DB	021H
	DB	06H
	DB	019H
	DB	026H
	DB	021H
	DB	026H
	DB	021H
	DB	026H
	DB	021H
	DB	026H
	DB	021H
	DB	06H
	DB	021H
	DB	026H
	DB	021H
	DB	06H
	DB	021H
	DB	06H
	DB	019H
	DB	06H
	DB	019H
	DB	06H
	DB	021H
	DB	06H
	DB	021H
	DB	06H
	DB	021H
	DB	06H
	DB	021H
	DB	06H
	DB	021H
	DB	026H
	DB	021H
	DB	026H
	DB	021H
	DB	06H
	DB	021H
	DB	06H
	DB	019H
	DB	06H
	DB	021H
	DB	06H
	DB	019H
	DB	06H
	DB	021H
	DB	06H
	DB	021H
	DB	06H
	DB	021H
	DB	06H
	DB	021H
	DB	06H
	DB	019H
	DB	06H
	DB	021H
	DB	06H
	DB	021H
	DB	026H
	DB	021H
	DB	06H
	DB	021H
	DB	06H
	DB	021H
	DB	06H
	DB	021H
	DB	06H
	DB	021H
	DB	026H
	DB	021H
	DB	026H
	DB	021H
	DB	026H
	DB	021H
	DB	026H
	DB	021H
	DB	026H
	DB	021H
	DB	026H
	DB	021H
	DB	026H
	DB	021H
	DB	026H
	DB	021H
	DB	06H
	DB	021H
	DB	06H
	DB	021H
	DB	026H
	DB	021H
	DB	06H
	DB	019H
	DB	026H
	DB	021H
	DB	06H
	DB	021H
	DB	026H
	DB	021H
	DB	026H
	DB	021H
	DB	026H
	DB	021H
	DB	06H
	DB	021H
	DB	026H
	DB	021H
	DB	026H
	DB	021H
	DB	06H
	DB	021H
	DB	026H
	DB	021H
	DB	06H
	DB	021H
	DB	026H
	DB	021H
	DB	026H
	DB	021H
	DB	026H
	DB	021H
	DB	026H
	DB	021H
	DB	026H
	DB	021H
	DB	026H
	DB	021H
	DB	06H
	DB	021H
	DB	06H
	DB	021H
	DB	026H
	DB	021H
	DB	026H
	DB	021H
	DB	06H
	DB	019H
	DB	06H
	DB	019H
	DB	026H
	DB	021H
	DB	06H
	DB	019H
	DB	06H
	DB	019H
	DB	026H
	DB	021H
	DB	026H
	DB	021H
	DB	06H
	DB	021H
	DB	026H
	DB	021H
	DB	026H
	DB	021H
	DB	06H
	DB	021H
	DB	026H
	DB	021H
	DB	026H
	DB	021H
	DB	06H
	DB	021H
	DB	06H
	DB	021H
	DB	06H
	DB	021H
	DB	06H
	DB	021H
	DB	06H
	DB	021H
	DB	026H
	DB	021H
	DB	026H
	DB	021H
	DB	06H
	DB	021H
	DB	06H
	DB	021H
	DB	06H
	DB	021H
	DB	026H
	DB	021H
	DB	026H
	DB	021H
	DB	06H
	DB	021H
	DB	026H
	DB	021H
	DB	026H
	DB	021H
	DB	027H
	DB	021H
	DB	026H
	DB	021H
	DB	06H
	DB	021H
	DB	026H
	DB	021H
	DB	026H
	DB	021H
	DB	026H
	DB	021H
	DB	026H
	DB	021H
	DB	026H
	DB	021H
	DB	06H
	DB	021H
	DB	06H
	DB	021H
	DB	06H
	DB	021H
	DB	026H
	DB	021H
	DB	026H
	DB	021H
	DB	06H
	DB	019H
	DB	06H
	DB	019H
	DB	06H
	DB	019H
	DB	06H
	DB	021H
	DB	06H
	DB	021H
	DB	026H
	DB	021H
	DB	06H
	DB	021H
	DB	026H
	DB	021H
	DB	026H
	DB	021H
	DB	06H
	DB	021H
	DB	026H
	DB	021H
	DB	026H
	DB	021H
	DB	026H
	DB	021H
	DB	06H
	DB	021H
	DB	026H
	DB	021H
	DB	06H
	DB	021H
	DB	06H
	DB	021H
	DB	06H
	DB	019H
	DB	026H
	DB	021H
	DB	026H
	DB	021H
	DB	06H
	DB	021H
	DB	06H
	DB	021H
	DB	06H
	DB	019H
	DB	06H
	DB	021H
	DB	026H
	DB	021H
	DB	026H
	DB	021H
	DB	06H
	DB	021H
	DB	06H
	DB	021H
	DB	026H
	DB	021H
	DB	06H
	DB	021H
	DB	06H
	DB	021H
	DB	026H
	DB	021H
	DB	06H
	DB	021H
	DB	026H
	DB	021H
	DB	026H
	DB	021H
	DB	06H
	DB	021H
	DB	06H
	DB	021H
	DB	026H
	DB	021H
	DB	06H
	DB	021H
	DB	026H
	DB	021H
	DB	06H
	DB	019H
	DB	026H
	DB	021H
	DB	06H
	DB	021H
	DB	06H
	DB	021H
	DB	06H
	DB	021H
	DB	026H
	DB	021H
	DB	026H
	DB	021H
	DB	026H
	DB	021H
	DB	06H
	DB	021H
	DB	06H
	DB	021H
	DB	06H
	DB	021H
	DB	026H
	DB	021H
	DB	026H
	DB	021H
	DB	06H
	DB	021H
	DB	06H
	DB	021H
	DB	026H
	DB	021H
	DB	06H
	DB	019H
	DB	06H
	DB	021H
	DB	06H
	DB	021H
	DB	026H
	DB	021H
	DB	06H
	DB	021H
	DB	06H
	DB	021H
	DB	026H
	DB	021H
	DB	06H
	DB	021H
	DB	06H
	DB	021H
	DB	06H
	DB	019H
	DB	06H
	DB	021H
	DB	06H
	DB	021H
	DB	06H
	DB	021H
	DB	06H
	DB	021H
	DB	026H
	DB	021H
	DB	06H
	DB	021H
	DB	06H
	DB	021H
	DB	026H
	DB	021H
	DB	06H
	DB	021H
	DB	06H
	DB	021H
	DB	026H
	DB	021H
	DB	026H
	DB	021H
	DB	026H
	DB	021H
	DB	06H
	DB	021H
	DB	06H
	DB	021H
	DB	026H
	DB	021H
	DB	026H
	DB	021H
	DB	06H
	DB	021H
	DB	026H
	DB	021H
	DB	026H
	DB	021H
	DB	06H
	DB	021H
	DB	06H
	DB	021H
	DB	06H
	DB	021H
	DB	06H
	DB	021H
	DB	06H
	DB	019H
	DB	06H
	DB	019H
	DB	06H
	DB	021H
	DB	06H
	DB	021H
	DB	026H
	DB	021H
	DB	06H
	DB	021H
	DB	06H
	DB	021H
	DB	06H
	DB	021H
	DB	026H
	DB	021H
	DB	026H
	DB	021H
	DB	026H
	DB	021H
	DB	026H
	DB	021H
	DB	026H
	DB	021H
	DB	026H
	DB	021H
	DB	026H
	DB	021H
	DB	026H
	DB	021H
	DB	05H
	DB	019H
	DB	026H
	DB	021H
	DB	06H
	DB	021H
	DB	026H
	DB	021H
	DB	06H
	DB	021H
	DB	06H
	DB	021H
	DB	06H
	DB	019H
	DB	026H
	DB	021H
	DB	06H
	DB	021H
	DB	06H
	DB	019H
	DB	06H
	DB	021H
	DB	026H
	DB	021H
	DB	06H
	DB	021H
	DB	026H
	DB	021H
	DB	026H
	DB	021H
	DB	06H
	DB	021H
	DB	06H
	DB	021H
	DB	026H
	DB	021H
	DB	026H
	DB	021H
	DB	06H
	DB	021H
	DB	06H
	DB	021H
	DB	026H
	DB	021H
	DB	026H
	DB	021H
	DB	06H
	DB	021H
	DB	06H
	DB	021H
	DB	06H
	DB	021H
	DB	026H
	DB	021H
	DB	026H
	DB	021H
	DB	026H
	DB	021H
	DB	06H
	DB	021H
	DB	026H
	DB	021H
	DB	06H
	DB	021H
	DB	06H
	DB	021H
	DB	026H
	DB	021H
	DB	026H
	DB	021H
	DB	026H
	DB	021H
	DB	06H
	DB	021H
	DB	06H
	DB	021H
	DB	026H
	DB	021H
	DB	026H
	DB	021H
	DB	026H
	DB	021H
	DB	06H
	DB	019H
	DB	026H
	DB	021H
	DB	026H
	DB	021H
	DB	026H
	DB	021H
	DB	026H
	DB	021H
	DB	06H
	DB	021H
	DB	026H
	DB	021H
	DB	06H
	DB	021H
	DB	06H
	DB	019H
	DB	06H
	DB	021H
	DB	026H
	DB	021H
	DB	06H
	DB	021H
	DB	06H
	DB	021H
	DB	06H
	DB	019H
	DB	026H
	DB	021H
	DB	026H
	DB	021H
	DB	026H
	DB	021H
	DB	06H
	DB	021H
	DB	06H
	DB	019H
	DB	06H
	DB	019H
	DB	06H
	DB	021H
	DB	06H
	DB	019H
	DB	06H
	DB	021H
	DB	026H
	DB	021H
	DB	06H
	DB	021H
	DB	026H
	DB	021H
	DB	026H
	DB	021H
	DB	06H
	DB	021H
	DB	026H
	DB	021H
	DB	06H
	DB	021H
	DB	06H
	DB	021H
	DB	06H
	DB	019H
	DB	026H
	DB	021H
	DB	0e5H
	DB	018H
	DB	026H
	DB	021H
	DB	026H
	DB	021H
	DB	06H
	DB	019H
	DB	06H
	DB	021H
	DB	06H
	DB	021H
	DB	06H
	DB	021H
	DB	06H
	DB	019H
	DB	06H
	DB	021H
	DB	026H
	DB	021H
	DB	026H
	DB	021H
	DB	06H
	DB	021H
	DB	026H
	DB	021H
	DB	026H
	DB	021H
	DB	026H
	DB	021H
	DB	026H
	DB	021H
	DB	06H
	DB	019H
	DB	026H
	DB	021H
	DB	026H
	DB	021H
	DB	026H
	DB	021H
	DB	06H
	DB	021H
	DB	06H
	DB	021H
	DB	026H
	DB	021H
	DB	06H
	DB	021H
	DB	026H
	DB	021H
	DB	06H
	DB	019H
	DB	06H
	DB	021H
	DB	06H
	DB	021H
	DB	06H
	DB	019H
	DB	06H
	DB	021H
	DB	06H
	DB	019H
	DB	06H
	DB	021H
	DB	06H
	DB	021H
	DB	026H
	DB	021H
	DB	06H
	DB	019H
	DB	06H
	DB	021H
	DB	026H
	DB	021H
	DB	026H
	DB	021H
	DB	06H
	DB	021H
	DB	06H
	DB	021H
	DB	026H
	DB	021H
	DB	026H
	DB	021H
	DB	026H
	DB	021H
	DB	026H
	DB	021H
	DB	06H
	DB	021H
	DB	026H
	DB	021H
	DB	06H
	DB	019H
	DB	06H
	DB	021H
	DB	06H
	DB	021H
	DB	06H
	DB	021H
	DB	06H
	DB	021H
	DB	06H
	DB	021H
	DB	026H
	DB	021H
	DB	026H
	DB	021H
	DB	026H
	DB	021H
	DB	06H
	DB	021H
	DB	06H
	DB	019H
	DB	06H
	DB	019H
	DB	06H
	DB	021H
	DB	06H
	DB	021H
	DB	06H
	DB	021H
	DB	06H
	DB	021H
	DB	026H
	DB	021H
	DB	026H
	DB	021H
	DB	026H
	DB	021H
	DB	06H
	DB	019H
	DB	06H
	DB	021H
	DB	026H
	DB	021H
	DB	026H
	DB	021H
	DB	026H
	DB	021H
	DB	026H
	DB	021H
	DB	06H
	DB	021H
	DB	026H
	DB	021H
	DB	026H
	DB	021H
	DB	06H
	DB	019H
	DB	06H
	DB	021H
	DB	026H
	DB	021H
	DB	06H
	DB	021H
	DB	026H
	DB	021H
	DB	027H
	DB	021H
	DB	026H
	DB	021H
	DB	06H
	DB	021H
	DB	06H
	DB	021H
	DB	026H
	DB	021H
	DB	026H
	DB	021H
	DB	026H
	DB	021H
	DB	06H
	DB	019H
	DB	06H
	DB	021H
	DB	026H
	DB	021H
	DB	06H
	DB	021H
	DB	026H
	DB	021H
	DB	026H
	DB	021H
	DB	06H
	DB	021H
	DB	026H
	DB	021H
	DB	05H
	DB	019H
	DB	06H
	DB	019H
	DB	026H
	DB	021H
	DB	026H
	DB	021H
	DB	06H
	DB	021H
	DB	06H
	DB	019H
	DB	06H
	DB	021H
	DB	026H
	DB	021H
	DB	026H
	DB	021H
	DB	026H
	DB	021H
	DB	026H
	DB	021H
	DB	06H
	DB	021H
	DB	06H
	DB	021H
	DB	026H
	DB	021H
	DB	026H
	DB	021H
	DB	027H
	DB	021H
	DB	026H
	DB	021H
	DB	026H
	DB	021H
	DB	026H
	DB	021H
	DB	026H
	DB	021H
	DB	026H
	DB	021H
	DB	026H
	DB	021H
	DB	06H
	DB	021H
	DB	06H
	DB	021H
	DB	026H
	DB	021H
	DB	06H
	DB	019H
	DB	06H
	DB	021H
	DB	06H
	DB	019H
	DB	026H
	DB	021H
	DB	06H
	DB	021H
	DB	026H
	DB	021H
	DB	026H
	DB	021H
	DB	06H
	DB	021H
	DB	026H
	DB	021H
	DB	06H
	DB	021H
	DB	026H
	DB	021H
	DB	06H
	DB	021H
	DB	06H
	DB	019H
	DB	026H
	DB	021H
	DB	026H
	DB	021H
	DB	026H
	DB	021H
	DB	026H
	DB	021H
	DB	06H
	DB	021H
	DB	026H
	DB	021H
	DB	026H
	DB	021H
	DB	026H
	DB	021H
	DB	06H
	DB	021H
	DB	06H
	DB	021H
	DB	026H
	DB	021H
	DB	06H
	DB	021H
	DB	026H
	DB	021H
	DB	026H
	DB	021H
	DB	06H
	DB	021H
	DB	06H
	DB	019H
	DB	026H
	DB	021H
	DB	06H
	DB	021H
	DB	026H
	DB	021H
	DB	026H
	DB	021H
	DB	026H
	DB	021H
	DB	06H
	DB	021H
	DB	06H
	DB	019H
	DB	06H
	DB	021H
	DB	06H
	DB	021H
	DB	06H
	DB	019H
	DB	026H
	DB	021H
	DB	026H
	DB	021H
	DB	06H
	DB	019H
	DB	06H
	DB	021H
	DB	026H
	DB	021H
	DB	026H
	DB	021H
	DB	06H
	DB	021H
	DB	026H
	DB	021H
	DB	06H
	DB	021H
	DB	06H
	DB	021H
	DB	026H
	DB	021H
	DB	06H
	DB	021H
	DB	06H
	DB	021H
	DB	06H
	DB	019H
	DB	026H
	DB	021H
	DB	026H
	DB	021H
	DB	026H
	DB	021H
	DB	026H
	DB	021H
	DB	026H
	DB	021H
	DB	06H
	DB	021H
	DB	06H
	DB	019H
	DB	026H
	DB	021H
	DB	026H
	DB	021H
	DB	026H
	DB	021H
	DB	026H
	DB	021H
	DB	026H
	DB	021H
	DB	026H
	DB	021H
	DB	026H
	DB	021H
	DB	026H
	DB	021H
	DB	026H
	DB	021H
	DB	06H
	DB	021H
	DB	06H
	DB	019H
	DB	06H
	DB	019H
	DB	026H
	DB	021H
	DB	026H
	DB	021H
	DB	06H
	DB	021H
	DB	06H
	DB	021H
	DB	06H
	DB	019H
	DB	026H
	DB	021H
	DB	026H
	DB	021H
	DB	06H
	DB	021H
	DB	06H
	DB	021H
	DB	026H
	DB	021H
	DB	06H
	DB	021H
	DB	06H
	DB	021H
	DB	026H
	DB	021H
	DB	026H
	DB	021H
	DB	06H
	DB	019H
	DB	026H
	DB	021H
	DB	026H
	DB	021H
	DB	026H
	DB	021H
	DB	026H
	DB	021H
	DB	06H
	DB	021H
	DB	026H
	DB	021H
	DB	06H
	DB	021H
	DB	026H
	DB	021H
	DB	06H
	DB	021H
	DB	06H
	DB	021H
	DB	026H
	DB	021H
	DB	06H
	DB	019H
	DB	06H
	DB	021H
	DB	026H
	DB	021H
	DB	026H
	DB	021H
	DB	06H
	DB	021H
	DB	06H
	DB	021H
	DB	026H
	DB	021H
	DB	026H
	DB	021H
	DB	026H
	DB	021H
	DB	06H
	DB	021H
	DB	06H
	DB	021H
	DB	026H
	DB	021H
	DB	026H
	DB	021H
	DB	026H
	DB	021H
	DB	06H
	DB	021H
	DB	06H
	DB	019H
	DB	06H
	DB	019H
	DB	026H
	DB	021H
	DB	026H
	DB	021H
	DB	026H
	DB	021H
	DB	06H
	DB	021H
	DB	06H
	DB	021H
	DB	06H
	DB	021H
	DB	026H
	DB	021H
	DB	026H
	DB	021H
	DB	06H
	DB	021H
	DB	06H
	DB	019H
	DB	06H
	DB	021H
	DB	06H
	DB	019H
	DB	06H
	DB	021H
	DB	06H
	DB	021H
	DB	05H
	DB	019H
	DB	026H
	DB	021H
	DB	06H
	DB	021H
	DB	026H
	DB	021H
	DB	026H
	DB	021H
	DB	06H
	DB	021H
	DB	026H
	DB	021H
	DB	026H
	DB	021H
	DB	026H
	DB	021H
	DB	026H
	DB	021H
	DB	026H
	DB	021H
	DB	06H
	DB	021H
	DB	026H
	DB	021H
	DB	026H
	DB	021H
	DB	06H
	DB	021H
	DB	06H
	DB	021H
	DB	06H
	DB	021H
	DB	06H
	DB	021H
	DB	026H
	DB	021H
	DB	026H
	DB	021H
	DB	06H
	DB	021H
	DB	026H
	DB	021H
	DB	06H
	DB	021H
	DB	06H
	DB	021H
	DB	06H
	DB	021H
	DB	026H
	DB	021H
	DB	026H
	DB	021H
	DB	026H
	DB	021H
	DB	06H
	DB	021H
	DB	06H
	DB	019H
	DB	06H
	DB	021H
	DB	026H
	DB	021H
	DB	026H
	DB	021H
	DB	06H
	DB	021H
	DB	06H
	DB	021H
	DB	06H
	DB	021H
	DB	026H
	DB	021H
	DB	06H
	DB	021H
	DB	06H
	DB	021H
	DB	06H
	DB	019H
	DB	026H
	DB	021H
	DB	026H
	DB	021H
	DB	026H
	DB	021H
	DB	06H
	DB	021H
	DB	06H
	DB	021H
	DB	06H
	DB	021H
	DB	06H
	DB	021H
	DB	026H
	DB	021H
	DB	026H
	DB	021H
	DB	06H
	DB	021H
	DB	06H
	DB	021H
	DB	026H
	DB	021H
	DB	026H
	DB	021H
	DB	06H
	DB	021H
	DB	026H
	DB	021H
	DB	026H
	DB	021H
	DB	06H
	DB	019H
	DB	06H
	DB	021H
	DB	06H
	DB	021H
	DB	06H
	DB	019H
	DB	06H
	DB	021H
	DB	06H
	DB	021H
	DB	026H
	DB	021H
	DB	06H
	DB	021H
	DB	026H
	DB	021H
	DB	06H
	DB	021H
	DB	026H
	DB	021H
	DB	026H
	DB	021H
	DB	026H
	DB	021H
	DB	026H
	DB	021H
	DB	026H
	DB	021H
	DB	06H
	DB	021H
	DB	06H
	DB	021H
	DB	06H
	DB	021H
	DB	06H
	DB	019H
	DB	06H
	DB	021H
	DB	026H
	DB	021H
	DB	06H
	DB	021H
	DB	026H
	DB	021H
	DB	06H
	DB	019H
	DB	05H
	DB	021H
	DB	026H
	DB	021H
	DB	026H
	DB	021H
	DB	026H
	DB	021H
	DB	026H
	DB	021H
	DB	026H
	DB	021H
	DB	06H
	DB	021H
	DB	026H
	DB	021H
	DB	026H
	DB	021H
	DB	06H
	DB	021H
	DB	026H
	DB	021H
	DB	06H
	DB	021H
	DB	06H
	DB	021H
	DB	06H
	DB	021H
	DB	06H
	DB	021H
	DB	06H
	DB	019H
	DB	06H
	DB	019H
	DB	026H
	DB	021H
	DB	026H
	DB	021H
	DB	026H
	DB	021H
	DB	06H
	DB	019H
	DB	06H
	DB	021H
	DB	06H
	DB	021H
	DB	026H
	DB	021H
	DB	026H
	DB	021H
	DB	026H
	DB	021H
	DB	026H
	DB	021H
	DB	06H
	DB	021H
	DB	06H
	DB	021H
	DB	026H
	DB	021H
	DB	026H
	DB	021H
	DB	06H
	DB	021H
	DB	06H
	DB	021H
	DB	05H
	DB	019H
	DB	06H
	DB	021H
	DB	06H
	DB	021H
	DB	026H
	DB	021H
	DB	06H
	DB	021H
	DB	026H
	DB	021H
	DB	026H
	DB	021H
	DB	06H
	DB	021H
	DB	06H
	DB	019H
	DB	06H
	DB	021H
	DB	06H
	DB	021H
	DB	026H
	DB	021H
	DB	026H
	DB	021H
	DB	06H
	DB	021H
	DB	026H
	DB	021H
	DB	026H
	DB	021H
	DB	06H
	DB	021H
	DB	06H
	DB	019H
	DB	026H
	DB	021H
	DB	026H
	DB	021H
	DB	06H
	DB	021H
	DB	06H
	DB	021H
	DB	06H
	DB	021H
	DB	026H
	DB	021H
	DB	026H
	DB	021H
	DB	026H
	DB	021H
	DB	06H
	DB	019H
	DB	06H
	DB	021H
	DB	06H
	DB	019H
	DB	06H
	DB	021H
	DB	026H
	DB	021H
	DB	026H
	DB	021H
	DB	06H
	DB	021H
	DB	06H
	DB	019H
	DB	06H
	DB	019H
	DB	06H
	DB	021H
	DB	06H
	DB	019H
	DB	06H
	DB	019H
	DB	06H
	DB	019H
	DB	06H
	DB	021H
	DB	06H
	DB	021H
	DB	06H
	DB	021H
	DB	06H
	DB	021H
	DB	06H
	DB	021H
	DB	06H
	DB	021H
	DB	06H
	DB	021H
	DB	026H
	DB	021H
	DB	026H
	DB	021H
	DB	06H
	DB	021H
	DB	026H
	DB	021H
	DB	06H
	DB	021H
	DB	026H
	DB	021H
	DB	06H
	DB	021H
	DB	06H
	DB	019H
	DB	026H
	DB	021H
	DB	026H
	DB	021H
	DB	06H
	DB	021H
	DB	06H
	DB	021H
	DB	06H
	DB	019H
	DB	06H
	DB	019H
	DB	026H
	DB	021H
	DB	026H
	DB	021H
	DB	026H
	DB	021H
	DB	026H
	DB	021H
	DB	06H
	DB	021H
	DB	06H
	DB	021H
	DB	026H
	DB	021H
	DB	026H
	DB	021H
	DB	026H
	DB	021H
	DB	06H
	DB	019H
	DB	06H
	DB	021H
	DB	026H
	DB	021H
	DB	06H
	DB	019H
	DB	06H
	DB	019H
	DB	06H
	DB	021H
	DB	026H
	DB	021H
	DB	027H
	DB	021H
	DB	06H
	DB	021H
	DB	06H
	DB	021H
	DB	06H
	DB	019H
	DB	06H
	DB	021H
	DB	026H
	DB	021H
	DB	06H
	DB	021H
	DB	026H
	DB	021H
	DB	026H
	DB	021H
	DB	026H
	DB	021H
	DB	06H
	DB	021H
	DB	06H
	DB	021H
	DB	06H
	DB	021H
	DB	026H
	DB	021H
	DB	026H
	DB	021H
	DB	06H
	DB	021H
	DB	06H
	DB	021H
	DB	026H
	DB	021H
	DB	026H
	DB	021H
	DB	026H
	DB	021H
	DB	026H
	DB	021H
	DB	06H
	DB	021H
	DB	026H
	DB	021H
	DB	06H
	DB	021H
	DB	06H
	DB	021H
	DB	026H
	DB	021H
	DB	026H
	DB	021H
	DB	06H
	DB	021H
	DB	06H
	DB	021H
	DB	05H
	DB	021H
	DB	06H
	DB	021H
	DB	06H
	DB	019H
	DB	06H
	DB	021H
	DB	026H
	DB	021H
	DB	06H
	DB	021H
	DB	06H
	DB	019H
	DB	06H
	DB	021H
	DB	06H
	DB	021H
	DB	06H
	DB	021H
	DB	026H
	DB	021H
	DB	06H
	DB	021H
	DB	06H
	DB	021H
	DB	026H
	DB	021H
	DB	06H
	DB	021H
	DB	06H
	DB	021H
	DB	026H
	DB	021H
	DB	026H
	DB	021H
	DB	06H
	DB	021H
	DB	026H
	DB	021H
	DB	026H
	DB	021H
	DB	026H
	DB	021H
	DB	026H
	DB	021H
	DB	06H
	DB	021H
	DB	06H
	DB	019H
	DB	06H
	DB	021H
	DB	026H
	DB	021H
	DB	026H
	DB	021H
	DB	06H
	DB	019H
	DB	026H
	DB	021H
	DB	06H
	DB	021H
	DB	06H
	DB	021H
	DB	026H
	DB	021H
	DB	06H
	DB	021H
	DB	06H
	DB	021H
	DB	026H
	DB	021H
	DB	06H
	DB	021H
	DB	06H
	DB	021H
	DB	06H
	DB	019H
	DB	026H
	DB	021H
	DB	026H
	DB	021H
	DB	06H
	DB	021H
	DB	06H
	DB	021H
	DB	06H
	DB	021H
	DB	06H
	DB	021H
	DB	026H
	DB	021H
	DB	06H
	DB	021H
	DB	026H
	DB	021H
	DB	026H
	DB	021H
	DB	026H
	DB	021H
	DB	026H
	DB	021H
	DB	06H
	DB	021H
	DB	026H
	DB	021H
	DB	026H
	DB	021H
	DB	026H
	DB	021H
	DB	06H
	DB	021H
	DB	06H
	DB	021H
	DB	06H
	DB	019H
	DB	06H
	DB	021H
	DB	06H
	DB	019H
	DB	05H
	DB	019H
	DB	06H
	DB	021H
	DB	06H
	DB	021H
	DB	06H
	DB	021H
	DB	026H
	DB	021H
	DB	06H
	DB	021H
	DB	026H
	DB	021H
	DB	06H
	DB	021H
	DB	026H
	DB	021H
	DB	026H
	DB	021H
	DB	06H
	DB	021H
	DB	026H
	DB	021H
	DB	026H
	DB	021H
	DB	06H
	DB	021H
	DB	026H
	DB	021H
	DB	026H
	DB	021H
	DB	026H
	DB	021H
	DB	06H
	DB	021H
	DB	026H
	DB	021H
	DB	026H
	DB	021H
	DB	06H
	DB	021H
	DB	06H
	DB	019H
	DB	026H
	DB	021H
	DB	06H
	DB	021H
	DB	06H
	DB	021H
	DB	026H
	DB	021H
	DB	026H
	DB	021H
	DB	026H
	DB	021H
	DB	06H
	DB	021H
	DB	06H
	DB	019H
	DB	06H
	DB	021H
	DB	026H
	DB	021H
	DB	026H
	DB	021H
	DB	026H
	DB	021H
	DB	026H
	DB	021H
	DB	026H
	DB	021H
	DB	026H
	DB	021H
	DB	026H
	DB	021H
	DB	026H
	DB	021H
	DB	06H
	DB	021H
	DB	026H
	DB	021H
	DB	026H
	DB	021H
	DB	06H
	DB	019H
	DB	026H
	DB	021H
	DB	026H
	DB	021H
	DB	026H
	DB	021H
	DB	06H
	DB	021H
	DB	06H
	DB	021H
	DB	026H
	DB	021H
	DB	06H
	DB	021H
	DB	06H
	DB	021H
	DB	06H
	DB	021H
	DB	06H
	DB	019H
	DB	026H
	DB	021H
	DB	06H
	DB	021H
	DB	06H
	DB	021H
	DB	06H
	DB	019H
	DB	026H
	DB	021H
	DB	06H
	DB	021H
	DB	06H
	DB	021H
	DB	026H
	DB	021H
	DB	026H
	DB	021H
	DB	026H
	DB	021H
	DB	026H
	DB	021H
	DB	026H
	DB	021H
	DB	026H
	DB	021H
	DB	06H
	DB	021H
	DB	06H
	DB	021H
	DB	026H
	DB	021H
	DB	026H
	DB	021H
	DB	06H
	DB	021H
	DB	06H
	DB	019H
	DB	026H
	DB	021H
	DB	06H
	DB	021H
	DB	026H
	DB	021H
	DB	026H
	DB	021H
	DB	06H
	DB	021H
	DB	026H
	DB	021H
	DB	026H
	DB	021H
	DB	06H
	DB	021H
	DB	06H
	DB	021H
	DB	06H
	DB	021H
	DB	026H
	DB	021H
	DB	06H
	DB	021H
	DB	06H
	DB	019H
	DB	06H
	DB	021H
	DB	026H
	DB	021H
	DB	026H
	DB	021H
	DB	06H
	DB	021H
	DB	06H
	DB	021H
	DB	026H
	DB	021H
	DB	026H
	DB	021H
	DB	06H
	DB	021H
	DB	026H
	DB	021H
	DB	06H
	DB	021H
	DB	026H
	DB	021H
	DB	06H
	DB	021H
	DB	026H
	DB	021H
	DB	026H
	DB	021H
	DB	026H
	DB	021H
	DB	026H
	DB	021H
	DB	06H
	DB	021H
	DB	06H
	DB	021H
	DB	06H
	DB	021H
	DB	06H
	DB	021H
	DB	026H
	DB	021H
	DB	026H
	DB	021H
	DB	06H
	DB	021H
	DB	026H
	DB	021H
	DB	06H
	DB	019H
	DB	06H
	DB	021H
	DB	06H
	DB	021H
	DB	06H
	DB	021H
	DB	026H
	DB	021H
	DB	026H
	DB	021H
	DB	06H
	DB	021H
	DB	06H
	DB	021H
	DB	026H
	DB	021H
	DB	06H
	DB	021H
	DB	05H
	DB	019H
	DB	026H
	DB	021H
	DB	026H
	DB	021H
	DB	06H
	DB	021H
	DB	026H
	DB	021H
	DB	06H
	DB	021H
	DB	06H
	DB	019H
	DB	026H
	DB	021H
	DB	06H
	DB	021H
	DB	026H
	DB	021H
	DB	06H
	DB	021H
	DB	06H
	DB	021H
	DB	026H
	DB	021H
	DB	026H
	DB	021H
	DB	06H
	DB	021H
	DB	06H
	DB	021H
	DB	06H
	DB	021H
	DB	026H
	DB	021H
	DB	026H
	DB	021H
	DB	06H
	DB	019H
	DB	06H
	DB	021H
	DB	026H
	DB	021H
	DB	06H
	DB	019H
	DB	026H
	DB	021H
	DB	06H
	DB	021H
	DB	06H
	DB	021H
	DB	06H
	DB	021H
	DB	06H
	DB	021H
	DB	026H
	DB	021H
	DB	06H
	DB	021H
	DB	026H
	DB	021H
	DB	06H
	DB	021H
	DB	06H
	DB	021H
	DB	026H
	DB	021H
	DB	026H
	DB	021H
	DB	026H
	DB	021H
	DB	06H
	DB	021H
	DB	06H
	DB	021H
	DB	06H
	DB	021H
	DB	06H
	DB	021H
	DB	026H
	DB	021H
	DB	026H
	DB	021H
	DB	026H
	DB	021H
	DB	06H
	DB	021H
	DB	026H
	DB	021H
	DB	026H
	DB	021H
	DB	026H
	DB	021H
	DB	026H
	DB	021H
	DB	026H
	DB	021H
	DB	046H
	DB	021H
	DB	026H
	DB	021H
	DB	06H
	DB	019H
	DB	06H
	DB	021H
	DB	06H
	DB	021H
	DB	06H
	DB	021H
	DB	026H
	DB	021H
	DB	026H
	DB	021H
	DB	026H
	DB	021H
	DB	026H
	DB	021H
	DB	026H
	DB	021H
	DB	026H
	DB	021H
	DB	06H
	DB	021H
	DB	06H
	DB	019H
	DB	06H
	DB	019H
	DB	06H
	DB	021H
	DB	06H
	DB	021H
	DB	026H
	DB	021H
	DB	06H
	DB	021H
	DB	06H
	DB	021H
	DB	06H
	DB	021H
	DB	06H
	DB	021H
	DB	027H
	DB	021H
	DB	06H
	DB	021H
	DB	026H
	DB	021H
	DB	06H
	DB	021H
	DB	06H
	DB	021H
	DB	026H
	DB	021H
	DB	026H
	DB	021H
	DB	06H
	DB	021H
	DB	026H
	DB	021H
	DB	026H
	DB	021H
	DB	026H
	DB	021H
	DB	026H
	DB	021H
	DB	06H
	DB	021H
	DB	06H
	DB	021H
	DB	026H
	DB	021H
	DB	026H
	DB	021H
	DB	06H
	DB	019H
	DB	06H
	DB	021H
	DB	026H
	DB	021H
	DB	06H
	DB	021H
	DB	026H
	DB	021H
	DB	06H
	DB	021H
	DB	06H
	DB	021H
	DB	026H
	DB	021H
	DB	026H
	DB	021H
	DB	026H
	DB	021H
	DB	026H
	DB	021H
	DB	05H
	DB	019H
	DB	06H
	DB	021H
	DB	06H
	DB	019H
	DB	06H
	DB	021H
	DB	026H
	DB	021H
	DB	026H
	DB	021H
	DB	026H
	DB	021H
	DB	06H
	DB	019H
	DB	026H
	DB	021H
	DB	026H
	DB	021H
	DB	06H
	DB	021H
	DB	06H
	DB	019H
	DB	06H
	DB	021H
	DB	06H
	DB	019H
	DB	06H
	DB	021H
	DB	026H
	DB	021H
	DB	06H
	DB	019H
	DB	06H
	DB	021H
	DB	026H
	DB	021H
	DB	026H
	DB	021H
	DB	06H
	DB	021H
	DB	06H
	DB	021H
	DB	06H
	DB	021H
	DB	026H
	DB	021H
	DB	026H
	DB	021H
	DB	06H
	DB	021H
	DB	06H
	DB	021H
	DB	026H
	DB	021H
	DB	06H
	DB	021H
	DB	06H
	DB	021H
	DB	026H
	DB	021H
	DB	026H
	DB	021H
	DB	026H
	DB	021H
	DB	026H
	DB	021H
	DB	026H
	DB	021H
	DB	06H
	DB	021H
	DB	06H
	DB	021H
	DB	026H
	DB	021H
	DB	06H
	DB	021H
	DB	026H
	DB	021H
	DB	026H
	DB	021H
	DB	026H
	DB	021H
	DB	026H
	DB	021H
	DB	06H
	DB	021H
	DB	026H
	DB	021H
	DB	06H
	DB	021H
	DB	047H
	DB	021H
	DB	026H
	DB	021H
	DB	026H
	DB	021H
	DB	026H
	DB	021H
	DB	026H
	DB	021H
	DB	06H
	DB	021H
	DB	06H
	DB	021H
	DB	026H
	DB	021H
	DB	026H
	DB	021H
	DB	027H
	DB	021H
	DB	06H
	DB	021H
	DB	026H
	DB	021H
	DB	026H
	DB	021H
	DB	026H
	DB	021H
	DB	026H
	DB	021H
	DB	06H
	DB	021H
	DB	026H
	DB	021H
	DB	026H
	DB	021H
	DB	06H
	DB	021H
	DB	06H
	DB	021H
	DB	06H
	DB	021H
	DB	06H
	DB	021H
	DB	06H
	DB	021H
	DB	06H
	DB	019H
	DB	06H
	DB	021H
	DB	05H
	DB	019H
	DB	026H
	DB	021H
	DB	06H
	DB	021H
	DB	06H
	DB	021H
	DB	026H
	DB	021H
	DB	026H
	DB	021H
	DB	026H
	DB	021H
	DB	026H
	DB	021H
	DB	026H
	DB	021H
	DB	06H
	DB	021H
	DB	026H
	DB	021H
	DB	026H
	DB	021H
	DB	06H
	DB	021H
	DB	06H
	DB	021H
	DB	06H
	DB	021H
	DB	06H
	DB	019H
	DB	06H
	DB	021H
	DB	06H
	DB	021H
	DB	06H
	DB	021H
	DB	06H
	DB	021H
	DB	06H
	DB	021H
	DB	06H
	DB	019H
	DB	06H
	DB	021H
	DB	06H
	DB	021H
	DB	026H
	DB	021H
	DB	026H
	DB	021H
	DB	026H
	DB	021H
	DB	026H
	DB	021H
	DB	06H
	DB	019H
	DB	06H
	DB	019H
	DB	06H
	DB	021H
	DB	05H
	DB	019H
	DB	06H
	DB	019H
	DB	026H
	DB	021H
	DB	06H
	DB	021H
	DB	05H
	DB	019H
	DB	026H
	DB	021H
	DB	026H
	DB	021H
	DB	026H
	DB	021H
	DB	06H
	DB	019H
	DB	06H
	DB	019H
	DB	06H
	DB	021H
	DB	026H
	DB	021H
	DB	026H
	DB	021H
	DB	06H
	DB	021H
	DB	026H
	DB	021H
	DB	026H
	DB	021H
	DB	026H
	DB	021H
	DB	06H
	DB	019H
	DB	05H
	DB	019H
	DB	06H
	DB	021H
	DB	026H
	DB	021H
	DB	06H
	DB	021H
	DB	05H
	DB	019H
	DB	06H
	DB	021H
	DB	026H
	DB	021H
	DB	06H
	DB	021H
	DB	06H
	DB	021H
	DB	026H
	DB	021H
	DB	026H
	DB	021H
	DB	06H
	DB	021H
	DB	06H
	DB	019H
	DB	06H
	DB	021H
	DB	05H
	DB	019H
	DB	06H
	DB	021H
	DB	026H
	DB	021H
	DB	026H
	DB	021H
	DB	06H
	DB	019H
	DB	06H
	DB	021H
	DB	06H
	DB	021H
	DB	026H
	DB	021H
	DB	06H
	DB	019H
	DB	026H
	DB	021H
	DB	026H
	DB	021H
	DB	026H
	DB	021H
	DB	06H
	DB	021H
	DB	06H
	DB	019H
	DB	06H
	DB	019H
	DB	06H
	DB	021H
	DB	026H
	DB	021H
	DB	06H
	DB	021H
	DB	026H
	DB	021H
	DB	06H
	DB	021H
	DB	026H
	DB	021H
	DB	026H
	DB	021H
	DB	026H
	DB	021H
	DB	06H
	DB	021H
	DB	026H
	DB	021H
	DB	026H
	DB	021H
	DB	06H
	DB	021H
	DB	06H
	DB	019H
	DB	06H
	DB	021H
	DB	026H
	DB	021H
	DB	06H
	DB	021H
	DB	06H
	DB	019H
	DB	06H
	DB	021H
	DB	06H
	DB	019H
	DB	06H
	DB	021H
	DB	06H
	DB	021H
	DB	026H
	DB	021H
	DB	06H
	DB	021H
	DB	06H
	DB	021H
	DB	06H
	DB	019H
	DB	06H
	DB	021H
	DB	026H
	DB	021H
	DB	026H
	DB	021H
	DB	026H
	DB	021H
	DB	026H
	DB	021H
	DB	06H
	DB	021H
	DB	026H
	DB	021H
	DB	026H
	DB	021H
	DB	06H
	DB	021H
	DB	06H
	DB	021H
	DB	06H
	DB	019H
	DB	06H
	DB	021H
	DB	026H
	DB	021H
	DB	06H
	DB	021H
	DB	026H
	DB	021H
	DB	026H
	DB	021H
	DB	06H
	DB	021H
	DB	026H
	DB	021H
	DB	06H
	DB	021H
	DB	026H
	DB	021H
	DB	06H
	DB	021H
	DB	06H
	DB	019H
	DB	06H
	DB	019H
	DB	05H
	DB	021H
	DB	06H
	DB	021H
	DB	06H
	DB	019H
	DB	06H
	DB	019H
	DB	026H
	DB	021H
	DB	026H
	DB	021H
	DB	026H
	DB	021H
	DB	026H
	DB	021H
	DB	06H
	DB	021H
	DB	05H
	DB	019H
	DB	06H
	DB	021H
	DB	026H
	DB	021H
	DB	026H
	DB	021H
	DB	026H
	DB	021H
	DB	026H
	DB	021H
	DB	026H
	DB	021H
	DB	06H
	DB	019H
	DB	026H
	DB	021H
	DB	026H
	DB	021H
	DB	026H
	DB	021H
	DB	06H
	DB	021H
	DB	06H
	DB	021H
	DB	06H
	DB	021H
	DB	026H
	DB	021H
	DB	026H
	DB	021H
	DB	06H
	DB	019H
	DB	06H
	DB	021H
	DB	026H
	DB	021H
	DB	026H
	DB	021H
	DB	026H
	DB	021H
	DB	06H
	DB	021H
	DB	026H
	DB	021H
	DB	026H
	DB	021H
	DB	026H
	DB	021H
	DB	026H
	DB	021H
	DB	06H
	DB	021H
	DB	06H
	DB	021H
	DB	026H
	DB	021H
	DB	06H
	DB	021H
	DB	06H
	DB	019H
	DB	06H
	DB	021H
	DB	06H
	DB	019H
	DB	06H
	DB	019H
	DB	026H
	DB	021H
	DB	06H
	DB	021H
	DB	06H
	DB	021H
	DB	06H
	DB	021H
	DB	05H
	DB	019H
	DB	026H
	DB	021H
	DB	06H
	DB	019H
	DB	05H
	DB	019H
	DB	06H
	DB	021H
	DB	06H
	DB	019H
	DB	026H
	DB	021H
	DB	026H
	DB	021H
	DB	06H
	DB	021H
	DB	06H
	DB	021H
	DB	026H
	DB	021H
	DB	06H
	DB	021H
	DB	026H
	DB	021H
	DB	026H
	DB	021H
	DB	027H
	DB	021H
	DB	026H
	DB	021H
	DB	026H
	DB	021H
	DB	06H
	DB	021H
	DB	05H
	DB	019H
	DB	06H
	DB	021H
	DB	026H
	DB	021H
	DB	026H
	DB	021H
	DB	026H
	DB	021H
	DB	026H
	DB	021H
	DB	026H
	DB	021H
	DB	026H
	DB	021H
	DB	026H
	DB	021H
	DB	026H
	DB	021H
	DB	026H
	DB	021H
	DB	06H
	DB	021H
	DB	026H
	DB	021H
	DB	026H
	DB	021H
	DB	06H
	DB	021H
	DB	06H
	DB	019H
	DB	026H
	DB	021H
	DB	06H
	DB	021H
	DB	06H
	DB	021H
	DB	06H
	DB	021H
	DB	06H
	DB	021H
	DB	026H
	DB	021H
	DB	06H
	DB	021H
	DB	06H
	DB	019H
	DB	026H
	DB	021H
	DB	06H
	DB	021H
	DB	06H
	DB	021H
	DB	026H
	DB	021H
	DB	026H
	DB	021H
	DB	06H
	DB	021H
	DB	06H
	DB	021H
	DB	06H
	DB	021H
	DB	06H
	DB	021H
	DB	06H
	DB	021H
	DB	06H
	DB	021H
	DB	06H
	DB	021H
	DB	06H
	DB	019H
	DB	06H
	DB	021H
	DB	06H
	DB	019H
	DB	06H
	DB	021H
	DB	06H
	DB	019H
	DB	026H
	DB	021H
	DB	026H
	DB	021H
	DB	06H
	DB	021H
	DB	026H
	DB	021H
	DB	06H
	DB	019H
	DB	06H
	DB	021H
	DB	06H
	DB	021H
	DB	06H
	DB	019H
	DB	06H
	DB	021H
	DB	06H
	DB	021H
	DB	06H
	DB	021H
	DB	06H
	DB	021H
	DB	06H
	DB	021H
	DB	06H
	DB	021H
	DB	026H
	DB	021H
	DB	026H
	DB	021H
	DB	026H
	DB	021H
	DB	06H
	DB	021H
	DB	026H
	DB	021H
	DB	026H
	DB	021H
	DB	026H
	DB	021H
	DB	026H
	DB	021H
	DB	06H
	DB	021H
	DB	06H
	DB	021H
	DB	027H
	DB	021H
	DB	026H
	DB	021H
	DB	026H
	DB	021H
	DB	06H
	DB	019H
	DB	06H
	DB	021H
	DB	06H
	DB	019H
	DB	06H
	DB	021H
	DB	026H
	DB	021H
	DB	026H
	DB	021H
	DB	06H
	DB	021H
	DB	026H
	DB	021H
	DB	026H
	DB	021H
	DB	06H
	DB	021H
	DB	06H
	DB	019H
	DB	026H
	DB	021H
	DB	026H
	DB	021H
	DB	026H
	DB	021H
	DB	06H
	DB	021H
	DB	026H
	DB	021H
	DB	026H
	DB	021H
	DB	06H
	DB	021H
	DB	06H
	DB	021H
	DB	026H
	DB	021H
	DB	026H
	DB	021H
	DB	026H
	DB	021H
	DB	06H
	DB	021H
	DB	026H
	DB	021H
	DB	026H
	DB	021H
	DB	026H
	DB	021H
	DB	06H
	DB	021H
	DB	026H
	DB	021H
	DB	026H
	DB	021H
	DB	026H
	DB	021H
	DB	026H
	DB	021H
	DB	026H
	DB	021H
	DB	026H
	DB	021H
	DB	026H
	DB	021H
	DB	06H
	DB	021H
	DB	026H
	DB	021H
	DB	026H
	DB	021H
	DB	06H
	DB	021H
	DB	026H
	DB	021H
	DB	06H
	DB	021H
	DB	06H
	DB	021H
	DB	05H
	DB	021H
	DB	06H
	DB	021H
	DB	026H
	DB	021H
	DB	026H
	DB	021H
	DB	026H
	DB	021H
	DB	026H
	DB	021H
	DB	026H
	DB	021H
	DB	026H
	DB	021H
	DB	026H
	DB	021H
	DB	06H
	DB	021H
	DB	06H
	DB	019H
	DB	026H
	DB	021H
	DB	026H
	DB	021H
	DB	026H
	DB	021H
	DB	06H
	DB	021H
	DB	06H
	DB	021H
	DB	026H
	DB	021H
	DB	06H
	DB	021H
	DB	06H
	DB	021H
	DB	06H
	DB	021H
	DB	026H
	DB	021H
	DB	06H
	DB	021H
	DB	026H
	DB	021H
	DB	026H
	DB	021H
	DB	026H
	DB	021H
	DB	06H
	DB	021H
	DB	06H
	DB	019H
	DB	06H
	DB	019H
	DB	06H
	DB	021H
	DB	026H
	DB	021H
	DB	06H
	DB	021H
	DB	026H
	DB	021H
	DB	026H
	DB	021H
	DB	06H
	DB	021H
	DB	026H
	DB	021H
	DB	06H
	DB	021H
	DB	05H
	DB	019H
	DB	06H
	DB	021H
	DB	026H
	DB	021H
	DB	06H
	DB	019H
	DB	0e5H
	DB	018H
	DB	026H
	DB	021H
	DB	06H
	DB	021H
	DB	026H
	DB	021H
	DB	06H
	DB	021H
	DB	026H
	DB	021H
	DB	06H
	DB	019H
	DB	06H
	DB	019H
	DB	026H
	DB	021H
	DB	06H
	DB	019H
	DB	06H
	DB	021H
	DB	026H
	DB	021H
	DB	026H
	DB	021H
	DB	026H
	DB	021H
	DB	06H
	DB	021H
	DB	06H
	DB	021H
	DB	06H
	DB	021H
	DB	06H
	DB	021H
	DB	026H
	DB	021H
	DB	026H
	DB	021H
	DB	027H
	DB	021H
	DB	026H
	DB	021H
	DB	06H
	DB	021H
	DB	046H
	DB	021H
	DB	06H
	DB	021H
	DB	05H
	DB	019H
	DB	06H
	DB	021H
	DB	026H
	DB	021H
	DB	047H
	DB	021H
	DB	06H
	DB	021H
	DB	026H
	DB	021H
	DB	06H
	DB	021H
	DB	06H
	DB	019H
	DB	05H
	DB	019H
	DB	06H
	DB	021H
	DB	026H
	DB	021H
	DB	026H
	DB	021H
	DB	026H
	DB	021H
	DB	026H
	DB	021H
	DB	06H
	DB	021H
	DB	06H
	DB	021H
	DB	026H
	DB	021H
	DB	026H
	DB	021H
	DB	026H
	DB	021H
	DB	06H
	DB	021H
	DB	026H
	DB	021H
	DB	026H
	DB	021H
	DB	06H
	DB	021H
	DB	026H
	DB	021H
	DB	06H
	DB	021H
	DB	06H
	DB	021H
	DB	026H
	DB	021H
	DB	026H
	DB	021H
	DB	026H
	DB	021H
	DB	026H
	DB	021H
	DB	026H
	DB	021H
	DB	06H
	DB	021H
	DB	06H
	DB	021H
	DB	026H
	DB	021H
	DB	027H
	DB	021H
	DB	026H
	DB	021H
	DB	026H
	DB	021H
	DB	06H
	DB	019H
	DB	06H
	DB	019H
	DB	06H
	DB	021H
	DB	026H
	DB	021H
	DB	06H
	DB	019H
	DB	06H
	DB	021H
	DB	026H
	DB	021H
	DB	026H
	DB	021H
	DB	06H
	DB	019H
	DB	06H
	DB	021H
	DB	06H
	DB	021H
	DB	06H
	DB	019H
	DB	06H
	DB	021H
	DB	026H
	DB	021H
	DB	026H
	DB	021H
	DB	026H
	DB	021H
	DB	026H
	DB	021H
	DB	026H
	DB	021H
	DB	026H
	DB	021H
	DB	06H
	DB	021H
	DB	06H
	DB	021H
	DB	026H
	DB	021H
	DB	06H
	DB	021H
	DB	06H
	DB	021H
	DB	026H
	DB	021H
	DB	026H
	DB	021H
	DB	06H
	DB	019H
	DB	06H
	DB	019H
	DB	06H
	DB	019H
	DB	06H
	DB	021H
	DB	06H
	DB	021H
	DB	026H
	DB	021H
	DB	06H
	DB	021H
	DB	026H
	DB	021H
	DB	026H
	DB	021H
	DB	026H
	DB	021H
	DB	06H
	DB	019H
	DB	06H
	DB	019H
	DB	026H
	DB	021H
	DB	06H
	DB	021H
	DB	06H
	DB	021H
	DB	06H
	DB	019H
	DB	026H
	DB	021H
	DB	06H
	DB	021H
	DB	026H
	DB	021H
	DB	06H
	DB	021H
	DB	06H
	DB	021H
	DB	027H
	DB	021H
	DB	026H
	DB	021H
	DB	06H
	DB	021H
	DB	06H
	DB	019H
	DB	06H
	DB	021H
	DB	046H
	DB	021H
	DB	026H
	DB	021H
	DB	026H
	DB	021H
	DB	027H
	DB	021H
	DB	026H
	DB	021H
	DB	027H
	DB	021H
	DB	026H
	DB	021H
	DB	026H
	DB	021H
	DB	026H
	DB	021H
	DB	06H
	DB	021H
	DB	06H
	DB	021H
	DB	06H
	DB	021H
	DB	06H
	DB	019H
	DB	026H
	DB	021H
	DB	026H
	DB	021H
	DB	026H
	DB	021H
	DB	026H
	DB	021H
	DB	06H
	DB	021H
	DB	06H
	DB	019H
	DB	026H
	DB	021H
	DB	026H
	DB	021H
	DB	06H
	DB	021H
	DB	06H
	DB	019H
	DB	026H
	DB	021H
	DB	026H
	DB	021H
	DB	06H
	DB	021H
	DB	026H
	DB	021H
	DB	06H
	DB	019H
	DB	06H
	DB	019H
	DB	06H
	DB	021H
	DB	026H
	DB	021H
	DB	026H
	DB	021H
	DB	026H
	DB	021H
	DB	026H
	DB	021H
	DB	06H
	DB	019H
	DB	026H
	DB	021H
	DB	06H
	DB	021H
	DB	06H
	DB	021H
	DB	06H
	DB	019H
	DB	026H
	DB	021H
	DB	026H
	DB	021H
	DB	06H
	DB	021H
	DB	026H
	DB	021H
	DB	06H
	DB	019H
	DB	06H
	DB	021H
	DB	026H
	DB	021H
	DB	026H
	DB	021H
	DB	046H
	DB	021H
	DB	026H
	DB	021H
	DB	026H
	DB	021H
	DB	026H
	DB	021H
	DB	026H
	DB	021H
	DB	026H
	DB	021H
	DB	06H
	DB	021H
	DB	026H
	DB	021H
	DB	06H
	DB	021H
	DB	06H
	DB	021H
	DB	06H
	DB	021H
	DB	06H
	DB	021H
	DB	026H
	DB	021H
	DB	026H
	DB	021H
	DB	026H
	DB	021H
	DB	026H
	DB	021H
	DB	026H
	DB	021H
	DB	026H
	DB	021H
	DB	026H
	DB	021H
	DB	026H
	DB	021H
	DB	027H
	DB	021H
	DB	026H
	DB	021H
	DB	06H
	DB	021H
	DB	06H
	DB	019H
	DB	06H
	DB	021H
	DB	06H
	DB	021H
	DB	026H
	DB	021H
	DB	06H
	DB	021H
	DB	06H
	DB	019H
	DB	06H
	DB	021H
	DB	06H
	DB	019H
	DB	026H
	DB	021H
	DB	026H
	DB	021H
	DB	026H
	DB	021H
	DB	026H
	DB	021H
	DB	026H
	DB	021H
	DB	026H
	DB	021H
	DB	027H
	DB	021H
	DB	06H
	DB	021H
	DB	06H
	DB	021H
	DB	026H
	DB	021H
	DB	06H
	DB	021H
	DB	06H
	DB	021H
	DB	026H
	DB	021H
	DB	026H
	DB	021H
	DB	026H
	DB	021H
	DB	026H
	DB	021H
	DB	026H
	DB	021H
	DB	026H
	DB	021H
	DB	026H
	DB	021H
	DB	06H
	DB	021H
	DB	06H
	DB	021H
	DB	026H
	DB	021H
	DB	06H
	DB	019H
	DB	026H
	DB	021H
	DB	026H
	DB	021H
	DB	026H
	DB	021H
	DB	026H
	DB	021H
	DB	026H
	DB	021H
	DB	026H
	DB	021H
	DB	06H
	DB	021H
	DB	026H
	DB	021H
	DB	026H
	DB	021H
	DB	06H
	DB	021H
	DB	06H
	DB	019H
	DB	06H
	DB	021H
	DB	06H
	DB	021H
	DB	06H
	DB	021H
	DB	06H
	DB	021H
	DB	026H
	DB	021H
	DB	026H
	DB	021H
	DB	06H
	DB	021H
	DB	026H
	DB	021H
	DB	026H
	DB	021H
	DB	06H
	DB	021H
	DB	026H
	DB	021H
	DB	026H
	DB	021H
	DB	06H
	DB	021H
	DB	06H
	DB	021H
	DB	05H
	DB	019H
	DB	026H
	DB	021H
	DB	06H
	DB	021H
	DB	026H
	DB	021H
	DB	026H
	DB	021H
	DB	06H
	DB	021H
	DB	06H
	DB	019H
	DB	026H
	DB	021H
	DB	027H
	DB	021H
	DB	026H
	DB	021H
	DB	026H
	DB	021H
	DB	026H
	DB	021H
	DB	026H
	DB	021H
	DB	026H
	DB	021H
	DB	026H
	DB	021H
	DB	026H
	DB	021H
	DB	027H
	DB	021H
	DB	046H
	DB	021H
	DB	026H
	DB	021H
	DB	026H
	DB	021H
	DB	027H
	DB	021H
	DB	06H
	DB	021H
	DB	026H
	DB	021H
	DB	06H
	DB	019H
	DB	026H
	DB	021H
	DB	06H
	DB	021H
	DB	06H
	DB	021H
	DB	05H
	DB	019H
	DB	05H
	DB	019H
	DB	06H
	DB	021H
	DB	026H
	DB	021H
	DB	026H
	DB	021H
	DB	06H
	DB	021H
	DB	026H
	DB	021H
	DB	026H
	DB	021H
	DB	026H
	DB	021H
	DB	026H
	DB	021H
	DB	026H
	DB	021H
	DB	026H
	DB	021H
	DB	06H
	DB	021H
	DB	026H
	DB	021H
	DB	06H
	DB	019H
	DB	06H
	DB	021H
	DB	06H
	DB	021H
	DB	026H
	DB	021H
	DB	026H
	DB	021H
	DB	06H
	DB	021H
	DB	026H
	DB	021H
	DB	06H
	DB	019H
	DB	026H
	DB	021H
	DB	026H
	DB	021H
	DB	026H
	DB	021H
	DB	06H
	DB	021H
	DB	026H
	DB	021H
	DB	06H
	DB	021H
	DB	06H
	DB	021H
	DB	026H
	DB	021H
	DB	026H
	DB	021H
	DB	06H
	DB	021H
	DB	026H
	DB	021H
	DB	026H
	DB	021H
	DB	06H
	DB	019H
	DB	06H
	DB	021H
	DB	026H
	DB	021H
	DB	06H
	DB	021H
	DB	026H
	DB	021H
	DB	06H
	DB	021H
	DB	026H
	DB	021H
	DB	06H
	DB	021H
	DB	06H
	DB	021H
	DB	026H
	DB	021H
	DB	026H
	DB	021H
	DB	026H
	DB	021H
	DB	06H
	DB	021H
	DB	06H
	DB	021H
	DB	026H
	DB	021H
	DB	026H
	DB	021H
	DB	026H
	DB	021H
	DB	026H
	DB	021H
	DB	06H
	DB	021H
	DB	06H
	DB	021H
	DB	026H
	DB	021H
	DB	06H
	DB	019H
	DB	06H
	DB	019H
	DB	06H
	DB	021H
	DB	026H
	DB	021H
	DB	026H
	DB	021H
	DB	026H
	DB	021H
	DB	026H
	DB	021H
	DB	06H
	DB	021H
	DB	06H
	DB	021H
	DB	06H
	DB	021H
	DB	06H
	DB	021H
	DB	06H
	DB	021H
	DB	06H
	DB	021H
	DB	06H
	DB	021H
	DB	026H
	DB	021H
	DB	026H
	DB	021H
	DB	06H
	DB	021H
	DB	026H
	DB	021H
	DB	026H
	DB	021H
	DB	06H
	DB	021H
	DB	026H
	DB	021H
	DB	027H
	DB	021H
	DB	026H
	DB	021H
	DB	06H
	DB	019H
	DB	026H
	DB	021H
	DB	027H
	DB	021H
	DB	026H
	DB	021H
	DB	06H
	DB	021H
	DB	026H
	DB	021H
	DB	026H
	DB	021H
	DB	06H
	DB	021H
	DB	06H
	DB	021H
	DB	026H
	DB	021H
	DB	06H
	DB	021H
	DB	06H
	DB	019H
	DB	06H
	DB	019H
	DB	06H
	DB	021H
	DB	026H
	DB	021H
	DB	026H
	DB	021H
	DB	06H
	DB	021H
	DB	06H
	DB	019H
	DB	06H
	DB	021H
	DB	026H
	DB	021H
	DB	046H
	DB	021H
	DB	026H
	DB	021H
	DB	026H
	DB	021H
	DB	026H
	DB	021H
	DB	026H
	DB	021H
	DB	026H
	DB	021H
	DB	026H
	DB	021H
	DB	06H
	DB	021H
	DB	06H
	DB	021H
	DB	06H
	DB	021H
	DB	026H
	DB	021H
	DB	06H
	DB	021H
	DB	06H
	DB	021H
	DB	06H
	DB	021H
	DB	026H
	DB	021H
	DB	06H
	DB	021H
	DB	05H
	DB	019H
	DB	06H
	DB	021H
	DB	026H
	DB	021H
	DB	026H
	DB	021H
	DB	026H
	DB	021H
	DB	06H
	DB	021H
	DB	06H
	DB	019H
	DB	06H
	DB	021H
	DB	026H
	DB	021H
	DB	026H
	DB	021H
	DB	06H
	DB	019H
	DB	026H
	DB	021H
	DB	027H
	DB	021H
	DB	026H
	DB	021H
	DB	026H
	DB	021H
	DB	026H
	DB	021H
	DB	06H
	DB	021H
	DB	026H
	DB	021H
	DB	026H
	DB	021H
	DB	026H
	DB	021H
	DB	06H
	DB	021H
	DB	026H
	DB	021H
	DB	06H
	DB	021H
	DB	06H
	DB	021H
	DB	026H
	DB	021H
	DB	026H
	DB	021H
	DB	026H
	DB	021H
	DB	06H
	DB	021H
	DB	026H
	DB	021H
	DB	026H
	DB	021H
	DB	027H
	DB	021H
	DB	06H
	DB	021H
	DB	026H
	DB	021H
	DB	026H
	DB	021H
	DB	026H
	DB	021H
	DB	026H
	DB	021H
	DB	026H
	DB	021H
	DB	026H
	DB	021H
	DB	026H
	DB	021H
	DB	06H
	DB	019H
	DB	06H
	DB	019H
	DB	06H
	DB	021H
	DB	026H
	DB	021H
	DB	06H
	DB	019H
	DB	06H
	DB	021H
	DB	06H
	DB	019H
	DB	046H
	DB	021H
	DB	026H
	DB	021H
	DB	026H
	DB	021H
	DB	06H
	DB	021H
	DB	06H
	DB	021H
	DB	06H
	DB	021H
	DB	06H
	DB	019H
	DB	06H
	DB	019H
	DB	026H
	DB	021H
	DB	026H
	DB	021H
	DB	026H
	DB	021H
	DB	026H
	DB	021H
	DB	026H
	DB	021H
	DB	026H
	DB	021H
	DB	026H
	DB	021H
	DB	06H
	DB	021H
	DB	06H
	DB	019H
	DB	06H
	DB	021H
	DB	026H
	DB	021H
	DB	06H
	DB	021H
	DB	026H
	DB	021H
	DB	06H
	DB	021H
	DB	06H
	DB	021H
	DB	026H
	DB	021H
	DB	06H
	DB	021H
	DB	06H
	DB	019H
	DB	06H
	DB	021H
	DB	026H
	DB	021H
	DB	026H
	DB	021H
	DB	026H
	DB	021H
	DB	06H
	DB	021H
	DB	026H
	DB	021H
	DB	026H
	DB	021H
	DB	026H
	DB	021H
	DB	06H
	DB	019H
	DB	06H
	DB	021H
	DB	026H
	DB	021H
	DB	027H
	DB	021H
	DB	026H
	DB	021H
	DB	06H
	DB	021H
	DB	026H
	DB	021H
	DB	026H
	DB	021H
	DB	026H
	DB	021H
	DB	026H
	DB	021H
	DB	06H
	DB	021H
	DB	06H
	DB	021H
	DB	06H
	DB	021H
	DB	06H
	DB	021H
	DB	06H
	DB	019H
	DB	06H
	DB	021H
	DB	06H
	DB	021H
	DB	026H
	DB	021H
	DB	026H
	DB	021H
	DB	06H
	DB	021H
	DB	06H
	DB	021H
	DB	026H
	DB	021H
	DB	026H
	DB	021H
	DB	026H
	DB	021H
	DB	06H
	DB	019H
	DB	026H
	DB	021H
	DB	026H
	DB	021H
	DB	026H
	DB	021H
	DB	026H
	DB	021H
	DB	06H
	DB	021H
	DB	026H
	DB	021H
	DB	06H
	DB	019H
	DB	06H
	DB	021H
	DB	026H
	DB	021H
	DB	026H
	DB	021H
	DB	026H
	DB	021H
	DB	06H
	DB	021H
	DB	026H
	DB	021H
	DB	027H
	DB	021H
	DB	026H
	DB	021H
	DB	06H
	DB	021H
	DB	06H
	DB	021H
	DB	06H
	DB	021H
	DB	026H
	DB	021H
	DB	026H
	DB	021H
	DB	047H
	DB	021H
	DB	026H
	DB	021H
	DB	026H
	DB	021H
	DB	06H
	DB	019H
	DB	026H
	DB	021H
	DB	026H
	DB	021H
	DB	06H
	DB	021H
	DB	06H
	DB	021H
	DB	026H
	DB	021H
	DB	026H
	DB	021H
	DB	027H
	DB	021H
	DB	026H
	DB	021H
	DB	06H
	DB	021H
	DB	026H
	DB	021H
	DB	026H
	DB	021H
	DB	06H
	DB	021H
	DB	026H
	DB	021H
	DB	026H
	DB	021H
	DB	026H
	DB	021H
	DB	06H
	DB	021H
	DB	026H
	DB	021H
	DB	026H
	DB	021H
	DB	06H
	DB	021H
	DB	026H
	DB	021H
	DB	06H
	DB	021H
	DB	06H
	DB	019H
	DB	06H
	DB	021H
	DB	06H
	DB	021H
	DB	06H
	DB	021H
	DB	06H
	DB	019H
	DB	026H
	DB	021H
	DB	026H
	DB	021H
	DB	06H
	DB	021H
	DB	026H
	DB	021H
	DB	026H
	DB	021H
	DB	026H
	DB	021H
	DB	06H
	DB	021H
	DB	06H
	DB	021H
	DB	06H
	DB	021H
	DB	026H
	DB	021H
	DB	026H
	DB	021H
	DB	06H
	DB	021H
	DB	06H
	DB	021H
	DB	06H
	DB	021H
	DB	05H
	DB	019H
	DB	06H
	DB	021H
	DB	026H
	DB	021H
	DB	026H
	DB	021H
	DB	06H
	DB	021H
	DB	06H
	DB	021H
	DB	06H
	DB	021H
	DB	06H
	DB	019H
	DB	06H
	DB	021H
	DB	026H
	DB	021H
	DB	026H
	DB	021H
	DB	026H
	DB	021H
	DB	06H
	DB	021H
	DB	06H
	DB	019H
	DB	05H
	DB	019H
	DB	026H
	DB	021H
	DB	026H
	DB	021H
	DB	06H
	DB	021H
	DB	026H
	DB	021H
	DB	026H
	DB	021H
	DB	026H
	DB	021H
	DB	026H
	DB	021H
	DB	026H
	DB	021H
	DB	06H
	DB	021H
	DB	027H
	DB	021H
	DB	06H
	DB	021H
	DB	026H
	DB	021H
	DB	026H
	DB	021H
	DB	026H
	DB	021H
	DB	026H
	DB	021H
	DB	026H
	DB	021H
	DB	026H
	DB	021H
	DB	026H
	DB	021H
	DB	026H
	DB	021H
	DB	06H
	DB	021H
	DB	06H
	DB	019H
	DB	026H
	DB	021H
	DB	026H
	DB	021H
	DB	06H
	DB	021H
	DB	06H
	DB	019H
	DB	06H
	DB	021H
	DB	06H
	DB	021H
	DB	06H
	DB	019H
	DB	06H
	DB	021H
	DB	026H
	DB	021H
	DB	06H
	DB	021H
	DB	06H
	DB	021H
	DB	06H
	DB	021H
	DB	06H
	DB	021H
	DB	06H
	DB	021H
	DB	026H
	DB	021H
	DB	06H
	DB	021H
	DB	026H
	DB	021H
	DB	026H
	DB	021H
	DB	026H
	DB	021H
	DB	06H
	DB	021H
	DB	06H
	DB	021H
	DB	026H
	DB	021H
	DB	06H
	DB	021H
	DB	026H
	DB	021H
	DB	026H
	DB	021H
	DB	06H
	DB	021H
	DB	06H
	DB	021H
	DB	026H
	DB	021H
	DB	06H
	DB	021H
	DB	06H
	DB	021H
	DB	026H
	DB	021H
	DB	06H
	DB	021H
	DB	026H
	DB	021H
	DB	06H
	DB	021H
	DB	026H
	DB	021H
	DB	026H
	DB	021H
	DB	06H
	DB	021H
	DB	026H
	DB	021H
	DB	06H
	DB	021H
	DB	06H
	DB	021H
	DB	06H
	DB	019H
	DB	06H
	DB	021H
	DB	06H
	DB	021H
	DB	06H
	DB	021H
	DB	06H
	DB	019H
	DB	05H
	DB	019H
	DB	06H
	DB	021H
	DB	06H
	DB	021H
	DB	06H
	DB	021H
	DB	06H
	DB	021H
	DB	026H
	DB	021H
	DB	06H
	DB	019H
	DB	05H
	DB	019H
	DB	06H
	DB	021H
	DB	026H
	DB	021H
	DB	026H
	DB	021H
	DB	026H
	DB	021H
	DB	06H
	DB	021H
	DB	026H
	DB	021H
	DB	06H
	DB	019H
	DB	026H
	DB	021H
	DB	026H
	DB	021H
	DB	06H
	DB	021H
	DB	026H
	DB	021H
	DB	026H
	DB	021H
	DB	026H
	DB	021H
	DB	026H
	DB	021H
	DB	06H
	DB	021H
	DB	026H
	DB	021H
	DB	026H
	DB	021H
	DB	06H
	DB	021H
	DB	06H
	DB	021H
	DB	06H
	DB	019H
	DB	06H
	DB	021H
	DB	06H
	DB	021H
	DB	06H
	DB	021H
	DB	06H
	DB	021H
	DB	026H
	DB	021H
	DB	06H
	DB	021H
	DB	06H
	DB	021H
	DB	026H
	DB	021H
	DB	06H
	DB	021H
	DB	06H
	DB	021H
	DB	06H
	DB	021H
	DB	06H
	DB	021H
	DB	026H
	DB	021H
	DB	026H
	DB	021H
	DB	06H
	DB	021H
	DB	026H
	DB	021H
	DB	06H
	DB	021H
	DB	026H
	DB	021H
	DB	026H
	DB	021H
	DB	06H
	DB	019H
	DB	026H
	DB	021H
	DB	06H
	DB	021H
	DB	06H
	DB	019H
	DB	026H
	DB	021H
	DB	026H
	DB	021H
	DB	026H
	DB	021H
	DB	06H
	DB	021H
	DB	06H
	DB	021H
	DB	06H
	DB	021H
	DB	06H
	DB	021H
	DB	026H
	DB	021H
	DB	026H
	DB	021H
	DB	026H
	DB	021H
	DB	026H
	DB	021H
	DB	06H
	DB	021H
	DB	026H
	DB	021H
	DB	06H
	DB	021H
	DB	026H
	DB	021H
	DB	026H
	DB	021H
	DB	026H
	DB	021H
	DB	06H
	DB	021H
	DB	06H
	DB	019H
	DB	06H
	DB	021H
	DB	026H
	DB	021H
	DB	026H
	DB	021H
	DB	026H
	DB	021H
	DB	026H
	DB	021H
	DB	026H
	DB	021H
	DB	026H
	DB	021H
	DB	026H
	DB	021H
	DB	06H
	DB	021H
	DB	026H
	DB	021H
	DB	026H
	DB	021H
	DB	06H
	DB	019H
	DB	06H
	DB	021H
	DB	026H
	DB	021H
	DB	026H
	DB	021H
	DB	06H
	DB	019H
	DB	06H
	DB	021H
	DB	026H
	DB	021H
	DB	026H
	DB	021H
	DB	06H
	DB	021H
	DB	06H
	DB	019H
	DB	06H
	DB	021H
	DB	06H
	DB	021H
	DB	06H
	DB	019H
	DB	026H
	DB	021H
	DB	026H
	DB	021H
	DB	026H
	DB	021H
	DB	06H
	DB	021H
	DB	026H
	DB	021H
	DB	06H
	DB	021H
	DB	06H
	DB	019H
	DB	06H
	DB	021H
	DB	06H
	DB	021H
	DB	026H
	DB	021H
	DB	06H
	DB	019H
	DB	026H
	DB	021H
	DB	06H
	DB	021H
	DB	026H
	DB	021H
	DB	026H
	DB	021H
	DB	026H
	DB	021H
	DB	026H
	DB	021H
	DB	06H
	DB	021H
	DB	026H
	DB	021H
	DB	06H
	DB	021H
	DB	06H
	DB	021H
	DB	06H
	DB	021H
	DB	026H
	DB	021H
	DB	026H
	DB	021H
	DB	026H
	DB	021H
	DB	026H
	DB	021H
	DB	06H
	DB	021H
	DB	026H
	DB	021H
	DB	026H
	DB	021H
	DB	026H
	DB	021H
	DB	026H
	DB	021H
	DB	026H
	DB	021H
	DB	027H
	DB	021H
	DB	026H
	DB	021H
	DB	026H
	DB	021H
	DB	026H
	DB	021H
	DB	026H
	DB	021H
	DB	06H
	DB	021H
	DB	026H
	DB	021H
	DB	06H
	DB	019H
	DB	026H
	DB	021H
	DB	026H
	DB	021H
	DB	026H
	DB	021H
	DB	06H
	DB	021H
	DB	026H
	DB	021H
	DB	026H
	DB	021H
	DB	06H
	DB	021H
	DB	026H
	DB	021H
	DB	06H
	DB	021H
	DB	026H
	DB	021H
	DB	026H
	DB	021H
	DB	026H
	DB	021H
	DB	06H
	DB	021H
	DB	026H
	DB	021H
	DB	06H
	DB	021H
	DB	06H
	DB	021H
	DB	06H
	DB	021H
	DB	06H
	DB	019H
	DB	06H
	DB	021H
	DB	06H
	DB	021H
	DB	026H
	DB	021H
	DB	026H
	DB	021H
	DB	026H
	DB	021H
	DB	06H
	DB	021H
	DB	026H
	DB	021H
	DB	05H
	DB	019H
	DB	06H
	DB	021H
	DB	06H
	DB	021H
	DB	06H
	DB	021H
	DB	06H
	DB	021H
	DB	05H
	DB	019H
	DB	026H
	DB	021H
	DB	06H
	DB	021H
	DB	026H
	DB	021H
	DB	026H
	DB	021H
	DB	06H
	DB	019H
	DB	06H
	DB	021H
	DB	026H
	DB	021H
	DB	06H
	DB	021H
	DB	06H
	DB	019H
	DB	06H
	DB	021H
	DB	026H
	DB	021H
	DB	026H
	DB	021H
	DB	026H
	DB	021H
	DB	06H
	DB	021H
	DB	06H
	DB	021H
	DB	06H
	DB	019H
	DB	026H
	DB	021H
	DB	026H
	DB	021H
	DB	026H
	DB	021H
	DB	026H
	DB	021H
	DB	06H
	DB	019H
	DB	06H
	DB	021H
	DB	026H
	DB	021H
	DB	026H
	DB	021H
	DB	06H
	DB	021H
	DB	027H
	DB	021H
	DB	026H
	DB	021H
	DB	06H
	DB	021H
	DB	06H
	DB	021H
	DB	06H
	DB	021H
	DB	06H
	DB	021H
	DB	026H
	DB	021H
	DB	026H
	DB	021H
	DB	06H
	DB	019H
	DB	06H
	DB	019H
	DB	026H
	DB	021H
	DB	026H
	DB	021H
	DB	06H
	DB	019H
	DB	026H
	DB	021H
	DB	06H
	DB	021H
	DB	05H
	DB	019H
	DB	06H
	DB	021H
	DB	06H
	DB	021H
	DB	06H
	DB	021H
	DB	026H
	DB	021H
	DB	06H
	DB	021H
	DB	026H
	DB	021H
	DB	05H
	DB	019H
	DB	026H
	DB	021H
	DB	026H
	DB	021H
	DB	026H
	DB	021H
	DB	026H
	DB	021H
	DB	06H
	DB	021H
	DB	06H
	DB	021H
	DB	06H
	DB	021H
	DB	06H
	DB	021H
	DB	026H
	DB	021H
	DB	026H
	DB	021H
	DB	026H
	DB	021H
	DB	026H
	DB	021H
	DB	06H
	DB	019H
	DB	026H
	DB	021H
	DB	026H
	DB	021H
	DB	026H
	DB	021H
	DB	026H
	DB	021H
	DB	026H
	DB	021H
	DB	06H
	DB	021H
	DB	026H
	DB	021H
	DB	06H
	DB	019H
	DB	026H
	DB	021H
	DB	06H
	DB	021H
	DB	026H
	DB	021H
	DB	06H
	DB	021H
	DB	06H
	DB	021H
	DB	06H
	DB	021H
	DB	026H
	DB	021H
	DB	06H
	DB	021H
	DB	06H
	DB	021H
	DB	026H
	DB	021H
	DB	06H
	DB	021H
	DB	06H
	DB	019H
	DB	06H
	DB	021H
	DB	027H
	DB	021H
	DB	026H
	DB	021H
	DB	026H
	DB	021H
	DB	026H
	DB	021H
	DB	026H
	DB	021H
	DB	026H
	DB	021H
	DB	026H
	DB	021H
	DB	026H
	DB	021H
	DB	026H
	DB	021H
	DB	06H
	DB	021H
	DB	026H
	DB	021H
	DB	026H
	DB	021H
	DB	06H
	DB	021H
	DB	06H
	DB	021H
	DB	026H
	DB	021H
	DB	026H
	DB	021H
	DB	06H
	DB	021H
	DB	06H
	DB	021H
	DB	06H
	DB	019H
	DB	06H
	DB	019H
	DB	026H
	DB	021H
	DB	06H
	DB	021H
	DB	026H
	DB	021H
	DB	026H
	DB	021H
	DB	06H
	DB	021H
	DB	026H
	DB	021H
	DB	026H
	DB	021H
	DB	026H
	DB	021H
	DB	026H
	DB	021H
	DB	026H
	DB	021H
	DB	06H
	DB	021H
	DB	06H
	DB	021H
	DB	026H
	DB	021H
	DB	06H
	DB	019H
	DB	06H
	DB	021H
	DB	06H
	DB	021H
	DB	026H
	DB	021H
	DB	06H
	DB	021H
	DB	026H
	DB	021H
	DB	06H
	DB	019H
	DB	026H
	DB	021H
	DB	06H
	DB	021H
	DB	06H
	DB	019H
	DB	026H
	DB	021H
	DB	026H
	DB	021H
	DB	026H
	DB	021H
	DB	06H
	DB	021H
	DB	06H
	DB	021H
	DB	06H
	DB	021H
	DB	06H
	DB	019H
	DB	026H
	DB	021H
	DB	026H
	DB	021H
	DB	026H
	DB	021H
	DB	026H
	DB	021H
	DB	026H
	DB	021H
	DB	06H
	DB	021H
	DB	026H
	DB	021H
	DB	026H
	DB	021H
	DB	06H
	DB	021H
	DB	06H
	DB	019H
	DB	05H
	DB	019H
	DB	06H
	DB	021H
	DB	026H
	DB	021H
	DB	026H
	DB	021H
	DB	06H
	DB	021H
	DB	06H
	DB	019H
	DB	026H
	DB	021H
	DB	06H
	DB	021H
	DB	026H
	DB	021H
	DB	06H
	DB	021H
	DB	06H
	DB	019H
	DB	06H
	DB	021H
	DB	026H
	DB	021H
	DB	06H
	DB	019H
	DB	026H
	DB	021H
	DB	026H
	DB	021H
	DB	05H
	DB	019H
	DB	026H
	DB	021H
	DB	026H
	DB	021H
	DB	06H
	DB	021H
	DB	06H
	DB	021H
	DB	05H
	DB	019H
	DB	026H
	DB	021H
	DB	026H
	DB	021H
	DB	06H
	DB	019H
	DB	026H
	DB	021H
	DB	026H
	DB	021H
	DB	026H
	DB	021H
	DB	026H
	DB	021H
	DB	06H
	DB	021H
	DB	06H
	DB	021H
	DB	026H
	DB	021H
	DB	026H
	DB	021H
	DB	06H
	DB	021H
	DB	06H
	DB	021H
	DB	026H
	DB	021H
	DB	06H
	DB	021H
	DB	026H
	DB	021H
	DB	06H
	DB	019H
	DB	026H
	DB	021H
	DB	026H
	DB	021H
	DB	06H
	DB	021H
	DB	026H
	DB	021H
	DB	06H
	DB	021H
	DB	026H
	DB	021H
	DB	06H
	DB	021H
	DB	06H
	DB	021H
	DB	026H
	DB	021H
	DB	026H
	DB	021H
	DB	06H
	DB	021H
	DB	06H
	DB	021H
	DB	06H
	DB	021H
	DB	06H
	DB	021H
	DB	026H
	DB	021H
	DB	026H
	DB	021H
	DB	06H
	DB	021H
	DB	06H
	DB	021H
	DB	026H
	DB	021H
	DB	026H
	DB	021H
	DB	026H
	DB	021H
	DB	026H
	DB	021H
	DB	026H
	DB	021H
	DB	026H
	DB	021H
	DB	027H
	DB	021H
	DB	026H
	DB	021H
	DB	026H
	DB	021H
	DB	026H
	DB	021H
	DB	026H
	DB	021H
	DB	027H
	DB	021H
	DB	06H
	DB	021H
	DB	026H
	DB	021H
	DB	026H
	DB	021H
	DB	06H
	DB	021H
	DB	026H
	DB	021H
	DB	06H
	DB	021H
	DB	026H
	DB	021H
	DB	026H
	DB	021H
	DB	06H
	DB	021H
	DB	026H
	DB	021H
	DB	06H
	DB	019H
	DB	06H
	DB	019H
	DB	06H
	DB	021H
	DB	06H
	DB	021H
	DB	06H
	DB	019H
	DB	06H
	DB	021H
	DB	026H
	DB	021H
	DB	06H
	DB	021H
	DB	026H
	DB	021H
	DB	06H
	DB	021H
	DB	06H
	DB	021H
	DB	026H
	DB	021H
	DB	026H
	DB	021H
	DB	026H
	DB	021H
	DB	06H
	DB	021H
	DB	026H
	DB	021H
	DB	06H
	DB	021H
	DB	026H
	DB	021H
	DB	06H
	DB	021H
	DB	026H
	DB	021H
	DB	06H
	DB	021H
	DB	06H
	DB	021H
	DB	06H
	DB	021H
	DB	06H
	DB	021H
	DB	026H
	DB	021H
	DB	06H
	DB	021H
	DB	06H
	DB	021H
	DB	026H
	DB	021H
	DB	026H
	DB	021H
	DB	026H
	DB	021H
	DB	026H
	DB	021H
	DB	026H
	DB	021H
	DB	026H
	DB	021H
	DB	06H
	DB	021H
	DB	06H
	DB	021H
	DB	06H
	DB	019H
	DB	06H
	DB	021H
	DB	026H
	DB	021H
	DB	026H
	DB	021H
	DB	06H
	DB	021H
	DB	06H
	DB	021H
	DB	026H
	DB	021H
	DB	027H
	DB	021H
	DB	06H
	DB	021H
	DB	06H
	DB	021H
	DB	026H
	DB	021H
	DB	026H
	DB	021H
	DB	026H
	DB	021H
	DB	06H
	DB	019H
	DB	06H
	DB	021H
	DB	026H
	DB	021H
	DB	06H
	DB	021H
	DB	06H
	DB	021H
	DB	06H
	DB	019H
	DB	026H
	DB	021H
	DB	06H
	DB	021H
	DB	06H
	DB	021H
	DB	06H
	DB	021H
	DB	06H
	DB	019H
	DB	06H
	DB	021H
	DB	026H
	DB	021H
	DB	06H
	DB	019H
	DB	06H
	DB	021H
	DB	026H
	DB	021H
	DB	06H
	DB	021H
	DB	06H
	DB	021H
	DB	06H
	DB	019H
	DB	06H
	DB	019H
	DB	06H
	DB	021H
	DB	026H
	DB	021H
	DB	026H
	DB	021H
	DB	026H
	DB	021H
	DB	06H
	DB	021H
	DB	06H
	DB	019H
	DB	026H
	DB	021H
	DB	06H
	DB	021H
	DB	026H
	DB	021H
	DB	026H
	DB	021H
	DB	026H
	DB	021H
	DB	026H
	DB	021H
	DB	06H
	DB	021H
	DB	026H
	DB	021H
	DB	06H
	DB	021H
	DB	06H
	DB	021H
	DB	026H
	DB	021H
	DB	06H
	DB	021H
	DB	026H
	DB	021H
	DB	06H
	DB	019H
	DB	06H
	DB	021H
	DB	026H
	DB	021H
	DB	026H
	DB	021H
	DB	026H
	DB	021H
	DB	026H
	DB	021H
	DB	06H
	DB	021H
	DB	06H
	DB	021H
	DB	06H
	DB	021H
	DB	026H
	DB	021H
	DB	026H
	DB	021H
	DB	06H
	DB	019H
	DB	06H
	DB	021H
	DB	05H
	DB	019H
	DB	06H
	DB	021H
	DB	06H
	DB	021H
	DB	06H
	DB	019H
	DB	026H
	DB	021H
	DB	06H
	DB	021H
	DB	06H
	DB	021H
	DB	06H
	DB	019H
	DB	06H
	DB	021H
	DB	026H
	DB	021H
	DB	026H
	DB	021H
	DB	026H
	DB	021H
	DB	026H
	DB	021H
	DB	026H
	DB	021H
	DB	026H
	DB	021H
	DB	026H
	DB	021H
	DB	06H
	DB	021H
	DB	06H
	DB	021H
	DB	06H
	DB	019H
	DB	06H
	DB	021H
	DB	06H
	DB	021H
	DB	06H
	DB	021H
	DB	026H
	DB	021H
	DB	06H
	DB	021H
	DB	06H
	DB	021H
	DB	026H
	DB	021H
	DB	06H
	DB	019H
	DB	06H
	DB	021H
	DB	06H
	DB	019H
	DB	06H
	DB	019H
	DB	06H
	DB	021H
	DB	06H
	DB	019H
	DB	06H
	DB	021H
	DB	06H
	DB	021H
	DB	06H
	DB	021H
	DB	026H
	DB	021H
	DB	026H
	DB	021H
	DB	026H
	DB	021H
	DB	026H
	DB	021H
	DB	06H
	DB	021H
	DB	06H
	DB	021H
	DB	06H
	DB	021H
	DB	026H
	DB	021H
	DB	026H
	DB	021H
	DB	06H
	DB	021H
	DB	026H
	DB	021H
	DB	06H
	DB	021H
	DB	06H
	DB	021H
	DB	026H
	DB	021H
	DB	026H
	DB	021H
	DB	026H
	DB	021H
	DB	026H
	DB	021H
	DB	06H
	DB	021H
	DB	06H
	DB	019H
	DB	026H
	DB	021H
	DB	026H
	DB	021H
	DB	06H
	DB	019H
	DB	06H
	DB	021H
	DB	026H
	DB	021H
	DB	026H
	DB	021H
	DB	026H
	DB	021H
	DB	026H
	DB	021H
	DB	026H
	DB	021H
	DB	026H
	DB	021H
	DB	026H
	DB	021H
	DB	06H
	DB	021H
	DB	06H
	DB	019H
	DB	06H
	DB	021H
	DB	026H
	DB	021H
	DB	06H
	DB	021H
	DB	06H
	DB	019H
	DB	026H
	DB	021H
	DB	06H
	DB	021H
	DB	06H
	DB	021H
	DB	06H
	DB	021H
	DB	026H
	DB	021H
	DB	06H
	DB	019H
	DB	06H
	DB	021H
	DB	06H
	DB	021H
	DB	06H
	DB	021H
	DB	06H
	DB	019H
	DB	05H
	DB	019H
	DB	06H
	DB	021H
	DB	06H
	DB	021H
	DB	026H
	DB	021H
	DB	026H
	DB	021H
	DB	026H
	DB	021H
	DB	026H
	DB	021H
	DB	06H
	DB	021H
	DB	026H
	DB	021H
	DB	026H
	DB	021H
	DB	026H
	DB	021H
	DB	027H
	DB	021H
	DB	026H
	DB	021H
	DB	06H
	DB	021H
	DB	06H
	DB	021H
	DB	026H
	DB	021H
	DB	026H
	DB	021H
	DB	026H
	DB	021H
	DB	026H
	DB	021H
	DB	06H
	DB	021H
	DB	06H
	DB	021H
	DB	026H
	DB	021H
	DB	026H
	DB	021H
	DB	06H
	DB	021H
	DB	026H
	DB	021H
	DB	026H
	DB	021H
	DB	06H
	DB	021H
	DB	026H
	DB	021H
	DB	026H
	DB	021H
	DB	026H
	DB	021H
	DB	06H
	DB	021H
	DB	06H
	DB	021H
	DB	06H
	DB	021H
	DB	06H
	DB	021H
	DB	06H
	DB	021H
	DB	06H
	DB	021H
	DB	06H
	DB	021H
	DB	06H
	DB	021H
	DB	06H
	DB	021H
	DB	026H
	DB	021H
	DB	026H
	DB	021H
	DB	06H
	DB	021H
	DB	06H
	DB	021H
	DB	026H
	DB	021H
	DB	026H
	DB	021H
	DB	06H
	DB	021H
	DB	06H
	DB	021H
	DB	06H
	DB	021H
	DB	026H
	DB	021H
	DB	026H
	DB	021H
	DB	06H
	DB	019H
	DB	0e6H
	DB	018H
	DB	06H
	DB	021H
	DB	06H
	DB	019H
	DB	06H
	DB	021H
	DB	06H
	DB	019H
	DB	026H
	DB	021H
	DB	06H
	DB	021H
	DB	06H
	DB	021H
	DB	026H
	DB	021H
	DB	06H
	DB	019H
	DB	06H
	DB	019H
	DB	06H
	DB	021H
	DB	06H
	DB	021H
	DB	05H
	DB	019H
	DB	06H
	DB	019H
	DB	06H
	DB	021H
	DB	026H
	DB	021H
	DB	026H
	DB	021H
	DB	06H
	DB	021H
	DB	026H
	DB	021H
	DB	026H
	DB	021H
	DB	06H
	DB	021H
	DB	06H
	DB	021H
	DB	026H
	DB	021H
	DB	026H
	DB	021H
	DB	026H
	DB	021H
	DB	06H
	DB	021H
	DB	06H
	DB	021H
	DB	026H
	DB	021H
	DB	06H
	DB	021H
	DB	026H
	DB	021H
	DB	06H
	DB	021H
	DB	026H
	DB	021H
	DB	06H
	DB	021H
	DB	06H
	DB	021H
	DB	06H
	DB	021H
	DB	06H
	DB	021H
	DB	06H
	DB	021H
	DB	06H
	DB	021H
	DB	026H
	DB	021H
	DB	026H
	DB	021H
	DB	06H
	DB	019H
	DB	06H
	DB	021H
	DB	026H
	DB	021H
	DB	06H
	DB	021H
	DB	06H
	DB	021H
	DB	026H
	DB	021H
	DB	06H
	DB	021H
	DB	026H
	DB	021H
	DB	06H
	DB	019H
	DB	06H
	DB	021H
	DB	026H
	DB	021H
	DB	06H
	DB	021H
	DB	026H
	DB	021H
	DB	026H
	DB	021H
	DB	026H
	DB	021H
	DB	026H
	DB	021H
	DB	06H
	DB	021H
	DB	06H
	DB	021H
	DB	026H
	DB	021H
	DB	026H
	DB	021H
	DB	026H
	DB	021H
	DB	06H
	DB	021H
	DB	06H
	DB	021H
	DB	06H
	DB	021H
	DB	026H
	DB	021H
	DB	026H
	DB	021H
	DB	06H
	DB	021H
	DB	06H
	DB	021H
	DB	026H
	DB	021H
	DB	026H
	DB	021H
	DB	026H
	DB	021H
	DB	026H
	DB	021H
	DB	026H
	DB	021H
	DB	026H
	DB	021H
	DB	06H
	DB	021H
	DB	026H
	DB	021H
	DB	026H
	DB	021H
	DB	026H
	DB	021H
	DB	026H
	DB	021H
	DB	026H
	DB	021H
	DB	026H
	DB	021H
	DB	026H
	DB	021H
	DB	026H
	DB	021H
	DB	026H
	DB	021H
	DB	026H
	DB	021H
	DB	06H
	DB	021H
	DB	026H
	DB	021H
	DB	06H
	DB	021H
	DB	026H
	DB	021H
	DB	06H
	DB	021H
	DB	06H
	DB	021H
	DB	06H
	DB	021H
	DB	026H
	DB	021H
	DB	026H
	DB	021H
	DB	026H
	DB	021H
	DB	06H
	DB	021H
	DB	06H
	DB	021H
	DB	026H
	DB	021H
	DB	06H
	DB	021H
	DB	06H
	DB	019H
	DB	06H
	DB	021H
	DB	026H
	DB	021H
	DB	06H
	DB	021H
	DB	026H
	DB	021H
	DB	026H
	DB	021H
	DB	06H
	DB	021H
	DB	06H
	DB	021H
	DB	06H
	DB	021H
	DB	026H
	DB	021H
	DB	026H
	DB	021H
	DB	06H
	DB	021H
	DB	06H
	DB	021H
	DB	06H
	DB	021H
	DB	026H
	DB	021H
	DB	06H
	DB	021H
	DB	026H
	DB	021H
	DB	06H
	DB	021H
	DB	026H
	DB	021H
	DB	06H
	DB	021H
	DB	06H
	DB	021H
	DB	06H
	DB	021H
	DB	06H
	DB	021H
	DB	026H
	DB	021H
	DB	026H
	DB	021H
	DB	026H
	DB	021H
	DB	026H
	DB	021H
	DB	06H
	DB	021H
	DB	026H
	DB	021H
	DB	06H
	DB	021H
	DB	06H
	DB	021H
	DB	026H
	DB	021H
	DB	06H
	DB	021H
	DB	06H
	DB	021H
	DB	026H
	DB	021H
	DB	026H
	DB	021H
	DB	026H
	DB	021H
	DB	06H
	DB	021H
	DB	026H
	DB	021H
	DB	06H
	DB	021H
	DB	06H
	DB	021H
	DB	0e6H
	DB	018H
	DB	06H
	DB	019H
	DB	026H
	DB	021H
	DB	026H
	DB	021H
	DB	06H
	DB	021H
	DB	026H
	DB	021H
	DB	06H
	DB	021H
	DB	06H
	DB	021H
	DB	026H
	DB	021H
	DB	06H
	DB	021H
	DB	06H
	DB	021H
	DB	026H
	DB	021H
	DB	06H
	DB	021H
	DB	026H
	DB	021H
	DB	026H
	DB	021H
	DB	026H
	DB	021H
	DB	06H
	DB	021H
	DB	06H
	DB	021H
	DB	026H
	DB	021H
	DB	06H
	DB	021H
	DB	06H
	DB	021H
	DB	06H
	DB	021H
	DB	026H
	DB	021H
	DB	026H
	DB	021H
	DB	06H
	DB	021H
	DB	06H
	DB	019H
	DB	026H
	DB	021H
	DB	026H
	DB	021H
	DB	026H
	DB	021H
	DB	026H
	DB	021H
	DB	06H
	DB	021H
	DB	06H
	DB	021H
	DB	06H
	DB	021H
	DB	026H
	DB	021H
	DB	06H
	DB	021H
	DB	06H
	DB	021H
	DB	026H
	DB	021H
	DB	06H
	DB	021H
	DB	06H
	DB	019H
	DB	06H
	DB	021H
	DB	06H
	DB	021H
	DB	06H
	DB	021H
	DB	026H
	DB	021H
	DB	026H
	DB	021H
	DB	06H
	DB	019H
	DB	026H
	DB	021H
	DB	026H
	DB	021H
	DB	06H
	DB	021H
	DB	026H
	DB	021H
	DB	06H
	DB	021H
	DB	06H
	DB	019H
	DB	06H
	DB	021H
	DB	026H
	DB	021H
	DB	026H
	DB	021H
	DB	06H
	DB	021H
	DB	026H
	DB	021H
	DB	026H
	DB	021H
	DB	06H
	DB	021H
	DB	06H
	DB	019H
	DB	06H
	DB	021H
	DB	026H
	DB	021H
	DB	026H
	DB	021H
	DB	06H
	DB	019H
	DB	06H
	DB	021H
	DB	026H
	DB	021H
	DB	06H
	DB	021H
	DB	026H
	DB	021H
	DB	026H
	DB	021H
	DB	06H
	DB	021H
	DB	026H
	DB	021H
	DB	06H
	DB	021H
	DB	06H
	DB	021H
	DB	06H
	DB	019H
	DB	06H
	DB	019H
	DB	026H
	DB	021H
	DB	026H
	DB	021H
	DB	026H
	DB	021H
	DB	06H
	DB	021H
	DB	06H
	DB	019H
	DB	026H
	DB	021H
	DB	026H
	DB	021H
	DB	026H
	DB	021H
	DB	026H
	DB	021H
	DB	027H
	DB	021H
	DB	026H
	DB	021H
	DB	026H
	DB	021H
	DB	026H
	DB	021H
	DB	06H
	DB	021H
	DB	027H
	DB	021H
	DB	026H
	DB	021H
	DB	06H
	DB	021H
	DB	06H
	DB	021H
	DB	026H
	DB	021H
	DB	06H
	DB	021H
	DB	026H
	DB	021H
	DB	06H
	DB	021H
	DB	026H
	DB	021H
	DB	026H
	DB	021H
	DB	027H
	DB	021H
	DB	026H
	DB	021H
	DB	026H
	DB	021H
	DB	06H
	DB	019H
	DB	06H
	DB	021H
	DB	06H
	DB	021H
	DB	026H
	DB	021H
	DB	026H
	DB	021H
	DB	026H
	DB	021H
	DB	026H
	DB	021H
	DB	06H
	DB	021H
	DB	06H
	DB	021H
	DB	026H
	DB	021H
	DB	026H
	DB	021H
	DB	06H
	DB	019H
	DB	06H
	DB	021H
	DB	06H
	DB	019H
	DB	06H
	DB	019H
	DB	026H
	DB	021H
	DB	06H
	DB	021H
	DB	06H
	DB	019H
	DB	06H
	DB	021H
	DB	026H
	DB	021H
	DB	06H
	DB	021H
	DB	06H
	DB	021H
	DB	026H
	DB	021H
	DB	06H
	DB	019H
	DB	026H
	DB	021H
	DB	06H
	DB	021H
	DB	06H
	DB	021H
	DB	026H
	DB	021H
	DB	06H
	DB	021H
	DB	06H
	DB	019H
	DB	026H
	DB	021H
	DB	026H
	DB	021H
	DB	06H
	DB	021H
	DB	06H
	DB	021H
	DB	026H
	DB	021H
	DB	026H
	DB	021H
	DB	06H
	DB	021H
	DB	06H
	DB	021H
	DB	026H
	DB	021H
	DB	06H
	DB	021H
	DB	026H
	DB	021H
	DB	026H
	DB	021H
	DB	026H
	DB	021H
	DB	06H
	DB	019H
	DB	026H
	DB	021H
	DB	06H
	DB	021H
	DB	026H
	DB	021H
	DB	027H
	DB	021H
	DB	026H
	DB	021H
	DB	026H
	DB	021H
	DB	026H
	DB	021H
	DB	06H
	DB	021H
	DB	06H
	DB	021H
	DB	026H
	DB	021H
	DB	026H
	DB	021H
	DB	026H
	DB	021H
	DB	06H
	DB	021H
	DB	026H
	DB	021H
	DB	026H
	DB	021H
	DB	06H
	DB	021H
	DB	026H
	DB	021H
	DB	026H
	DB	021H
	DB	026H
	DB	021H
	DB	026H
	DB	021H
	DB	06H
	DB	021H
	DB	06H
	DB	021H
	DB	026H
	DB	021H
	DB	05H
	DB	019H
	DB	06H
	DB	019H
	DB	06H
	DB	021H
	DB	06H
	DB	019H
	DB	06H
	DB	019H
	DB	06H
	DB	021H
	DB	06H
	DB	021H
	DB	026H
	DB	021H
	DB	026H
	DB	021H
	DB	026H
	DB	021H
	DB	026H
	DB	021H
	DB	026H
	DB	021H
	DB	026H
	DB	021H
	DB	06H
	DB	021H
	DB	026H
	DB	021H
	DB	026H
	DB	021H
	DB	06H
	DB	021H
	DB	06H
	DB	019H
	DB	026H
	DB	021H
	DB	06H
	DB	021H
	DB	06H
	DB	019H
	DB	06H
	DB	019H
	DB	06H
	DB	021H
	DB	06H
	DB	021H
	DB	06H
	DB	021H
	DB	026H
	DB	021H
	DB	06H
	DB	019H
	DB	06H
	DB	021H
	DB	026H
	DB	021H
	DB	026H
	DB	021H
	DB	026H
	DB	021H
	DB	026H
	DB	021H
	DB	06H
	DB	021H
	DB	06H
	DB	019H
	DB	06H
	DB	019H
	DB	05H
	DB	019H
	DB	05H
	DB	019H
	DB	026H
	DB	021H
	DB	06H
	DB	021H
	DB	06H
	DB	021H
	DB	06H
	DB	021H
	DB	026H
	DB	021H
	DB	026H
	DB	021H
	DB	06H
	DB	021H
	DB	06H
	DB	019H
	DB	06H
	DB	021H
	DB	06H
	DB	021H
	DB	026H
	DB	021H
	DB	06H
	DB	021H
	DB	026H
	DB	021H
	DB	026H
	DB	021H
	DB	026H
	DB	021H
	DB	06H
	DB	021H
	DB	06H
	DB	021H
	DB	06H
	DB	019H
	DB	026H
	DB	021H
	DB	06H
	DB	021H
	DB	06H
	DB	019H
	DB	06H
	DB	021H
	DB	026H
	DB	021H
	DB	026H
	DB	021H
	DB	06H
	DB	019H
	DB	026H
	DB	021H
	DB	026H
	DB	021H
	DB	06H
	DB	021H
	DB	05H
	DB	019H
	DB	06H
	DB	021H
	DB	05H
	DB	019H
	DB	06H
	DB	019H
	DB	026H
	DB	021H
	DB	026H
	DB	021H
	DB	05H
	DB	019H
	DB	05H
	DB	019H
	DB	06H
	DB	019H
	DB	026H
	DB	021H
	DB	06H
	DB	021H
	DB	027H
	DB	021H
	DB	026H
	DB	021H
	DB	026H
	DB	021H
	DB	06H
	DB	021H
	DB	06H
	DB	021H
	DB	06H
	DB	019H
	DB	06H
	DB	021H
	DB	026H
	DB	021H
	DB	026H
	DB	021H
	DB	026H
	DB	021H
	DB	06H
	DB	021H
	DB	026H
	DB	021H
	DB	027H
	DB	021H
	DB	026H
	DB	021H
	DB	06H
	DB	021H
	DB	026H
	DB	021H
	DB	026H
	DB	021H
	DB	06H
	DB	021H
	DB	06H
	DB	021H
	DB	06H
	DB	021H
	DB	06H
	DB	021H
	DB	026H
	DB	021H
	DB	06H
	DB	021H
	DB	06H
	DB	021H
	DB	06H
	DB	021H
	DB	026H
	DB	021H
	DB	06H
	DB	021H
	DB	026H
	DB	021H
	DB	06H
	DB	021H
	DB	06H
	DB	019H
	DB	06H
	DB	019H
	DB	06H
	DB	021H
	DB	06H
	DB	021H
	DB	026H
	DB	021H
	DB	026H
	DB	021H
	DB	026H
	DB	021H
	DB	026H
	DB	021H
	DB	06H
	DB	021H
	DB	026H
	DB	021H
	DB	06H
	DB	021H
	DB	06H
	DB	019H
	DB	06H
	DB	021H
	DB	06H
	DB	021H
	DB	026H
	DB	021H
	DB	06H
	DB	021H
	DB	026H
	DB	021H
	DB	026H
	DB	021H
	DB	026H
	DB	021H
	DB	026H
	DB	021H
	DB	06H
	DB	019H
	DB	06H
	DB	021H
	DB	06H
	DB	021H
	DB	06H
	DB	021H
	DB	06H
	DB	019H
	DB	06H
	DB	021H
	DB	06H
	DB	021H
	DB	06H
	DB	019H
	DB	06H
	DB	021H
	DB	026H
	DB	021H
	DB	026H
	DB	021H
	DB	026H
	DB	021H
	DB	027H
	DB	021H
	DB	026H
	DB	021H
	DB	06H
	DB	021H
	DB	06H
	DB	021H
	DB	026H
	DB	021H
	DB	027H
	DB	021H
	DB	026H
	DB	021H
	DB	026H
	DB	021H
	DB	026H
	DB	021H
	DB	06H
	DB	021H
	DB	026H
	DB	021H
	DB	026H
	DB	021H
	DB	026H
	DB	021H
	DB	06H
	DB	021H
	DB	06H
	DB	021H
	DB	06H
	DB	019H
	DB	026H
	DB	021H
	DB	026H
	DB	021H
	DB	026H
	DB	021H
	DB	06H
	DB	021H
	DB	026H
	DB	021H
	DB	026H
	DB	021H
	DB	026H
	DB	021H
	DB	026H
	DB	021H
	DB	026H
	DB	021H
	DB	026H
	DB	021H
	DB	027H
	DB	021H
	DB	026H
	DB	021H
	DB	06H
	DB	019H
	DB	06H
	DB	021H
	DB	026H
	DB	021H
	DB	06H
	DB	019H
	DB	06H
	DB	021H
	DB	06H
	DB	019H
	DB	06H
	DB	021H
	DB	05H
	DB	021H
	DB	06H
	DB	021H
	DB	06H
	DB	021H
	DB	06H
	DB	021H
	DB	06H
	DB	019H
	DB	06H
	DB	019H
	DB	026H
	DB	021H
	DB	06H
	DB	021H
	DB	06H
	DB	019H
	DB	06H
	DB	021H
	DB	06H
	DB	021H
	DB	06H
	DB	019H
	DB	026H
	DB	021H
	DB	06H
	DB	021H
	DB	06H
	DB	021H
	DB	026H
	DB	021H
	DB	06H
	DB	019H
	DB	026H
	DB	021H
	DB	026H
	DB	021H
	DB	026H
	DB	021H
	DB	026H
	DB	021H
	DB	026H
	DB	021H
	DB	06H
	DB	021H
	DB	06H
	DB	019H
	DB	06H
	DB	019H
	DB	026H
	DB	021H
	DB	026H
	DB	021H
	DB	06H
	DB	021H
	DB	026H
	DB	021H
	DB	026H
	DB	021H
	DB	026H
	DB	021H
	DB	026H
	DB	021H
	DB	06H
	DB	021H
	DB	026H
	DB	021H
	DB	026H
	DB	021H
	DB	026H
	DB	021H
	DB	026H
	DB	021H
	DB	026H
	DB	021H
	DB	06H
	DB	021H
	DB	026H
	DB	021H
	DB	026H
	DB	021H
	DB	06H
	DB	021H
	DB	026H
	DB	021H
	DB	06H
	DB	019H
	DB	06H
	DB	021H
	DB	06H
	DB	021H
	DB	06H
	DB	019H
	DB	026H
	DB	021H
	DB	06H
	DB	021H
	DB	06H
	DB	019H
	DB	06H
	DB	021H
	DB	026H
	DB	021H
	DB	026H
	DB	021H
	DB	06H
	DB	021H
	DB	026H
	DB	021H
	DB	06H
	DB	021H
	DB	06H
	DB	019H
	DB	06H
	DB	021H
	DB	06H
	DB	021H
	DB	06H
	DB	019H
	DB	06H
	DB	021H
	DB	06H
	DB	021H
	DB	06H
	DB	021H
	DB	06H
	DB	019H
	DB	06H
	DB	021H
	DB	026H
	DB	021H
	DB	06H
	DB	021H
	DB	026H
	DB	021H
	DB	06H
	DB	019H
	DB	06H
	DB	021H
	DB	06H
	DB	019H
	DB	06H
	DB	021H
	DB	06H
	DB	019H
	DB	06H
	DB	021H
	DB	06H
	DB	021H
	DB	06H
	DB	021H
	DB	026H
	DB	021H
	DB	06H
	DB	021H
	DB	026H
	DB	021H
	DB	026H
	DB	021H
	DB	026H
	DB	021H
	DB	026H
	DB	021H
	DB	06H
	DB	021H
	DB	027H
	DB	021H
	DB	026H
	DB	021H
	DB	026H
	DB	021H
	DB	026H
	DB	021H
	DB	06H
	DB	021H
	DB	026H
	DB	021H
	DB	026H
	DB	021H
	DB	026H
	DB	021H
	DB	06H
	DB	019H
	DB	026H
	DB	021H
	DB	06H
	DB	021H
	DB	06H
	DB	019H
	DB	026H
	DB	021H
	DB	026H
	DB	021H
	DB	06H
	DB	021H
	DB	026H
	DB	021H
	DB	026H
	DB	021H
	DB	06H
	DB	021H
	DB	06H
	DB	019H
	DB	026H
	DB	021H
	DB	027H
	DB	021H
	DB	026H
	DB	021H
	DB	06H
	DB	021H
	DB	06H
	DB	021H
	DB	026H
	DB	021H
	DB	026H
	DB	021H
	DB	06H
	DB	021H
	DB	026H
	DB	021H
	DB	026H
	DB	021H
	DB	026H
	DB	021H
	DB	026H
	DB	021H
	DB	026H
	DB	021H
	DB	06H
	DB	021H
	DB	026H
	DB	021H
	DB	06H
	DB	021H
	DB	026H
	DB	021H
	DB	026H
	DB	021H
	DB	026H
	DB	021H
	DB	026H
	DB	021H
	DB	026H
	DB	021H
	DB	026H
	DB	021H
	DB	026H
	DB	021H
	DB	06H
	DB	021H
	DB	026H
	DB	021H
	DB	026H
	DB	021H
	DB	06H
	DB	021H
	DB	026H
	DB	021H
	DB	026H
	DB	021H
	DB	06H
	DB	021H
	DB	06H
	DB	021H
	DB	06H
	DB	021H
	DB	026H
	DB	021H
	DB	06H
	DB	021H
	DB	027H
	DB	021H
	DB	026H
	DB	021H
	DB	026H
	DB	021H
	DB	06H
	DB	021H
	DB	026H
	DB	021H
	DB	026H
	DB	021H
	DB	06H
	DB	021H
	DB	026H
	DB	021H
	DB	026H
	DB	021H
	DB	026H
	DB	021H
	DB	026H
	DB	021H
	DB	06H
	DB	021H
	DB	026H
	DB	021H
	DB	06H
	DB	021H
	DB	05H
	DB	019H
	DB	06H
	DB	019H
	DB	06H
	DB	021H
	DB	026H
	DB	021H
	DB	026H
	DB	021H
	DB	026H
	DB	021H
	DB	026H
	DB	021H
	DB	026H
	DB	021H
	DB	06H
	DB	021H
	DB	06H
	DB	019H
	DB	06H
	DB	019H
	DB	026H
	DB	021H
	DB	06H
	DB	021H
	DB	026H
	DB	021H
	DB	027H
	DB	021H
	DB	06H
	DB	021H
	DB	06H
	DB	021H
	DB	026H
	DB	021H
	DB	06H
	DB	021H
	DB	06H
	DB	021H
	DB	026H
	DB	021H
	DB	06H
	DB	019H
	DB	06H
	DB	019H
	DB	06H
	DB	021H
	DB	026H
	DB	021H
	DB	06H
	DB	019H
	DB	026H
	DB	021H
	DB	026H
	DB	021H
	DB	026H
	DB	021H
	DB	06H
	DB	021H
	DB	06H
	DB	021H
	DB	026H
	DB	021H
	DB	06H
	DB	019H
	DB	026H
	DB	021H
	DB	06H
	DB	021H
	DB	026H
	DB	021H
	DB	06H
	DB	021H
	DB	026H
	DB	021H
	DB	06H
	DB	019H
	DB	06H
	DB	021H
	DB	026H
	DB	021H
	DB	06H
	DB	021H
	DB	026H
	DB	021H
	DB	027H
	DB	021H
	DB	026H
	DB	021H
	DB	026H
	DB	021H
	DB	06H
	DB	021H
	DB	06H
	DB	021H
	DB	06H
	DB	021H
	DB	026H
	DB	021H
	DB	06H
	DB	021H
	DB	06H
	DB	019H
	DB	06H
	DB	021H
	DB	026H
	DB	021H
	DB	026H
	DB	021H
	DB	026H
	DB	021H
	DB	026H
	DB	021H
	DB	06H
	DB	021H
	DB	026H
	DB	021H
	DB	06H
	DB	019H
	DB	026H
	DB	021H
	DB	06H
	DB	021H
	DB	026H
	DB	021H
	DB	06H
	DB	019H
	DB	026H
	DB	021H
	DB	06H
	DB	021H
	DB	026H
	DB	021H
	DB	026H
	DB	021H
	DB	06H
	DB	021H
	DB	06H
	DB	021H
	DB	026H
	DB	021H
	DB	026H
	DB	021H
	DB	026H
	DB	021H
	DB	026H
	DB	021H
	DB	026H
	DB	021H
	DB	027H
	DB	021H
	DB	026H
	DB	021H
	DB	026H
	DB	021H
	DB	06H
	DB	021H
	DB	06H
	DB	021H
	DB	026H
	DB	021H
	DB	06H
	DB	021H
	DB	026H
	DB	021H
	DB	026H
	DB	021H
	DB	027H
	DB	021H
	DB	026H
	DB	021H
	DB	026H
	DB	021H
	DB	06H
	DB	021H
	DB	026H
	DB	021H
	DB	047H
	DB	021H
	DB	06H
	DB	021H
	DB	06H
	DB	019H
	DB	026H
	DB	021H
	DB	06H
	DB	021H
	DB	06H
	DB	021H
	DB	06H
	DB	019H
	DB	06H
	DB	021H
	DB	026H
	DB	021H
	DB	026H
	DB	021H
	DB	06H
	DB	021H
	DB	06H
	DB	021H
	DB	06H
	DB	021H
	DB	06H
	DB	021H
	DB	026H
	DB	021H
	DB	06H
	DB	021H
	DB	026H
	DB	021H
	DB	06H
	DB	021H
	DB	06H
	DB	021H
	DB	026H
	DB	021H
	DB	06H
	DB	019H
	DB	06H
	DB	021H
	DB	026H
	DB	021H
	DB	06H
	DB	019H
	DB	06H
	DB	021H
	DB	026H
	DB	021H
	DB	026H
	DB	021H
	DB	026H
	DB	021H
	DB	06H
	DB	019H
	DB	026H
	DB	021H
	DB	026H
	DB	021H
	DB	06H
	DB	019H
	DB	06H
	DB	021H
	DB	026H
	DB	021H
	DB	06H
	DB	019H
	DB	026H
	DB	021H
	DB	06H
	DB	021H
	DB	06H
	DB	019H
	DB	026H
	DB	021H
	DB	026H
	DB	021H
	DB	06H
	DB	021H
	DB	06H
	DB	019H
	DB	06H
	DB	019H
	DB	06H
	DB	021H
	DB	026H
	DB	021H
	DB	026H
	DB	021H
	DB	06H
	DB	019H
	DB	06H
	DB	021H
	DB	026H
	DB	021H
	DB	026H
	DB	021H
	DB	026H
	DB	021H
	DB	06H
	DB	021H
	DB	06H
	DB	021H
	DB	06H
	DB	019H
	DB	06H
	DB	019H
	DB	06H
	DB	021H
	DB	06H
	DB	021H
	DB	026H
	DB	021H
	DB	026H
	DB	021H
	DB	026H
	DB	021H
	DB	06H
	DB	019H
	DB	05H
	DB	021H
	DB	06H
	DB	021H
	DB	06H
	DB	021H
	DB	026H
	DB	021H
	DB	026H
	DB	021H
	DB	026H
	DB	021H
	DB	026H
	DB	021H
	DB	026H
	DB	021H
	DB	026H
	DB	021H
	DB	06H
	DB	021H
	DB	06H
	DB	021H
	DB	06H
	DB	021H
	DB	026H
	DB	021H
	DB	05H
	DB	021H
	DB	06H
	DB	021H
	DB	06H
	DB	019H
	DB	05H
	DB	019H
	DB	06H
	DB	021H
	DB	06H
	DB	021H
	DB	06H
	DB	021H
	DB	06H
	DB	019H
	DB	06H
	DB	019H
	DB	06H
	DB	021H
	DB	06H
	DB	021H
	DB	06H
	DB	019H
	DB	026H
	DB	021H
	DB	06H
	DB	021H
	DB	026H
	DB	021H
	DB	026H
	DB	021H
	DB	026H
	DB	021H
	DB	026H
	DB	021H
	DB	026H
	DB	021H
	DB	05H
	DB	019H
	DB	06H
	DB	019H
	DB	06H
	DB	021H
	DB	026H
	DB	021H
	DB	06H
	DB	021H
	DB	06H
	DB	019H
	DB	026H
	DB	021H
	DB	06H
	DB	021H
	DB	06H
	DB	021H
	DB	026H
	DB	021H
	DB	06H
	DB	021H
	DB	026H
	DB	021H
	DB	026H
	DB	021H
	DB	06H
	DB	021H
	DB	06H
	DB	021H
	DB	06H
	DB	021H
	DB	06H
	DB	019H
	DB	06H
	DB	021H
	DB	06H
	DB	021H
	DB	026H
	DB	021H
	DB	026H
	DB	021H
	DB	026H
	DB	021H
	DB	026H
	DB	021H
	DB	06H
	DB	019H
	DB	026H
	DB	021H
	DB	06H
	DB	021H
	DB	06H
	DB	021H
	DB	06H
	DB	019H
	DB	06H
	DB	019H
	DB	026H
	DB	021H
	DB	06H
	DB	021H
	DB	026H
	DB	021H
	DB	026H
	DB	021H
	DB	026H
	DB	021H
	DB	06H
	DB	021H
	DB	06H
	DB	021H
	DB	06H
	DB	021H
	DB	06H
	DB	021H
	DB	046H
	DB	021H
	DB	026H
	DB	021H
	DB	06H
	DB	021H
	DB	026H
	DB	021H
	DB	06H
	DB	021H
	DB	026H
	DB	021H
	DB	026H
	DB	021H
	DB	026H
	DB	021H
	DB	026H
	DB	021H
	DB	026H
	DB	021H
	DB	026H
	DB	021H
	DB	026H
	DB	021H
	DB	027H
	DB	021H
	DB	06H
	DB	021H
	DB	06H
	DB	021H
	DB	026H
	DB	021H
	DB	06H
	DB	019H
	DB	06H
	DB	021H
	DB	026H
	DB	021H
	DB	046H
	DB	021H
	DB	026H
	DB	021H
	DB	026H
	DB	021H
	DB	026H
	DB	021H
	DB	06H
	DB	019H
	DB	06H
	DB	019H
	DB	026H
	DB	021H
	DB	06H
	DB	021H
	DB	06H
	DB	021H
	DB	026H
	DB	021H
	DB	026H
	DB	021H
	DB	06H
	DB	019H
	DB	026H
	DB	021H
	DB	026H
	DB	021H
	DB	06H
	DB	021H
	DB	05H
	DB	019H
	DB	06H
	DB	019H
	DB	06H
	DB	021H
	DB	06H
	DB	021H
	DB	026H
	DB	021H
	DB	06H
	DB	019H
	DB	06H
	DB	019H
	DB	026H
	DB	021H
	DB	026H
	DB	021H
	DB	026H
	DB	021H
	DB	026H
	DB	021H
	DB	06H
	DB	021H
	DB	06H
	DB	021H
	DB	026H
	DB	021H
	DB	026H
	DB	021H
	DB	026H
	DB	021H
	DB	06H
	DB	021H
	DB	026H
	DB	021H
	DB	026H
	DB	021H
	DB	06H
	DB	021H
	DB	06H
	DB	021H
	DB	05H
	DB	019H
	DB	026H
	DB	021H
	DB	05H
	DB	019H
	DB	06H
	DB	021H
	DB	06H
	DB	019H
	DB	026H
	DB	021H
	DB	06H
	DB	021H
	DB	06H
	DB	019H
	DB	06H
	DB	021H
	DB	026H
	DB	021H
	DB	06H
	DB	021H
	DB	06H
	DB	021H
	DB	06H
	DB	021H
	DB	06H
	DB	021H
	DB	06H
	DB	021H
	DB	06H
	DB	019H
	DB	026H
	DB	021H
	DB	026H
	DB	021H
	DB	026H
	DB	021H
	DB	06H
	DB	021H
	DB	026H
	DB	021H
	DB	06H
	DB	019H
	DB	06H
	DB	021H
	DB	06H
	DB	021H
	DB	026H
	DB	021H
	DB	026H
	DB	021H
	DB	06H
	DB	021H
	DB	026H
	DB	021H
	DB	06H
	DB	021H
	DB	06H
	DB	019H
	DB	026H
	DB	021H
	DB	026H
	DB	021H
	DB	026H
	DB	021H
	DB	06H
	DB	021H
	DB	06H
	DB	019H
	DB	06H
	DB	019H
	DB	06H
	DB	021H
	DB	06H
	DB	019H
	DB	06H
	DB	021H
	DB	026H
	DB	021H
	DB	06H
	DB	021H
	DB	06H
	DB	021H
	DB	06H
	DB	021H
	DB	06H
	DB	019H
	DB	06H
	DB	021H
	DB	06H
	DB	021H
	DB	06H
	DB	021H
	DB	06H
	DB	021H
	DB	026H
	DB	021H
	DB	06H
	DB	019H
	DB	06H
	DB	021H
	DB	026H
	DB	021H
	DB	06H
	DB	021H
	DB	026H
	DB	021H
	DB	026H
	DB	021H
	DB	026H
	DB	021H
	DB	046H
	DB	021H
	DB	06H
	DB	021H
	DB	06H
	DB	021H
	DB	06H
	DB	021H
	DB	06H
	DB	021H
	DB	06H
	DB	019H
	DB	06H
	DB	021H
	DB	06H
	DB	021H
	DB	05H
	DB	021H
	DB	026H
	DB	021H
	DB	026H
	DB	021H
	DB	05H
	DB	019H
	DB	06H
	DB	021H
	DB	026H
	DB	021H
	DB	026H
	DB	021H
	DB	026H
	DB	021H
	DB	026H
	DB	021H
	DB	026H
	DB	021H
	DB	06H
	DB	019H
	DB	026H
	DB	021H
	DB	026H
	DB	021H
	DB	06H
	DB	021H
	DB	026H
	DB	021H
	DB	026H
	DB	021H
	DB	026H
	DB	021H
	DB	026H
	DB	021H
	DB	027H
	DB	021H
	DB	06H
	DB	021H
	DB	06H
	DB	019H
	DB	06H
	DB	021H
	DB	026H
	DB	021H
	DB	026H
	DB	021H
	DB	06H
	DB	019H
	DB	06H
	DB	021H
	DB	026H
	DB	021H
	DB	026H
	DB	021H
	DB	06H
	DB	019H
	DB	026H
	DB	021H
	DB	026H
	DB	021H
	DB	026H
	DB	021H
	DB	06H
	DB	021H
	DB	06H
	DB	019H
	DB	026H
	DB	021H
	DB	026H
	DB	021H
	DB	06H
	DB	021H
	DB	06H
	DB	019H
	DB	026H
	DB	021H
	DB	06H
	DB	021H
	DB	026H
	DB	021H
	DB	026H
	DB	021H
	DB	06H
	DB	021H
	DB	06H
	DB	019H
	DB	026H
	DB	021H
	DB	026H
	DB	021H
	DB	026H
	DB	021H
	DB	026H
	DB	021H
	DB	026H
	DB	021H
	DB	026H
	DB	021H
	DB	06H
	DB	021H
	DB	026H
	DB	021H
	DB	06H
	DB	021H
	DB	06H
	DB	019H
	DB	026H
	DB	021H
	DB	026H
	DB	021H
	DB	06H
	DB	021H
	DB	06H
	DB	019H
	DB	026H
	DB	021H
	DB	026H
	DB	021H
	DB	026H
	DB	021H
	DB	06H
	DB	019H
	DB	026H
	DB	021H
	DB	06H
	DB	021H
	DB	026H
	DB	021H
	DB	06H
	DB	021H
	DB	026H
	DB	021H
	DB	026H
	DB	021H
	DB	06H
	DB	021H
	DB	06H
	DB	019H
	DB	06H
	DB	021H
	DB	06H
	DB	021H
	DB	026H
	DB	021H
	DB	026H
	DB	021H
	DB	026H
	DB	021H
	DB	06H
	DB	021H
	DB	0e6H
	DB	018H
	DB	06H
	DB	019H
	DB	026H
	DB	021H
	DB	026H
	DB	021H
	DB	026H
	DB	021H
	DB	06H
	DB	021H
	DB	026H
	DB	021H
	DB	06H
	DB	019H
	DB	06H
	DB	021H
	DB	026H
	DB	021H
	DB	026H
	DB	021H
	DB	06H
	DB	021H
	DB	06H
	DB	019H
	DB	026H
	DB	021H
	DB	026H
	DB	021H
	DB	026H
	DB	021H
	DB	026H
	DB	021H
	DB	06H
	DB	021H
	DB	06H
	DB	021H
	DB	026H
	DB	021H
	DB	026H
	DB	021H
	DB	026H
	DB	021H
	DB	06H
	DB	019H
	DB	026H
	DB	021H
	DB	026H
	DB	021H
	DB	06H
	DB	021H
	DB	06H
	DB	021H
	DB	026H
	DB	021H
	DB	06H
	DB	021H
	DB	06H
	DB	019H
	DB	027H
	DB	021H
	DB	06H
	DB	021H
	DB	06H
	DB	021H
	DB	06H
	DB	019H
	DB	026H
	DB	021H
	DB	06H
	DB	021H
	DB	06H
	DB	021H
	DB	026H
	DB	021H
	DB	06H
	DB	021H
	DB	06H
	DB	019H
	DB	06H
	DB	021H
	DB	026H
	DB	021H
	DB	026H
	DB	021H
	DB	026H
	DB	021H
	DB	06H
	DB	021H
	DB	06H
	DB	019H
	DB	026H
	DB	021H
	DB	026H
	DB	021H
	DB	026H
	DB	021H
	DB	026H
	DB	021H
	DB	06H
	DB	021H
	DB	06H
	DB	021H
	DB	06H
	DB	021H
	DB	026H
	DB	021H
	DB	026H
	DB	021H
	DB	06H
	DB	021H
	DB	026H
	DB	021H
	DB	026H
	DB	021H
	DB	06H
	DB	021H
	DB	06H
	DB	019H
	DB	06H
	DB	021H
	DB	026H
	DB	021H
	DB	026H
	DB	021H
	DB	026H
	DB	021H
	DB	026H
	DB	021H
	DB	027H
	DB	021H
	DB	06H
	DB	021H
	DB	06H
	DB	021H
	DB	06H
	DB	021H
	DB	06H
	DB	019H
	DB	06H
	DB	019H
	DB	06H
	DB	021H
	DB	06H
	DB	021H
	DB	06H
	DB	021H
	DB	026H
	DB	021H
	DB	026H
	DB	021H
	DB	06H
	DB	021H
	DB	026H
	DB	021H
	DB	06H
	DB	021H
	DB	06H
	DB	021H
	DB	026H
	DB	021H
	DB	06H
	DB	021H
	DB	026H
	DB	021H
	DB	06H
	DB	019H
	DB	06H
	DB	021H
	DB	06H
	DB	021H
	DB	06H
	DB	021H
	DB	026H
	DB	021H
	DB	026H
	DB	021H
	DB	06H
	DB	021H
	DB	026H
	DB	021H
	DB	06H
	DB	021H
	DB	026H
	DB	021H
	DB	026H
	DB	021H
	DB	026H
	DB	021H
	DB	026H
	DB	021H
	DB	06H
	DB	021H
	DB	026H
	DB	021H
	DB	026H
	DB	021H
	DB	06H
	DB	021H
	DB	026H
	DB	021H
	DB	06H
	DB	021H
	DB	026H
	DB	021H
	DB	026H
	DB	021H
	DB	026H
	DB	021H
	DB	026H
	DB	021H
	DB	026H
	DB	021H
	DB	026H
	DB	021H
	DB	026H
	DB	021H
	DB	027H
	DB	021H
	DB	026H
	DB	021H
	DB	06H
	DB	021H
	DB	06H
	DB	019H
	DB	026H
	DB	021H
	DB	026H
	DB	021H
	DB	06H
	DB	019H
	DB	06H
	DB	021H
	DB	05H
	DB	021H
	DB	026H
	DB	021H
	DB	026H
	DB	021H
	DB	06H
	DB	021H
	DB	06H
	DB	021H
	DB	026H
	DB	021H
	DB	026H
	DB	021H
	DB	06H
	DB	019H
	DB	06H
	DB	019H
	DB	026H
	DB	021H
	DB	026H
	DB	021H
	DB	06H
	DB	021H
	DB	026H
	DB	021H
	DB	026H
	DB	021H
	DB	026H
	DB	021H
	DB	06H
	DB	021H
	DB	026H
	DB	021H
	DB	026H
	DB	021H
	DB	06H
	DB	021H
	DB	026H
	DB	021H
	DB	06H
	DB	021H
	DB	026H
	DB	021H
	DB	026H
	DB	021H
	DB	06H
	DB	021H
	DB	06H
	DB	021H
	DB	06H
	DB	021H
	DB	06H
	DB	019H
	DB	06H
	DB	021H
	DB	06H
	DB	019H
	DB	05H
	DB	019H
	DB	06H
	DB	019H
	DB	06H
	DB	021H
	DB	06H
	DB	021H
	DB	026H
	DB	021H
	DB	026H
	DB	021H
	DB	06H
	DB	021H
	DB	026H
	DB	021H
	DB	026H
	DB	021H
	DB	026H
	DB	021H
	DB	06H
	DB	021H
	DB	026H
	DB	021H
	DB	026H
	DB	021H
	DB	06H
	DB	019H
	DB	026H
	DB	021H
	DB	06H
	DB	021H
	DB	06H
	DB	021H
	DB	06H
	DB	019H
	DB	06H
	DB	019H
	DB	06H
	DB	021H
	DB	026H
	DB	021H
	DB	026H
	DB	021H
	DB	06H
	DB	019H
	DB	05H
	DB	021H
	DB	06H
	DB	021H
	DB	026H
	DB	021H
	DB	06H
	DB	021H
	DB	026H
	DB	021H
	DB	06H
	DB	021H
	DB	0e5H
	DB	018H
	DB	06H
	DB	019H
	DB	06H
	DB	021H
	DB	0e5H
	DB	018H
	DB	06H
	DB	021H
	DB	06H
	DB	021H
	DB	06H
	DB	021H
	DB	06H
	DB	019H
	DB	026H
	DB	021H
	DB	026H
	DB	021H
	DB	06H
	DB	021H
	DB	06H
	DB	021H
	DB	06H
	DB	019H
	DB	06H
	DB	021H
	DB	026H
	DB	021H
	DB	06H
	DB	021H
	DB	06H
	DB	021H
	DB	06H
	DB	021H
	DB	06H
	DB	021H
	DB	06H
	DB	021H
	DB	06H
	DB	019H
	DB	06H
	DB	021H
	DB	06H
	DB	021H
	DB	026H
	DB	021H
	DB	06H
	DB	021H
	DB	06H
	DB	021H
	DB	06H
	DB	021H
	DB	026H
	DB	021H
	DB	06H
	DB	021H
	DB	06H
	DB	021H
	DB	026H
	DB	021H
	DB	06H
	DB	021H
	DB	06H
	DB	021H
	DB	026H
	DB	021H
	DB	06H
	DB	021H
	DB	06H
	DB	019H
	DB	06H
	DB	021H
	DB	026H
	DB	021H
	DB	026H
	DB	021H
	DB	06H
	DB	019H
	DB	06H
	DB	019H
	DB	06H
	DB	021H
	DB	026H
	DB	021H
	DB	06H
	DB	021H
	DB	026H
	DB	021H
	DB	06H
	DB	021H
	DB	06H
	DB	021H
	DB	06H
	DB	021H
	DB	06H
	DB	021H
	DB	06H
	DB	019H
	DB	06H
	DB	021H
	DB	026H
	DB	021H
	DB	06H
	DB	021H
	DB	026H
	DB	021H
	DB	06H
	DB	019H
	DB	026H
	DB	021H
	DB	026H
	DB	021H
	DB	026H
	DB	021H
	DB	06H
	DB	021H
	DB	026H
	DB	021H
	DB	026H
	DB	021H
	DB	06H
	DB	021H
	DB	06H
	DB	021H
	DB	06H
	DB	021H
	DB	026H
	DB	021H
	DB	026H
	DB	021H
	DB	06H
	DB	021H
	DB	0e5H
	DB	018H
	DB	06H
	DB	021H
	DB	026H
	DB	021H
	DB	06H
	DB	019H
	DB	026H
	DB	021H
	DB	06H
	DB	021H
	DB	06H
	DB	021H
	DB	05H
	DB	019H
	DB	06H
	DB	021H
	DB	026H
	DB	021H
	DB	026H
	DB	021H
	DB	026H
	DB	021H
	DB	026H
	DB	021H
	DB	06H
	DB	021H
	DB	06H
	DB	021H
	DB	026H
	DB	021H
	DB	06H
	DB	021H
	DB	06H
	DB	021H
	DB	06H
	DB	019H
	DB	06H
	DB	021H
	DB	026H
	DB	021H
	DB	026H
	DB	021H
	DB	026H
	DB	021H
	DB	026H
	DB	021H
	DB	06H
	DB	021H
	DB	026H
	DB	021H
	DB	06H
	DB	021H
	DB	026H
	DB	021H
	DB	06H
	DB	021H
	DB	0e6H
	DB	018H
	DB	06H
	DB	021H
	DB	06H
	DB	021H
	DB	06H
	DB	021H
	DB	06H
	DB	021H
	DB	06H
	DB	019H
	DB	026H
	DB	021H
	DB	026H
	DB	021H
	DB	026H
	DB	021H
	DB	026H
	DB	021H
	DB	06H
	DB	021H
	DB	06H
	DB	019H
	DB	06H
	DB	021H
	DB	026H
	DB	021H
	DB	026H
	DB	021H
	DB	026H
	DB	021H
	DB	026H
	DB	021H
	DB	06H
	DB	021H
	DB	06H
	DB	021H
	DB	026H
	DB	021H
	DB	026H
	DB	021H
	DB	026H
	DB	021H
	DB	06H
	DB	021H
	DB	06H
	DB	021H
	DB	06H
	DB	021H
	DB	06H
	DB	021H
	DB	026H
	DB	021H
	DB	06H
	DB	021H
	DB	026H
	DB	021H
	DB	026H
	DB	021H
	DB	026H
	DB	021H
	DB	026H
	DB	021H
	DB	026H
	DB	021H
	DB	026H
	DB	021H
	DB	06H
	DB	021H
	DB	026H
	DB	021H
	DB	06H
	DB	021H
	DB	06H
	DB	019H
	DB	06H
	DB	021H
	DB	06H
	DB	021H
	DB	06H
	DB	019H
	DB	06H
	DB	021H
	DB	026H
	DB	021H
	DB	06H
	DB	019H
	DB	06H
	DB	021H
	DB	06H
	DB	021H
	DB	06H
	DB	021H
	DB	026H
	DB	021H
	DB	06H
	DB	019H
	DB	06H
	DB	021H
	DB	026H
	DB	021H
	DB	06H
	DB	021H
	DB	06H
	DB	019H
	DB	06H
	DB	021H
	DB	06H
	DB	021H
	DB	06H
	DB	021H
	DB	06H
	DB	021H
	DB	06H
	DB	021H
	DB	06H
	DB	021H
	DB	06H
	DB	021H
	DB	06H
	DB	021H
	DB	026H
	DB	021H
	DB	026H
	DB	021H
	DB	027H
	DB	021H
	DB	026H
	DB	021H
	DB	06H
	DB	021H
	DB	06H
	DB	019H
	DB	06H
	DB	021H
	DB	026H
	DB	021H
	DB	026H
	DB	021H
	DB	026H
	DB	021H
	DB	06H
	DB	021H
	DB	026H
	DB	021H
	DB	026H
	DB	021H
	DB	026H
	DB	021H
	DB	026H
	DB	021H
	DB	06H
	DB	021H
	DB	026H
	DB	021H
	DB	026H
	DB	021H
	DB	026H
	DB	021H
	DB	026H
	DB	021H
	DB	06H
	DB	021H
	DB	06H
	DB	021H
	DB	026H
	DB	021H
	DB	026H
	DB	021H
	DB	06H
	DB	021H
	DB	06H
	DB	021H
	DB	06H
	DB	019H
	DB	06H
	DB	021H
	DB	06H
	DB	021H
	DB	06H
	DB	021H
	DB	026H
	DB	021H
	DB	026H
	DB	021H
	DB	06H
	DB	021H
	DB	06H
	DB	021H
	DB	026H
	DB	021H
	DB	026H
	DB	021H
	DB	06H
	DB	021H
	DB	026H
	DB	021H
	DB	06H
	DB	021H
	DB	06H
	DB	021H
	DB	026H
	DB	021H
	DB	06H
	DB	019H
	DB	06H
	DB	021H
	DB	06H
	DB	021H
	DB	06H
	DB	021H
	DB	06H
	DB	019H
	DB	06H
	DB	019H
	DB	06H
	DB	021H
	DB	026H
	DB	021H
	DB	06H
	DB	021H
	DB	026H
	DB	021H
	DB	06H
	DB	019H
	DB	06H
	DB	021H
	DB	06H
	DB	021H
	DB	06H
	DB	019H
	DB	06H
	DB	021H
	DB	06H
	DB	021H
	DB	06H
	DB	021H
	DB	026H
	DB	021H
	DB	06H
	DB	021H
	DB	05H
	DB	019H
	DB	026H
	DB	021H
	DB	026H
	DB	021H
	DB	026H
	DB	021H
	DB	06H
	DB	021H
	DB	026H
	DB	021H
	DB	026H
	DB	021H
	DB	026H
	DB	021H
	DB	026H
	DB	021H
	DB	06H
	DB	021H
	DB	026H
	DB	021H
	DB	026H
	DB	021H
	DB	026H
	DB	021H
	DB	06H
	DB	021H
	DB	06H
	DB	021H
	DB	026H
	DB	021H
	DB	06H
	DB	019H
	DB	06H
	DB	021H
	DB	026H
	DB	021H
	DB	026H
	DB	021H
	DB	06H
	DB	021H
	DB	026H
	DB	021H
	DB	026H
	DB	021H
	DB	06H
	DB	021H
	DB	06H
	DB	019H
	DB	026H
	DB	021H
	DB	026H
	DB	021H
	DB	026H
	DB	021H
	DB	06H
	DB	021H
	DB	06H
	DB	021H
	DB	026H
	DB	021H
	DB	026H
	DB	021H
	DB	06H
	DB	021H
	DB	06H
	DB	021H
	DB	026H
	DB	021H
	DB	026H
	DB	021H
	DB	06H
	DB	021H
	DB	06H
	DB	021H
	DB	026H
	DB	021H
	DB	06H
	DB	021H
	DB	06H
	DB	021H
	DB	026H
	DB	021H
	DB	027H
	DB	021H
	DB	026H
	DB	021H
	DB	026H
	DB	021H
	DB	026H
	DB	021H
	DB	026H
	DB	021H
	DB	026H
	DB	021H
	DB	06H
	DB	021H
	DB	026H
	DB	021H
	DB	026H
	DB	021H
	DB	06H
	DB	021H
	DB	026H
	DB	021H
	DB	06H
	DB	019H
	DB	026H
	DB	021H
	DB	06H
	DB	021H
	DB	06H
	DB	021H
	DB	06H
	DB	021H
	DB	026H
	DB	021H
	DB	026H
	DB	021H
	DB	026H
	DB	021H
	DB	026H
	DB	021H
	DB	026H
	DB	021H
	DB	026H
	DB	021H
	DB	06H
	DB	019H
	DB	06H
	DB	021H
	DB	026H
	DB	021H
	DB	026H
	DB	021H
	DB	026H
	DB	021H
	DB	026H
	DB	021H
	DB	06H
	DB	021H
	DB	026H
	DB	021H
	DB	06H
	DB	021H
	DB	06H
	DB	021H
	DB	06H
	DB	021H
	DB	026H
	DB	021H
	DB	06H
	DB	021H
	DB	026H
	DB	021H
	DB	026H
	DB	021H
	DB	026H
	DB	021H
	DB	026H
	DB	021H
	DB	06H
	DB	021H
	DB	06H
	DB	019H
	DB	026H
	DB	021H
	DB	026H
	DB	021H
	DB	06H
	DB	021H
	DB	026H
	DB	021H
	DB	026H
	DB	021H
	DB	06H
	DB	021H
	DB	06H
	DB	021H
	DB	06H
	DB	021H
	DB	06H
	DB	019H
	DB	06H
	DB	021H
	DB	026H
	DB	021H
	DB	06H
	DB	021H
	DB	06H
	DB	019H
	DB	026H
	DB	021H
	DB	06H
	DB	021H
	DB	06H
	DB	021H
	DB	06H
	DB	021H
	DB	026H
	DB	021H
	DB	06H
	DB	021H
	DB	06H
	DB	021H
	DB	026H
	DB	021H
	DB	06H
	DB	019H
	DB	06H
	DB	021H
	DB	026H
	DB	021H
	DB	026H
	DB	021H
	DB	026H
	DB	021H
	DB	026H
	DB	021H
	DB	026H
	DB	021H
	DB	06H
	DB	021H
	DB	06H
	DB	021H
	DB	026H
	DB	021H
	DB	06H
	DB	021H
	DB	027H
	DB	021H
	DB	026H
	DB	021H
	DB	026H
	DB	021H
	DB	026H
	DB	021H
	DB	06H
	DB	021H
	DB	026H
	DB	021H
	DB	026H
	DB	021H
	DB	06H
	DB	021H
	DB	06H
	DB	019H
	DB	06H
	DB	019H
	DB	06H
	DB	021H
	DB	026H
	DB	021H
	DB	026H
	DB	021H
	DB	026H
	DB	021H
	DB	026H
	DB	021H
	DB	026H
	DB	021H
	DB	06H
	DB	021H
	DB	06H
	DB	021H
	DB	026H
	DB	021H
	DB	06H
	DB	021H
	DB	06H
	DB	021H
	DB	026H
	DB	021H
	DB	026H
	DB	021H
	DB	026H
	DB	021H
	DB	026H
	DB	021H
	DB	026H
	DB	021H
	DB	026H
	DB	021H
	DB	06H
	DB	021H
	DB	06H
	DB	021H
	DB	026H
	DB	021H
	DB	06H
	DB	021H
	DB	026H
	DB	021H
	DB	026H
	DB	021H
	DB	06H
	DB	021H
	DB	026H
	DB	021H
	DB	026H
	DB	021H
	DB	026H
	DB	021H
	DB	06H
	DB	021H
	DB	06H
	DB	021H
	DB	06H
	DB	019H
	DB	026H
	DB	021H
	DB	026H
	DB	021H
	DB	06H
	DB	021H
	DB	026H
	DB	021H
	DB	026H
	DB	021H
	DB	06H
	DB	021H
	DB	06H
	DB	019H
	DB	026H
	DB	021H
	DB	06H
	DB	021H
	DB	06H
	DB	021H
	DB	026H
	DB	021H
	DB	026H
	DB	021H
	DB	06H
	DB	021H
	DB	026H
	DB	021H
	DB	026H
	DB	021H
	DB	06H
	DB	019H
	DB	06H
	DB	021H
	DB	026H
	DB	021H
	DB	06H
	DB	021H
	DB	026H
	DB	021H
	DB	026H
	DB	021H
	DB	026H
	DB	021H
	DB	06H
	DB	021H
	DB	06H
	DB	021H
	DB	06H
	DB	021H
	DB	06H
	DB	019H
	DB	06H
	DB	021H
	DB	026H
	DB	021H
	DB	026H
	DB	021H
	DB	06H
	DB	021H
	DB	06H
	DB	021H
	DB	06H
	DB	021H
	DB	06H
	DB	021H
	DB	06H
	DB	021H
	DB	026H
	DB	021H
	DB	026H
	DB	021H
	DB	026H
	DB	021H
	DB	026H
	DB	021H
	DB	026H
	DB	021H
	DB	06H
	DB	021H
	DB	06H
	DB	021H
	DB	026H
	DB	021H
	DB	026H
	DB	021H
	DB	06H
	DB	021H
	DB	06H
	DB	021H
	DB	026H
	DB	021H
	DB	026H
	DB	021H
	DB	026H
	DB	021H
	DB	06H
	DB	021H
	DB	06H
	DB	021H
	DB	06H
	DB	019H
	DB	06H
	DB	019H
	DB	06H
	DB	021H
	DB	026H
	DB	021H
	DB	06H
	DB	021H
	DB	047H
	DB	021H
	DB	026H
	DB	021H
	DB	026H
	DB	021H
	DB	06H
	DB	021H
	DB	026H
	DB	021H
	DB	06H
	DB	021H
	DB	026H
	DB	021H
	DB	06H
	DB	021H
	DB	06H
	DB	021H
	DB	06H
	DB	019H
	DB	026H
	DB	021H
	DB	026H
	DB	021H
	DB	026H
	DB	021H
	DB	06H
	DB	021H
	DB	026H
	DB	021H
	DB	06H
	DB	021H
	DB	026H
	DB	021H
	DB	026H
	DB	021H
	DB	06H
	DB	021H
	DB	06H
	DB	019H
	DB	06H
	DB	019H
	DB	026H
	DB	021H
	DB	06H
	DB	021H
	DB	06H
	DB	021H
	DB	06H
	DB	021H
	DB	026H
	DB	021H
	DB	06H
	DB	019H
	DB	026H
	DB	021H
	DB	06H
	DB	019H
	DB	06H
	DB	019H
	DB	06H
	DB	021H
	DB	026H
	DB	021H
	DB	06H
	DB	019H
	DB	026H
	DB	021H
	DB	026H
	DB	021H
	DB	06H
	DB	021H
	DB	06H
	DB	021H
	DB	06H
	DB	021H
	DB	026H
	DB	021H
	DB	06H
	DB	021H
	DB	026H
	DB	021H
	DB	026H
	DB	021H
	DB	026H
	DB	021H
	DB	06H
	DB	021H
	DB	026H
	DB	021H
	DB	06H
	DB	021H
	DB	05H
	DB	019H
	DB	06H
	DB	021H
	DB	026H
	DB	021H
	DB	026H
	DB	021H
	DB	06H
	DB	021H
	DB	026H
	DB	021H
	DB	06H
	DB	021H
	DB	05H
	DB	019H
	DB	06H
	DB	021H
	DB	026H
	DB	021H
	DB	026H
	DB	021H
	DB	026H
	DB	021H
	DB	026H
	DB	021H
	DB	026H
	DB	021H
	DB	06H
	DB	021H
	DB	06H
	DB	021H
	DB	026H
	DB	021H
	DB	026H
	DB	021H
	DB	06H
	DB	021H
	DB	026H
	DB	021H
	DB	026H
	DB	021H
	DB	026H
	DB	021H
	DB	06H
	DB	021H
	DB	06H
	DB	021H
	DB	06H
	DB	019H
	DB	06H
	DB	021H
	DB	026H
	DB	021H
	DB	06H
	DB	021H
	DB	06H
	DB	021H
	DB	026H
	DB	021H
	DB	026H
	DB	021H
	DB	026H
	DB	021H
	DB	06H
	DB	019H
	DB	026H
	DB	021H
	DB	06H
	DB	019H
	DB	06H
	DB	021H
	DB	026H
	DB	021H
	DB	026H
	DB	021H
	DB	026H
	DB	021H
	DB	026H
	DB	021H
	DB	06H
	DB	021H
	DB	06H
	DB	021H
	DB	026H
	DB	021H
	DB	06H
	DB	021H
	DB	026H
	DB	021H
	DB	026H
	DB	021H
	DB	0e5H
	DB	018H
	DB	06H
	DB	021H
	DB	026H
	DB	021H
	DB	026H
	DB	021H
	DB	06H
	DB	021H
	DB	06H
	DB	021H
	DB	026H
	DB	021H
	DB	06H
	DB	019H
	DB	026H
	DB	021H
	DB	06H
	DB	021H
	DB	026H
	DB	021H
	DB	026H
	DB	021H
	DB	06H
	DB	021H
	DB	026H
	DB	021H
	DB	026H
	DB	021H
	DB	06H
	DB	021H
	DB	026H
	DB	021H
	DB	026H
	DB	021H
	DB	026H
	DB	021H
	DB	06H
	DB	021H
	DB	06H
	DB	021H
	DB	026H
	DB	021H
	DB	026H
	DB	021H
	DB	06H
	DB	021H
	DB	026H
	DB	021H
	DB	026H
	DB	021H
	DB	026H
	DB	021H
	DB	026H
	DB	021H
	DB	06H
	DB	021H
	DB	026H
	DB	021H
	DB	026H
	DB	021H
	DB	06H
	DB	021H
	DB	06H
	DB	021H
	DB	06H
	DB	021H
	DB	06H
	DB	021H
	DB	026H
	DB	021H
	DB	06H
	DB	021H
	DB	06H
	DB	019H
	DB	0e5H
	DB	018H
	DB	06H
	DB	021H
	DB	06H
	DB	021H
	DB	026H
	DB	021H
	DB	06H
	DB	021H
	DB	06H
	DB	021H
	DB	06H
	DB	021H
	DB	06H
	DB	019H
	DB	026H
	DB	021H
	DB	06H
	DB	021H
	DB	05H
	DB	019H
	DB	026H
	DB	021H
	DB	026H
	DB	021H
	DB	06H
	DB	019H
	DB	06H
	DB	021H
	DB	06H
	DB	021H
	DB	06H
	DB	021H
	DB	026H
	DB	021H
	DB	06H
	DB	021H
	DB	026H
	DB	021H
	DB	026H
	DB	021H
	DB	026H
	DB	021H
	DB	026H
	DB	021H
	DB	026H
	DB	021H
	DB	026H
	DB	021H
	DB	06H
	DB	021H
	DB	06H
	DB	021H
	DB	06H
	DB	021H
	DB	06H
	DB	021H
	DB	06H
	DB	019H
	DB	026H
	DB	021H
	DB	026H
	DB	021H
	DB	05H
	DB	019H
	DB	06H
	DB	019H
	DB	06H
	DB	021H
	DB	06H
	DB	019H
	DB	06H
	DB	019H
	DB	06H
	DB	021H
	DB	06H
	DB	021H
	DB	026H
	DB	021H
	DB	026H
	DB	021H
	DB	06H
	DB	021H
	DB	06H
	DB	021H
	DB	06H
	DB	021H
	DB	06H
	DB	021H
	DB	06H
	DB	021H
	DB	026H
	DB	021H
	DB	026H
	DB	021H
	DB	026H
	DB	021H
	DB	06H
	DB	021H
	DB	06H
	DB	021H
	DB	06H
	DB	021H
	DB	06H
	DB	021H
	DB	06H
	DB	021H
	DB	06H
	DB	019H
	DB	05H
	DB	021H
	DB	06H
	DB	021H
	DB	06H
	DB	021H
	DB	026H
	DB	021H
	DB	026H
	DB	021H
	DB	06H
	DB	021H
	DB	06H
	DB	021H
	DB	06H
	DB	021H
	DB	026H
	DB	021H
	DB	026H
	DB	021H
	DB	06H
	DB	019H
	DB	026H
	DB	021H
	DB	026H
	DB	021H
	DB	026H
	DB	021H
	DB	06H
	DB	021H
	DB	026H
	DB	021H
	DB	06H
	DB	021H
	DB	026H
	DB	021H
	DB	026H
	DB	021H
	DB	06H
	DB	021H
	DB	05H
	DB	019H
	DB	026H
	DB	021H
	DB	026H
	DB	021H
	DB	06H
	DB	021H
	DB	026H
	DB	021H
	DB	026H
	DB	021H
	DB	026H
	DB	021H
	DB	026H
	DB	021H
	DB	026H
	DB	021H
	DB	026H
	DB	021H
	DB	026H
	DB	021H
	DB	026H
	DB	021H
	DB	026H
	DB	021H
	DB	026H
	DB	021H
	DB	06H
	DB	021H
	DB	026H
	DB	021H
	DB	026H
	DB	021H
	DB	06H
	DB	021H
	DB	026H
	DB	021H
	DB	06H
	DB	021H
	DB	06H
	DB	021H
	DB	06H
	DB	021H
	DB	026H
	DB	021H
	DB	026H
	DB	021H
	DB	06H
	DB	021H
	DB	026H
	DB	021H
	DB	06H
	DB	019H
	DB	026H
	DB	021H
	DB	026H
	DB	021H
	DB	06H
	DB	021H
	DB	026H
	DB	021H
	DB	06H
	DB	021H
	DB	026H
	DB	021H
	DB	026H
	DB	021H
	DB	06H
	DB	021H
	DB	06H
	DB	021H
	DB	06H
	DB	019H
	DB	026H
	DB	021H
	DB	026H
	DB	021H
	DB	06H
	DB	021H
	DB	026H
	DB	021H
	DB	026H
	DB	021H
	DB	026H
	DB	021H
	DB	06H
	DB	021H
	DB	026H
	DB	021H
	DB	026H
	DB	021H
	DB	06H
	DB	021H
	DB	06H
	DB	021H
	DB	026H
	DB	021H
	DB	026H
	DB	021H
	DB	06H
	DB	021H
	DB	06H
	DB	021H
	DB	026H
	DB	021H
	DB	06H
	DB	019H
	DB	06H
	DB	019H
	DB	026H
	DB	021H
	DB	06H
	DB	021H
	DB	026H
	DB	021H
	DB	026H
	DB	021H
	DB	06H
	DB	021H
	DB	026H
	DB	021H
	DB	026H
	DB	021H
	DB	06H
	DB	019H
	DB	026H
	DB	021H
	DB	026H
	DB	021H
	DB	026H
	DB	021H
	DB	026H
	DB	021H
	DB	06H
	DB	021H
	DB	06H
	DB	021H
	DB	026H
	DB	021H
	DB	06H
	DB	019H
	DB	026H
	DB	021H
	DB	026H
	DB	021H
	DB	026H
	DB	021H
	DB	06H
	DB	021H
	DB	06H
	DB	019H
	DB	06H
	DB	021H
	DB	026H
	DB	021H
	DB	026H
	DB	021H
	DB	06H
	DB	021H
	DB	06H
	DB	021H
	DB	06H
	DB	021H
	DB	05H
	DB	019H
	DB	06H
	DB	019H
	DB	026H
	DB	021H
	DB	06H
	DB	021H
	DB	026H
	DB	021H
	DB	06H
	DB	021H
	DB	06H
	DB	021H
	DB	06H
	DB	021H
	DB	06H
	DB	021H
	DB	06H
	DB	021H
	DB	06H
	DB	019H
	DB	06H
	DB	021H
	DB	026H
	DB	021H
	DB	026H
	DB	021H
	DB	026H
	DB	021H
	DB	06H
	DB	021H
	DB	06H
	DB	021H
	DB	06H
	DB	021H
	DB	026H
	DB	021H
	DB	026H
	DB	021H
	DB	06H
	DB	019H
	DB	06H
	DB	021H
	DB	06H
	DB	021H
	DB	026H
	DB	021H
	DB	026H
	DB	021H
	DB	06H
	DB	021H
	DB	027H
	DB	021H
	DB	026H
	DB	021H
	DB	06H
	DB	021H
	DB	026H
	DB	021H
	DB	06H
	DB	021H
	DB	05H
	DB	019H
	DB	026H
	DB	021H
	DB	026H
	DB	021H
	DB	026H
	DB	021H
	DB	026H
	DB	021H
	DB	026H
	DB	021H
	DB	06H
	DB	021H
	DB	06H
	DB	021H
	DB	026H
	DB	021H
	DB	06H
	DB	021H
	DB	06H
	DB	019H
	DB	06H
	DB	021H
	DB	06H
	DB	021H
	DB	06H
	DB	019H
	DB	06H
	DB	021H
	DB	06H
	DB	021H
	DB	026H
	DB	021H
	DB	026H
	DB	021H
	DB	06H
	DB	021H
	DB	026H
	DB	021H
	DB	06H
	DB	021H
	DB	06H
	DB	021H
	DB	06H
	DB	021H
	DB	046H
	DB	021H
	DB	026H
	DB	021H
	DB	026H
	DB	021H
	DB	026H
	DB	021H
	DB	026H
	DB	021H
	DB	06H
	DB	021H
	DB	06H
	DB	019H
	DB	026H
	DB	021H
	DB	027H
	DB	021H
	DB	06H
	DB	021H
	DB	06H
	DB	021H
	DB	027H
	DB	021H
	DB	027H
	DB	021H
	DB	026H
	DB	021H
	DB	06H
	DB	021H
	DB	06H
	DB	021H
	DB	06H
	DB	021H
	DB	06H
	DB	021H
	DB	026H
	DB	021H
	DB	06H
	DB	021H
	DB	06H
	DB	021H
	DB	06H
	DB	019H
	DB	06H
	DB	021H
	DB	026H
	DB	021H
	DB	06H
	DB	021H
	DB	06H
	DB	021H
	DB	026H
	DB	021H
	DB	026H
	DB	021H
	DB	06H
	DB	019H
	DB	06H
	DB	021H
	DB	06H
	DB	019H
	DB	026H
	DB	021H
	DB	06H
	DB	021H
	DB	05H
	DB	019H
	DB	06H
	DB	021H
	DB	026H
	DB	021H
	DB	026H
	DB	021H
	DB	026H
	DB	021H
	DB	027H
	DB	021H
	DB	026H
	DB	021H
	DB	026H
	DB	021H
	DB	026H
	DB	021H
	DB	026H
	DB	021H
	DB	026H
	DB	021H
	DB	06H
	DB	019H
	DB	06H
	DB	021H
	DB	06H
	DB	021H
	DB	06H
	DB	019H
	DB	026H
	DB	021H
	DB	06H
	DB	021H
	DB	06H
	DB	021H
	DB	06H
	DB	021H
	DB	026H
	DB	021H
	DB	026H
	DB	021H
	DB	026H
	DB	021H
	DB	06H
	DB	021H
	DB	06H
	DB	019H
	DB	026H
	DB	021H
	DB	026H
	DB	021H
	DB	026H
	DB	021H
	DB	06H
	DB	021H
	DB	026H
	DB	021H
	DB	026H
	DB	021H
	DB	06H
	DB	021H
	DB	06H
	DB	019H
	DB	026H
	DB	021H
	DB	026H
	DB	021H
	DB	026H
	DB	021H
	DB	026H
	DB	021H
	DB	026H
	DB	021H
	DB	026H
	DB	021H
	DB	026H
	DB	021H
	DB	026H
	DB	021H
	DB	026H
	DB	021H
	DB	06H
	DB	021H
	DB	06H
	DB	021H
	DB	026H
	DB	021H
	DB	026H
	DB	021H
	DB	026H
	DB	021H
	DB	06H
	DB	021H
	DB	06H
	DB	021H
	DB	06H
	DB	019H
	DB	06H
	DB	019H
	DB	06H
	DB	021H
	DB	026H
	DB	021H
	DB	026H
	DB	021H
	DB	026H
	DB	021H
	DB	026H
	DB	021H
	DB	026H
	DB	021H
	DB	026H
	DB	021H
	DB	026H
	DB	021H
	DB	026H
	DB	021H
	DB	026H
	DB	021H
	DB	026H
	DB	021H
	DB	026H
	DB	021H
	DB	06H
	DB	021H
	DB	026H
	DB	021H
	DB	026H
	DB	021H
	DB	026H
	DB	021H
	DB	06H
	DB	021H
	DB	026H
	DB	021H
	DB	026H
	DB	021H
	DB	026H
	DB	021H
	DB	026H
	DB	021H
	DB	026H
	DB	021H
	DB	06H
	DB	021H
	DB	026H
	DB	021H
	DB	026H
	DB	021H
	DB	026H
	DB	021H
	DB	06H
	DB	021H
	DB	026H
	DB	021H
	DB	06H
	DB	021H
	DB	06H
	DB	019H
	DB	06H
	DB	021H
	DB	026H
	DB	021H
	DB	06H
	DB	021H
	DB	06H
	DB	019H
	DB	026H
	DB	021H
	DB	026H
	DB	021H
	DB	06H
	DB	021H
	DB	06H
	DB	021H
	DB	06H
	DB	021H
	DB	026H
	DB	021H
	DB	026H
	DB	021H
	DB	06H
	DB	021H
	DB	06H
	DB	021H
	DB	06H
	DB	021H
	DB	06H
	DB	021H
	DB	026H
	DB	021H
	DB	026H
	DB	021H
	DB	026H
	DB	021H
	DB	06H
	DB	021H
	DB	026H
	DB	021H
	DB	026H
	DB	021H
	DB	06H
	DB	021H
	DB	06H
	DB	021H
	DB	026H
	DB	021H
	DB	026H
	DB	021H
	DB	06H
	DB	021H
	DB	06H
	DB	021H
	DB	026H
	DB	021H
	DB	026H
	DB	021H
	DB	026H
	DB	021H
	DB	026H
	DB	021H
	DB	06H
	DB	021H
	DB	026H
	DB	021H
	DB	026H
	DB	021H
	DB	026H
	DB	021H
	DB	026H
	DB	021H
	DB	026H
	DB	021H
	DB	06H
	DB	021H
	DB	026H
	DB	021H
	DB	026H
	DB	021H
	DB	06H
	DB	021H
	DB	06H
	DB	021H
	DB	06H
	DB	021H
	DB	026H
	DB	021H
	DB	026H
	DB	021H
	DB	06H
	DB	021H
	DB	026H
	DB	021H
	DB	05H
	DB	021H
	DB	06H
	DB	021H
	DB	06H
	DB	021H
	DB	06H
	DB	021H
	DB	026H
	DB	021H
	DB	06H
	DB	021H
	DB	06H
	DB	021H
	DB	026H
	DB	021H
	DB	06H
	DB	021H
	DB	026H
	DB	021H
	DB	06H
	DB	021H
	DB	026H
	DB	021H
	DB	026H
	DB	021H
	DB	027H
	DB	021H
	DB	026H
	DB	021H
	DB	06H
	DB	021H
	DB	026H
	DB	021H
	DB	026H
	DB	021H
	DB	026H
	DB	021H
	DB	026H
	DB	021H
	DB	06H
	DB	021H
	DB	05H
	DB	019H
	DB	06H
	DB	021H
	DB	06H
	DB	021H
	DB	06H
	DB	019H
	DB	026H
	DB	021H
	DB	026H
	DB	021H
	DB	06H
	DB	021H
	DB	06H
	DB	019H
	DB	06H
	DB	019H
	DB	06H
	DB	021H
	DB	05H
	DB	019H
	DB	06H
	DB	021H
	DB	026H
	DB	021H
	DB	06H
	DB	021H
	DB	026H
	DB	021H
	DB	06H
	DB	021H
	DB	026H
	DB	021H
	DB	026H
	DB	021H
	DB	026H
	DB	021H
	DB	026H
	DB	021H
	DB	06H
	DB	021H
	DB	026H
	DB	021H
	DB	06H
	DB	021H
	DB	06H
	DB	021H
	DB	026H
	DB	021H
	DB	026H
	DB	021H
	DB	026H
	DB	021H
	DB	026H
	DB	021H
	DB	026H
	DB	021H
	DB	06H
	DB	021H
	DB	06H
	DB	019H
	DB	06H
	DB	021H
	DB	06H
	DB	021H
	DB	026H
	DB	021H
	DB	06H
	DB	021H
	DB	026H
	DB	021H
	DB	06H
	DB	021H
	DB	026H
	DB	021H
	DB	026H
	DB	021H
	DB	06H
	DB	021H
	DB	026H
	DB	021H
	DB	026H
	DB	021H
	DB	06H
	DB	021H
	DB	06H
	DB	019H
	DB	06H
	DB	021H
	DB	026H
	DB	021H
	DB	026H
	DB	021H
	DB	06H
	DB	019H
	DB	06H
	DB	021H
	DB	026H
	DB	021H
	DB	026H
	DB	021H
	DB	06H
	DB	021H
	DB	06H
	DB	021H
	DB	06H
	DB	021H
	DB	06H
	DB	019H
	DB	06H
	DB	019H
	DB	026H
	DB	021H
	DB	026H
	DB	021H
	DB	026H
	DB	021H
	DB	06H
	DB	021H
	DB	026H
	DB	021H
	DB	026H
	DB	021H
	DB	026H
	DB	021H
	DB	06H
	DB	021H
	DB	026H
	DB	021H
	DB	06H
	DB	021H
	DB	06H
	DB	021H
	DB	026H
	DB	021H
	DB	06H
	DB	021H
	DB	026H
	DB	021H
	DB	026H
	DB	021H
	DB	06H
	DB	021H
	DB	06H
	DB	019H
	DB	026H
	DB	021H
	DB	06H
	DB	019H
	DB	06H
	DB	021H
	DB	06H
	DB	021H
	DB	026H
	DB	021H
	DB	06H
	DB	019H
	DB	06H
	DB	021H
	DB	026H
	DB	021H
	DB	06H
	DB	019H
	DB	06H
	DB	021H
	DB	06H
	DB	021H
	DB	026H
	DB	021H
	DB	06H
	DB	021H
	DB	06H
	DB	021H
	DB	06H
	DB	021H
	DB	06H
	DB	021H
	DB	026H
	DB	021H
	DB	06H
	DB	021H
	DB	026H
	DB	021H
	DB	026H
	DB	021H
	DB	06H
	DB	019H
	DB	06H
	DB	021H
	DB	026H
	DB	021H
	DB	026H
	DB	021H
	DB	026H
	DB	021H
	DB	026H
	DB	021H
	DB	06H
	DB	021H
	DB	026H
	DB	021H
	DB	06H
	DB	019H
	DB	026H
	DB	021H
	DB	06H
	DB	021H
	DB	06H
	DB	019H
	DB	06H
	DB	021H
	DB	026H
	DB	021H
	DB	026H
	DB	021H
	DB	06H
	DB	019H
	DB	026H
	DB	021H
	DB	06H
	DB	021H
	DB	026H
	DB	021H
	DB	026H
	DB	021H
	DB	06H
	DB	021H
	DB	026H
	DB	021H
	DB	06H
	DB	021H
	DB	05H
	DB	019H
	DB	06H
	DB	021H
	DB	026H
	DB	021H
	DB	06H
	DB	021H
	DB	026H
	DB	021H
	DB	06H
	DB	021H
	DB	06H
	DB	021H
	DB	026H
	DB	021H
	DB	06H
	DB	021H
	DB	0e5H
	DB	018H
	DB	06H
	DB	021H
	DB	026H
	DB	021H
	DB	06H
	DB	021H
	DB	026H
	DB	021H
	DB	026H
	DB	021H
	DB	06H
	DB	019H
	DB	06H
	DB	019H
	DB	026H
	DB	021H
	DB	046H
	DB	021H
	DB	026H
	DB	021H
	DB	06H
	DB	021H
	DB	026H
	DB	021H
	DB	06H
	DB	021H
	DB	06H
	DB	019H
	DB	026H
	DB	021H
	DB	026H
	DB	021H
	DB	06H
	DB	021H
	DB	06H
	DB	021H
	DB	026H
	DB	021H
	DB	026H
	DB	021H
	DB	026H
	DB	021H
	DB	026H
	DB	021H
	DB	0e5H
	DB	018H
	DB	06H
	DB	019H
	DB	06H
	DB	021H
	DB	06H
	DB	021H
	DB	06H
	DB	019H
	DB	06H
	DB	021H
	DB	06H
	DB	021H
	DB	06H
	DB	021H
	DB	06H
	DB	021H
	DB	026H
	DB	021H
	DB	026H
	DB	021H
	DB	06H
	DB	021H
	DB	026H
	DB	021H
	DB	026H
	DB	021H
	DB	026H
	DB	021H
	DB	06H
	DB	021H
	DB	06H
	DB	021H
	DB	06H
	DB	021H
	DB	026H
	DB	021H
	DB	026H
	DB	021H
	DB	026H
	DB	021H
	DB	026H
	DB	021H
	DB	026H
	DB	021H
	DB	027H
	DB	021H
	DB	026H
	DB	021H
	DB	026H
	DB	021H
	DB	06H
	DB	021H
	DB	026H
	DB	021H
	DB	027H
	DB	021H
	DB	026H
	DB	021H
	DB	026H
	DB	021H
	DB	06H
	DB	021H
	DB	06H
	DB	021H
	DB	026H
	DB	021H
	DB	026H
	DB	021H
	DB	026H
	DB	021H
	DB	06H
	DB	021H
	DB	06H
	DB	019H
	DB	06H
	DB	019H
	DB	05H
	DB	019H
	DB	026H
	DB	021H
	DB	026H
	DB	021H
	DB	06H
	DB	021H
	DB	026H
	DB	021H
	DB	026H
	DB	021H
	DB	06H
	DB	021H
	DB	06H
	DB	021H
	DB	026H
	DB	021H
	DB	026H
	DB	021H
	DB	06H
	DB	021H
	DB	026H
	DB	021H
	DB	06H
	DB	019H
	DB	026H
	DB	021H
	DB	06H
	DB	021H
	DB	06H
	DB	021H
	DB	06H
	DB	019H
	DB	026H
	DB	021H
	DB	026H
	DB	021H
	DB	027H
	DB	021H
	DB	026H
	DB	021H
	DB	06H
	DB	019H
	DB	026H
	DB	021H
	DB	026H
	DB	021H
	DB	06H
	DB	021H
	DB	05H
	DB	019H
	DB	026H
	DB	021H
	DB	06H
	DB	021H
	DB	026H
	DB	021H
	DB	026H
	DB	021H
	DB	06H
	DB	021H
	DB	06H
	DB	021H
	DB	026H
	DB	021H
	DB	026H
	DB	021H
	DB	026H
	DB	021H
	DB	026H
	DB	021H
	DB	046H
	DB	021H
	DB	026H
	DB	021H
	DB	026H
	DB	021H
	DB	06H
	DB	021H
	DB	06H
	DB	021H
	DB	06H
	DB	021H
	DB	026H
	DB	021H
	DB	06H
	DB	021H
	DB	026H
	DB	021H
	DB	026H
	DB	021H
	DB	026H
	DB	021H
	DB	026H
	DB	021H
	DB	026H
	DB	021H
	DB	026H
	DB	021H
	DB	026H
	DB	021H
	DB	026H
	DB	021H
	DB	06H
	DB	021H
	DB	06H
	DB	019H
	DB	06H
	DB	021H
	DB	026H
	DB	021H
	DB	06H
	DB	019H
	DB	06H
	DB	021H
	DB	06H
	DB	021H
	DB	026H
	DB	021H
	DB	026H
	DB	021H
	DB	06H
	DB	021H
	DB	06H
	DB	021H
	DB	026H
	DB	021H
	DB	026H
	DB	021H
	DB	026H
	DB	021H
	DB	06H
	DB	019H
	DB	06H
	DB	021H
	DB	026H
	DB	021H
	DB	06H
	DB	019H
	DB	06H
	DB	021H
	DB	06H
	DB	021H
	DB	06H
	DB	019H
	DB	026H
	DB	021H
	DB	06H
	DB	019H
	DB	06H
	DB	021H
	DB	026H
	DB	021H
	DB	026H
	DB	021H
	DB	026H
	DB	021H
	DB	026H
	DB	021H
	DB	06H
	DB	019H
	DB	026H
	DB	021H
	DB	06H
	DB	021H
	DB	06H
	DB	019H
	DB	026H
	DB	021H
	DB	06H
	DB	021H
	DB	026H
	DB	021H
	DB	026H
	DB	021H
	DB	06H
	DB	021H
	DB	06H
	DB	021H
	DB	026H
	DB	021H
	DB	026H
	DB	021H
	DB	06H
	DB	021H
	DB	06H
	DB	021H
	DB	06H
	DB	021H
	DB	026H
	DB	021H
	DB	026H
	DB	021H
	DB	06H
	DB	021H
	DB	06H
	DB	019H
	DB	026H
	DB	021H
	DB	06H
	DB	021H
	DB	06H
	DB	021H
	DB	06H
	DB	021H
	DB	06H
	DB	021H
	DB	026H
	DB	021H
	DB	06H
	DB	019H
	DB	05H
	DB	019H
	DB	06H
	DB	021H
	DB	026H
	DB	021H
	DB	06H
	DB	021H
	DB	026H
	DB	021H
	DB	06H
	DB	019H
	DB	06H
	DB	021H
	DB	06H
	DB	021H
	DB	06H
	DB	021H
	DB	06H
	DB	021H
	DB	026H
	DB	021H
	DB	026H
	DB	021H
	DB	026H
	DB	021H
	DB	026H
	DB	021H
	DB	027H
	DB	021H
	DB	06H
	DB	021H
	DB	06H
	DB	021H
	DB	026H
	DB	021H
	DB	026H
	DB	021H
	DB	06H
	DB	021H
	DB	06H
	DB	019H
	DB	06H
	DB	021H
	DB	06H
	DB	019H
	DB	06H
	DB	019H
	DB	026H
	DB	021H
	DB	06H
	DB	021H
	DB	06H
	DB	019H
	DB	05H
	DB	019H
	DB	06H
	DB	021H
	DB	026H
	DB	021H
	DB	06H
	DB	019H
	DB	026H
	DB	021H
	DB	06H
	DB	021H
	DB	026H
	DB	021H
	DB	026H
	DB	021H
	DB	026H
	DB	021H
	DB	026H
	DB	021H
	DB	026H
	DB	021H
	DB	06H
	DB	021H
	DB	06H
	DB	019H
	DB	06H
	DB	021H
	DB	06H
	DB	021H
	DB	06H
	DB	021H
	DB	06H
	DB	019H
	DB	06H
	DB	021H
	DB	06H
	DB	021H
	DB	06H
	DB	019H
	DB	06H
	DB	021H
	DB	06H
	DB	021H
	DB	026H
	DB	021H
	DB	026H
	DB	021H
	DB	026H
	DB	021H
	DB	06H
	DB	019H
	DB	06H
	DB	021H
	DB	05H
	DB	019H
	DB	06H
	DB	019H
	DB	06H
	DB	019H
	DB	06H
	DB	021H
	DB	026H
	DB	021H
	DB	026H
	DB	021H
	DB	027H
	DB	021H
	DB	06H
	DB	019H
	DB	026H
	DB	021H
	DB	06H
	DB	021H
	DB	06H
	DB	021H
	DB	06H
	DB	019H
	DB	06H
	DB	019H
	DB	06H
	DB	021H
	DB	026H
	DB	021H
	DB	06H
	DB	021H
	DB	026H
	DB	021H
	DB	026H
	DB	021H
	DB	06H
	DB	021H
	DB	06H
	DB	019H
	DB	026H
	DB	021H
	DB	06H
	DB	019H
	DB	027H
	DB	021H
	DB	026H
	DB	021H
	DB	06H
	DB	021H
	DB	026H
	DB	021H
	DB	06H
	DB	019H
	DB	026H
	DB	021H
	DB	026H
	DB	021H
	DB	027H
	DB	021H
	DB	026H
	DB	021H
	DB	026H
	DB	021H
	DB	026H
	DB	021H
	DB	026H
	DB	021H
	DB	026H
	DB	021H
	DB	06H
	DB	021H
	DB	06H
	DB	021H
	DB	026H
	DB	021H
	DB	06H
	DB	021H
	DB	06H
	DB	021H
	DB	026H
	DB	021H
	DB	026H
	DB	021H
	DB	027H
	DB	021H
	DB	026H
	DB	021H
	DB	026H
	DB	021H
	DB	06H
	DB	019H
	DB	06H
	DB	019H
	DB	026H
	DB	021H
	DB	026H
	DB	021H
	DB	026H
	DB	021H
	DB	06H
	DB	021H
	DB	026H
	DB	021H
	DB	06H
	DB	021H
	DB	026H
	DB	021H
	DB	026H
	DB	021H
	DB	06H
	DB	021H
	DB	06H
	DB	019H
	DB	06H
	DB	019H
	DB	06H
	DB	021H
	DB	06H
	DB	021H
	DB	026H
	DB	021H
	DB	06H
	DB	019H
	DB	05H
	DB	019H
	DB	06H
	DB	021H
	DB	026H
	DB	021H
	DB	026H
	DB	021H
	DB	026H
	DB	021H
	DB	026H
	DB	021H
	DB	06H
	DB	019H
	DB	026H
	DB	021H
	DB	026H
	DB	021H
	DB	026H
	DB	021H
	DB	06H
	DB	021H
	DB	06H
	DB	019H
	DB	026H
	DB	021H
	DB	026H
	DB	021H
	DB	06H
	DB	021H
	DB	06H
	DB	019H
	DB	026H
	DB	021H
	DB	06H
	DB	021H
	DB	06H
	DB	019H
	DB	06H
	DB	019H
	DB	06H
	DB	021H
	DB	026H
	DB	021H
	DB	06H
	DB	019H
	DB	06H
	DB	021H
	DB	026H
	DB	021H
	DB	06H
	DB	021H
	DB	06H
	DB	019H
	DB	06H
	DB	019H
	DB	06H
	DB	019H
	DB	06H
	DB	019H
	DB	06H
	DB	021H
	DB	06H
	DB	021H
	DB	026H
	DB	021H
	DB	026H
	DB	021H
	DB	06H
	DB	021H
	DB	06H
	DB	021H
	DB	026H
	DB	021H
	DB	06H
	DB	021H
	DB	06H
	DB	019H
	DB	06H
	DB	021H
	DB	026H
	DB	021H
	DB	027H
	DB	021H
	DB	026H
	DB	021H
	DB	06H
	DB	019H
	DB	026H
	DB	021H
	DB	027H
	DB	021H
	DB	026H
	DB	021H
	DB	06H
	DB	021H
	DB	06H
	DB	021H
	DB	026H
	DB	021H
	DB	026H
	DB	021H
	DB	026H
	DB	021H
	DB	06H
	DB	019H
	DB	06H
	DB	019H
	DB	026H
	DB	021H
	DB	06H
	DB	019H
	DB	06H
	DB	021H
	DB	06H
	DB	021H
	DB	026H
	DB	021H
	DB	06H
	DB	021H
	DB	06H
	DB	019H
	DB	06H
	DB	021H
	DB	06H
	DB	021H
	DB	06H
	DB	021H
	DB	06H
	DB	021H
	DB	06H
	DB	019H
	DB	06H
	DB	021H
	DB	06H
	DB	019H
	DB	06H
	DB	019H
	DB	06H
	DB	021H
	DB	026H
	DB	021H
	DB	026H
	DB	021H
	DB	026H
	DB	021H
	DB	026H
	DB	021H
	DB	06H
	DB	021H
	DB	06H
	DB	021H
	DB	06H
	DB	021H
	DB	026H
	DB	021H
	DB	026H
	DB	021H
	DB	06H
	DB	021H
	DB	026H
	DB	021H
	DB	06H
	DB	021H
	DB	06H
	DB	021H
	DB	026H
	DB	021H
	DB	026H
	DB	021H
	DB	026H
	DB	021H
	DB	06H
	DB	021H
	DB	06H
	DB	019H
	DB	06H
	DB	019H
	DB	06H
	DB	021H
	DB	06H
	DB	019H
	DB	06H
	DB	021H
	DB	06H
	DB	021H
	DB	026H
	DB	021H
	DB	06H
	DB	019H
	DB	06H
	DB	019H
	DB	06H
	DB	021H
	DB	06H
	DB	021H
	DB	026H
	DB	021H
	DB	026H
	DB	021H
	DB	06H
	DB	021H
	DB	026H
	DB	021H
	DB	05H
	DB	019H
	DB	06H
	DB	021H
	DB	026H
	DB	021H
	DB	06H
	DB	019H
	DB	026H
	DB	021H
	DB	06H
	DB	021H
	DB	026H
	DB	021H
	DB	026H
	DB	021H
	DB	06H
	DB	021H
	DB	06H
	DB	021H
	DB	06H
	DB	021H
	DB	06H
	DB	021H
	DB	06H
	DB	019H
	DB	06H
	DB	019H
	DB	06H
	DB	021H
	DB	05H
	DB	019H
	DB	026H
	DB	021H
	DB	06H
	DB	021H
	DB	06H
	DB	021H
	DB	06H
	DB	021H
	DB	026H
	DB	021H
	DB	026H
	DB	021H
	DB	026H
	DB	021H
	DB	026H
	DB	021H
	DB	026H
	DB	021H
	DB	06H
	DB	021H
	DB	026H
	DB	021H
	DB	026H
	DB	021H
	DB	06H
	DB	021H
	DB	06H
	DB	021H
	DB	026H
	DB	021H
	DB	026H
	DB	021H
	DB	026H
	DB	021H
	DB	026H
	DB	021H
	DB	026H
	DB	021H
	DB	06H
	DB	021H
	DB	026H
	DB	021H
	DB	06H
	DB	021H
	DB	06H
	DB	021H
	DB	06H
	DB	019H
	DB	06H
	DB	019H
	DB	026H
	DB	021H
	DB	026H
	DB	021H
	DB	026H
	DB	021H
	DB	026H
	DB	021H
	DB	06H
	DB	021H
	DB	026H
	DB	021H
	DB	06H
	DB	019H
	DB	06H
	DB	021H
	DB	026H
	DB	021H
	DB	026H
	DB	021H
	DB	06H
	DB	021H
	DB	05H
	DB	019H
	DB	026H
	DB	021H
	DB	06H
	DB	019H
	DB	026H
	DB	021H
	DB	026H
	DB	021H
	DB	026H
	DB	021H
	DB	06H
	DB	019H
	DB	026H
	DB	021H
	DB	026H
	DB	021H
	DB	06H
	DB	021H
	DB	026H
	DB	021H
	DB	026H
	DB	021H
	DB	026H
	DB	021H
	DB	06H
	DB	021H
	DB	026H
	DB	021H
	DB	06H
	DB	021H
	DB	06H
	DB	021H
	DB	06H
	DB	021H
	DB	026H
	DB	021H
	DB	026H
	DB	021H
	DB	06H
	DB	021H
	DB	026H
	DB	021H
	DB	026H
	DB	021H
	DB	06H
	DB	021H
	DB	06H
	DB	021H
	DB	026H
	DB	021H
	DB	06H
	DB	019H
	DB	026H
	DB	021H
	DB	06H
	DB	021H
	DB	026H
	DB	021H
	DB	026H
	DB	021H
	DB	06H
	DB	019H
	DB	06H
	DB	021H
	DB	06H
	DB	021H
	DB	026H
	DB	021H
	DB	026H
	DB	021H
	DB	026H
	DB	021H
	DB	06H
	DB	021H
	DB	06H
	DB	021H
	DB	06H
	DB	019H
	DB	06H
	DB	021H
	DB	026H
	DB	021H
	DB	026H
	DB	021H
	DB	026H
	DB	021H
	DB	06H
	DB	021H
	DB	06H
	DB	021H
	DB	06H
	DB	019H
	DB	06H
	DB	021H
	DB	026H
	DB	021H
	DB	026H
	DB	021H
	DB	06H
	DB	021H
	DB	06H
	DB	021H
	DB	06H
	DB	021H
	DB	026H
	DB	021H
	DB	06H
	DB	021H
	DB	026H
	DB	021H
	DB	06H
	DB	021H
	DB	06H
	DB	021H
	DB	026H
	DB	021H
	DB	026H
	DB	021H
	DB	026H
	DB	021H
	DB	06H
	DB	021H
	DB	026H
	DB	021H
	DB	026H
	DB	021H
	DB	06H
	DB	021H
	DB	026H
	DB	021H
	DB	026H
	DB	021H
	DB	06H
	DB	021H
	DB	06H
	DB	021H
	DB	026H
	DB	021H
	DB	06H
	DB	021H
	DB	026H
	DB	021H
	DB	026H
	DB	021H
	DB	026H
	DB	021H
	DB	06H
	DB	021H
	DB	06H
	DB	021H
	DB	026H
	DB	021H
	DB	06H
	DB	021H
	DB	06H
	DB	021H
	DB	06H
	DB	021H
	DB	026H
	DB	021H
	DB	026H
	DB	021H
	DB	026H
	DB	021H
	DB	06H
	DB	021H
	DB	06H
	DB	019H
	DB	026H
	DB	021H
	DB	026H
	DB	021H
	DB	06H
	DB	021H
	DB	026H
	DB	021H
	DB	06H
	DB	019H
	DB	06H
	DB	021H
	DB	026H
	DB	021H
	DB	026H
	DB	021H
	DB	026H
	DB	021H
	DB	06H
	DB	021H
	DB	027H
	DB	021H
	DB	06H
	DB	021H
	DB	06H
	DB	019H
	DB	06H
	DB	019H
	DB	06H
	DB	021H
	DB	026H
	DB	021H
	DB	026H
	DB	021H
	DB	026H
	DB	021H
	DB	026H
	DB	021H
	DB	026H
	DB	021H
	DB	06H
	DB	021H
	DB	026H
	DB	021H
	DB	026H
	DB	021H
	DB	06H
	DB	021H
	DB	06H
	DB	021H
	DB	06H
	DB	019H
	DB	06H
	DB	019H
	DB	06H
	DB	021H
	DB	026H
	DB	021H
	DB	026H
	DB	021H
	DB	026H
	DB	021H
	DB	026H
	DB	021H
	DB	06H
	DB	021H
	DB	06H
	DB	021H
	DB	026H
	DB	021H
	DB	06H
	DB	019H
	DB	026H
	DB	021H
	DB	06H
	DB	021H
	DB	06H
	DB	019H
	DB	026H
	DB	021H
	DB	06H
	DB	021H
	DB	026H
	DB	021H
	DB	026H
	DB	021H
	DB	026H
	DB	021H
	DB	06H
	DB	021H
	DB	026H
	DB	021H
	DB	026H
	DB	021H
	DB	026H
	DB	021H
	DB	026H
	DB	021H
	DB	026H
	DB	021H
	DB	06H
	DB	021H
	DB	026H
	DB	021H
	DB	026H
	DB	021H
	DB	06H
	DB	021H
	DB	026H
	DB	021H
	DB	06H
	DB	021H
	DB	026H
	DB	021H
	DB	026H
	DB	021H
	DB	026H
	DB	021H
	DB	026H
	DB	021H
	DB	027H
	DB	021H
	DB	026H
	DB	021H
	DB	047H
	DB	021H
	DB	027H
	DB	021H
	DB	026H
	DB	021H
	DB	06H
	DB	021H
	DB	06H
	DB	021H
	DB	026H
	DB	021H
	DB	026H
	DB	021H
	DB	06H
	DB	021H
	DB	06H
	DB	019H
	DB	06H
	DB	021H
	DB	026H
	DB	021H
	DB	026H
	DB	021H
	DB	026H
	DB	021H
	DB	026H
	DB	021H
	DB	06H
	DB	021H
	DB	026H
	DB	021H
	DB	06H
	DB	019H
	DB	06H
	DB	021H
	DB	026H
	DB	021H
	DB	026H
	DB	021H
	DB	06H
	DB	021H
	DB	06H
	DB	021H
	DB	06H
	DB	021H
	DB	06H
	DB	021H
	DB	046H
	DB	021H
	DB	026H
	DB	021H
	DB	026H
	DB	021H
	DB	026H
	DB	021H
	DB	026H
	DB	021H
	DB	026H
	DB	021H
	DB	026H
	DB	021H
	DB	026H
	DB	021H
	DB	026H
	DB	021H
	DB	06H
	DB	019H
	DB	06H
	DB	021H
	DB	026H
	DB	021H
	DB	06H
	DB	021H
	DB	06H
	DB	019H
	DB	06H
	DB	021H
	DB	06H
	DB	021H
	DB	026H
	DB	021H
	DB	026H
	DB	021H
	DB	026H
	DB	021H
	DB	026H
	DB	021H
	DB	06H
	DB	019H
	DB	06H
	DB	021H
	DB	026H
	DB	021H
	DB	027H
	DB	021H
	DB	026H
	DB	021H
	DB	026H
	DB	021H
	DB	06H
	DB	021H
	DB	026H
	DB	021H
	DB	027H
	DB	021H
	DB	026H
	DB	021H
	DB	026H
	DB	021H
	DB	06H
	DB	021H
	DB	026H
	DB	021H
	DB	026H
	DB	021H
	DB	026H
	DB	021H
	DB	026H
	DB	021H
	DB	06H
	DB	021H
	DB	06H
	DB	021H
	DB	026H
	DB	021H
	DB	026H
	DB	021H
	DB	026H
	DB	021H
	DB	026H
	DB	021H
	DB	06H
	DB	021H
	DB	06H
	DB	019H
	DB	026H
	DB	021H
	DB	026H
	DB	021H
	DB	06H
	DB	021H
	DB	06H
	DB	021H
	DB	026H
	DB	021H
	DB	026H
	DB	021H
	DB	026H
	DB	021H
	DB	06H
	DB	021H
	DB	026H
	DB	021H
	DB	026H
	DB	021H
	DB	06H
	DB	021H
	DB	026H
	DB	021H
	DB	026H
	DB	021H
	DB	06H
	DB	021H
	DB	026H
	DB	021H
	DB	026H
	DB	021H
	DB	026H
	DB	021H
	DB	026H
	DB	021H
	DB	06H
	DB	021H
	DB	026H
	DB	021H
	DB	06H
	DB	021H
	DB	06H
	DB	021H
	DB	026H
	DB	021H
	DB	05H
	DB	019H
	DB	06H
	DB	021H
	DB	05H
	DB	019H
	DB	026H
	DB	021H
	DB	06H
	DB	019H
	DB	026H
	DB	021H
	DB	026H
	DB	021H
	DB	026H
	DB	021H
	DB	06H
	DB	021H
	DB	06H
	DB	021H
	DB	06H
	DB	019H
	DB	026H
	DB	021H
	DB	026H
	DB	021H
	DB	026H
	DB	021H
	DB	06H
	DB	021H
	DB	06H
	DB	021H
	DB	06H
	DB	021H
	DB	06H
	DB	019H
	DB	06H
	DB	021H
	DB	026H
	DB	021H
	DB	026H
	DB	021H
	DB	06H
	DB	019H
	DB	06H
	DB	019H
	DB	06H
	DB	021H
	DB	06H
	DB	021H
	DB	06H
	DB	021H
	DB	026H
	DB	021H
	DB	046H
	DB	021H
	DB	06H
	DB	021H
	DB	06H
	DB	021H
	DB	06H
	DB	019H
	DB	0e5H
	DB	018H
	DB	026H
	DB	021H
	DB	06H
	DB	021H
	DB	06H
	DB	021H
	DB	026H
	DB	021H
	DB	06H
	DB	021H
	DB	026H
	DB	021H
	DB	027H
	DB	021H
	DB	06H
	DB	021H
	DB	06H
	DB	021H
	DB	026H
	DB	021H
	DB	06H
	DB	021H
	DB	026H
	DB	021H
	DB	026H
	DB	021H
	DB	027H
	DB	021H
	DB	06H
	DB	021H
	DB	026H
	DB	021H
	DB	026H
	DB	021H
	DB	026H
	DB	021H
	DB	026H
	DB	021H
	DB	06H
	DB	019H
	DB	06H
	DB	019H
	DB	026H
	DB	021H
	DB	026H
	DB	021H
	DB	06H
	DB	021H
	DB	06H
	DB	021H
	DB	06H
	DB	019H
	DB	06H
	DB	021H
	DB	06H
	DB	021H
	DB	06H
	DB	021H
	DB	026H
	DB	021H
	DB	06H
	DB	021H
	DB	06H
	DB	019H
	DB	06H
	DB	019H
	DB	06H
	DB	021H
	DB	026H
	DB	021H
	DB	06H
	DB	021H
	DB	026H
	DB	021H
	DB	026H
	DB	021H
	DB	026H
	DB	021H
	DB	06H
	DB	021H
	DB	06H
	DB	021H
	DB	06H
	DB	021H
	DB	026H
	DB	021H
	DB	06H
	DB	019H
	DB	06H
	DB	021H
	DB	06H
	DB	021H
	DB	06H
	DB	021H
	DB	06H
	DB	021H
	DB	026H
	DB	021H
	DB	06H
	DB	021H
	DB	026H
	DB	021H
	DB	06H
	DB	021H
	DB	026H
	DB	021H
	DB	06H
	DB	021H
	DB	06H
	DB	021H
	DB	026H
	DB	021H
	DB	026H
	DB	021H
	DB	06H
	DB	021H
	DB	06H
	DB	021H
	DB	026H
	DB	021H
	DB	06H
	DB	021H
	DB	05H
	DB	019H
	DB	06H
	DB	021H
	DB	06H
	DB	021H
	DB	06H
	DB	021H
	DB	06H
	DB	019H
	DB	06H
	DB	019H
	DB	06H
	DB	021H
	DB	06H
	DB	021H
	DB	06H
	DB	021H
	DB	026H
	DB	021H
	DB	026H
	DB	021H
	DB	06H
	DB	021H
	DB	06H
	DB	019H
	DB	026H
	DB	021H
	DB	026H
	DB	021H
	DB	026H
	DB	021H
	DB	026H
	DB	021H
	DB	06H
	DB	021H
	DB	06H
	DB	019H
	DB	06H
	DB	021H
	DB	026H
	DB	021H
	DB	026H
	DB	021H
	DB	06H
	DB	021H
	DB	026H
	DB	021H
	DB	026H
	DB	021H
	DB	06H
	DB	021H
	DB	06H
	DB	021H
	DB	026H
	DB	021H
	DB	026H
	DB	021H
	DB	027H
	DB	021H
	DB	06H
	DB	019H
	DB	026H
	DB	021H
	DB	06H
	DB	021H
	DB	06H
	DB	021H
	DB	026H
	DB	021H
	DB	027H
	DB	021H
	DB	026H
	DB	021H
	DB	06H
	DB	021H
	DB	06H
	DB	019H
	DB	026H
	DB	021H
	DB	026H
	DB	021H
	DB	06H
	DB	021H
	DB	026H
	DB	021H
	DB	026H
	DB	021H
	DB	026H
	DB	021H
	DB	026H
	DB	021H
	DB	06H
	DB	021H
	DB	026H
	DB	021H
	DB	026H
	DB	021H
	DB	026H
	DB	021H
	DB	026H
	DB	021H
	DB	026H
	DB	021H
	DB	026H
	DB	021H
	DB	06H
	DB	021H
	DB	026H
	DB	021H
	DB	06H
	DB	021H
	DB	026H
	DB	021H
	DB	026H
	DB	021H
	DB	06H
	DB	019H
	DB	026H
	DB	021H
	DB	026H
	DB	021H
	DB	026H
	DB	021H
	DB	06H
	DB	021H
	DB	06H
	DB	021H
	DB	06H
	DB	021H
	DB	06H
	DB	021H
	DB	06H
	DB	021H
	DB	026H
	DB	021H
	DB	026H
	DB	021H
	DB	026H
	DB	021H
	DB	06H
	DB	019H
	DB	06H
	DB	021H
	DB	026H
	DB	021H
	DB	06H
	DB	021H
	DB	026H
	DB	021H
	DB	026H
	DB	021H
	DB	026H
	DB	021H
	DB	026H
	DB	021H
	DB	026H
	DB	021H
	DB	06H
	DB	021H
	DB	06H
	DB	021H
	DB	026H
	DB	021H
	DB	06H
	DB	021H
	DB	026H
	DB	021H
	DB	06H
	DB	021H
	DB	026H
	DB	021H
	DB	026H
	DB	021H
	DB	06H
	DB	019H
	DB	05H
	DB	019H
	DB	06H
	DB	021H
	DB	06H
	DB	021H
	DB	06H
	DB	021H
	DB	026H
	DB	021H
	DB	026H
	DB	021H
	DB	026H
	DB	021H
	DB	026H
	DB	021H
	DB	06H
	DB	021H
	DB	026H
	DB	021H
	DB	06H
	DB	019H
	DB	026H
	DB	021H
	DB	026H
	DB	021H
	DB	06H
	DB	021H
	DB	06H
	DB	021H
	DB	026H
	DB	021H
	DB	026H
	DB	021H
	DB	026H
	DB	021H
	DB	06H
	DB	019H
	DB	026H
	DB	021H
	DB	026H
	DB	021H
	DB	06H
	DB	021H
	DB	026H
	DB	021H
	DB	06H
	DB	021H
	DB	06H
	DB	021H
	DB	026H
	DB	021H
	DB	026H
	DB	021H
	DB	026H
	DB	021H
	DB	026H
	DB	021H
	DB	06H
	DB	021H
	DB	06H
	DB	019H
	DB	026H
	DB	021H
	DB	06H
	DB	021H
	DB	026H
	DB	021H
	DB	026H
	DB	021H
	DB	06H
	DB	021H
	DB	06H
	DB	021H
	DB	06H
	DB	019H
	DB	06H
	DB	021H
	DB	026H
	DB	021H
	DB	026H
	DB	021H
	DB	06H
	DB	021H
	DB	06H
	DB	021H
	DB	06H
	DB	019H
	DB	026H
	DB	021H
	DB	026H
	DB	021H
	DB	026H
	DB	021H
	DB	026H
	DB	021H
	DB	06H
	DB	021H
	DB	026H
	DB	021H
	DB	026H
	DB	021H
	DB	06H
	DB	021H
	DB	06H
	DB	021H
	DB	026H
	DB	021H
	DB	06H
	DB	019H
	DB	06H
	DB	021H
	DB	06H
	DB	021H
	DB	06H
	DB	021H
	DB	06H
	DB	021H
	DB	05H
	DB	019H
	DB	06H
	DB	021H
	DB	026H
	DB	021H
	DB	026H
	DB	021H
	DB	06H
	DB	021H
	DB	06H
	DB	021H
	DB	06H
	DB	021H
	DB	026H
	DB	021H
	DB	026H
	DB	021H
	DB	026H
	DB	021H
	DB	06H
	DB	019H
	DB	06H
	DB	021H
	DB	026H
	DB	021H
	DB	026H
	DB	021H
	DB	026H
	DB	021H
	DB	026H
	DB	021H
	DB	026H
	DB	021H
	DB	026H
	DB	021H
	DB	026H
	DB	021H
	DB	026H
	DB	021H
	DB	026H
	DB	021H
	DB	06H
	DB	021H
	DB	06H
	DB	019H
	DB	026H
	DB	021H
	DB	06H
	DB	021H
	DB	026H
	DB	021H
	DB	06H
	DB	021H
	DB	026H
	DB	021H
	DB	06H
	DB	021H
	DB	06H
	DB	021H
	DB	06H
	DB	021H
	DB	026H
	DB	021H
	DB	06H
	DB	021H
	DB	06H
	DB	021H
	DB	026H
	DB	021H
	DB	06H
	DB	021H
	DB	06H
	DB	019H
	DB	026H
	DB	021H
	DB	06H
	DB	021H
	DB	06H
	DB	021H
	DB	026H
	DB	021H
	DB	06H
	DB	021H
	DB	06H
	DB	021H
	DB	06H
	DB	021H
	DB	06H
	DB	019H
	DB	06H
	DB	021H
	DB	06H
	DB	019H
	DB	06H
	DB	021H
	DB	026H
	DB	021H
	DB	06H
	DB	021H
	DB	06H
	DB	021H
	DB	026H
	DB	021H
	DB	026H
	DB	021H
	DB	026H
	DB	021H
	DB	026H
	DB	021H
	DB	026H
	DB	021H
	DB	06H
	DB	021H
	DB	06H
	DB	019H
	DB	06H
	DB	021H
	DB	026H
	DB	021H
	DB	026H
	DB	021H
	DB	026H
	DB	021H
	DB	026H
	DB	021H
	DB	06H
	DB	019H
	DB	06H
	DB	021H
	DB	026H
	DB	021H
	DB	06H
	DB	021H
	DB	026H
	DB	021H
	DB	06H
	DB	019H
	DB	06H
	DB	021H
	DB	026H
	DB	021H
	DB	06H
	DB	021H
	DB	026H
	DB	021H
	DB	026H
	DB	021H
	DB	026H
	DB	021H
	DB	026H
	DB	021H
	DB	026H
	DB	021H
	DB	06H
	DB	021H
	DB	06H
	DB	019H
	DB	026H
	DB	021H
	DB	026H
	DB	021H
	DB	026H
	DB	021H
	DB	026H
	DB	021H
	DB	026H
	DB	021H
	DB	026H
	DB	021H
	DB	027H
	DB	021H
	DB	047H
	DB	021H
	DB	026H
	DB	021H
	DB	06H
	DB	019H
	DB	06H
	DB	021H
	DB	026H
	DB	021H
	DB	06H
	DB	021H
	DB	027H
	DB	021H
	DB	026H
	DB	021H
	DB	026H
	DB	021H
	DB	026H
	DB	021H
	DB	06H
	DB	021H
	DB	06H
	DB	021H
	DB	06H
	DB	021H
	DB	05H
	DB	019H
	DB	026H
	DB	021H
	DB	026H
	DB	021H
	DB	026H
	DB	021H
	DB	06H
	DB	021H
	DB	026H
	DB	021H
	DB	06H
	DB	021H
	DB	026H
	DB	021H
	DB	026H
	DB	021H
	DB	026H
	DB	021H
	DB	026H
	DB	021H
	DB	026H
	DB	021H
	DB	026H
	DB	021H
	DB	06H
	DB	021H
	DB	026H
	DB	021H
	DB	026H
	DB	021H
	DB	026H
	DB	021H
	DB	026H
	DB	021H
	DB	026H
	DB	021H
	DB	06H
	DB	021H
	DB	026H
	DB	021H
	DB	026H
	DB	021H
	DB	06H
	DB	021H
	DB	047H
	DB	021H
	DB	026H
	DB	021H
	DB	06H
	DB	021H
	DB	06H
	DB	021H
	DB	06H
	DB	021H
	DB	06H
	DB	021H
	DB	06H
	DB	021H
	DB	06H
	DB	021H
	DB	06H
	DB	019H
	DB	06H
	DB	019H
	DB	026H
	DB	021H
	DB	026H
	DB	021H
	DB	06H
	DB	021H
	DB	06H
	DB	021H
	DB	06H
	DB	021H
	DB	026H
	DB	021H
	DB	026H
	DB	021H
	DB	026H
	DB	021H
	DB	06H
	DB	021H
	DB	06H
	DB	019H
	DB	026H
	DB	021H
	DB	026H
	DB	021H
	DB	06H
	DB	021H
	DB	06H
	DB	021H
	DB	026H
	DB	021H
	DB	026H
	DB	021H
	DB	026H
	DB	021H
	DB	026H
	DB	021H
	DB	06H
	DB	021H
	DB	026H
	DB	021H
	DB	026H
	DB	021H
	DB	06H
	DB	021H
	DB	026H
	DB	021H
	DB	06H
	DB	021H
	DB	06H
	DB	021H
	DB	026H
	DB	021H
	DB	026H
	DB	021H
	DB	06H
	DB	021H
	DB	026H
	DB	021H
	DB	06H
	DB	021H
	DB	026H
	DB	021H
	DB	06H
	DB	021H
	DB	06H
	DB	021H
	DB	026H
	DB	021H
	DB	06H
	DB	021H
	DB	0e5H
	DB	018H
	DB	06H
	DB	019H
	DB	06H
	DB	021H
	DB	026H
	DB	021H
	DB	06H
	DB	019H
	DB	06H
	DB	021H
	DB	026H
	DB	021H
	DB	026H
	DB	021H
	DB	06H
	DB	021H
	DB	06H
	DB	021H
	DB	06H
	DB	021H
	DB	06H
	DB	021H
	DB	026H
	DB	021H
	DB	06H
	DB	021H
	DB	06H
	DB	021H
	DB	026H
	DB	021H
	DB	026H
	DB	021H
	DB	026H
	DB	021H
	DB	06H
	DB	021H
	DB	06H
	DB	021H
	DB	026H
	DB	021H
	DB	026H
	DB	021H
	DB	026H
	DB	021H
	DB	026H
	DB	021H
	DB	026H
	DB	021H
	DB	026H
	DB	021H
	DB	026H
	DB	021H
	DB	06H
	DB	021H
	DB	026H
	DB	021H
	DB	026H
	DB	021H
	DB	026H
	DB	021H
	DB	027H
	DB	021H
	DB	026H
	DB	021H
	DB	026H
	DB	021H
	DB	06H
	DB	021H
	DB	06H
	DB	019H
	DB	026H
	DB	021H
	DB	026H
	DB	021H
	DB	06H
	DB	019H
	DB	06H
	DB	021H
	DB	026H
	DB	021H
	DB	026H
	DB	021H
	DB	026H
	DB	021H
	DB	06H
	DB	021H
	DB	026H
	DB	021H
	DB	06H
	DB	019H
	DB	06H
	DB	021H
	DB	06H
	DB	021H
	DB	06H
	DB	021H
	DB	026H
	DB	021H
	DB	06H
	DB	021H
	DB	06H
	DB	021H
	DB	06H
	DB	019H
	DB	06H
	DB	021H
	DB	026H
	DB	021H
	DB	026H
	DB	021H
	DB	027H
	DB	021H
	DB	06H
	DB	021H
	DB	06H
	DB	021H
	DB	026H
	DB	021H
	DB	06H
	DB	021H
	DB	026H
	DB	021H
	DB	06H
	DB	021H
	DB	06H
	DB	021H
	DB	026H
	DB	021H
	DB	06H
	DB	021H
	DB	026H
	DB	021H
	DB	06H
	DB	021H
	DB	026H
	DB	021H
	DB	06H
	DB	019H
	DB	06H
	DB	021H
	DB	026H
	DB	021H
	DB	026H
	DB	021H
	DB	026H
	DB	021H
	DB	06H
	DB	021H
	DB	06H
	DB	021H
	DB	06H
	DB	021H
	DB	06H
	DB	021H
	DB	026H
	DB	021H
	DB	06H
	DB	019H
	DB	06H
	DB	021H
	DB	06H
	DB	021H
	DB	026H
	DB	021H
	DB	06H
	DB	021H
	DB	06H
	DB	021H
	DB	06H
	DB	019H
	DB	06H
	DB	021H
	DB	026H
	DB	021H
	DB	026H
	DB	021H
	DB	026H
	DB	021H
	DB	026H
	DB	021H
	DB	026H
	DB	021H
	DB	026H
	DB	021H
	DB	026H
	DB	021H
	DB	06H
	DB	019H
	DB	06H
	DB	021H
	DB	06H
	DB	021H
	DB	026H
	DB	021H
	DB	06H
	DB	019H
	DB	06H
	DB	021H
	DB	026H
	DB	021H
	DB	06H
	DB	021H
	DB	06H
	DB	021H
	DB	06H
	DB	021H
	DB	026H
	DB	021H
	DB	06H
	DB	021H
	DB	026H
	DB	021H
	DB	026H
	DB	021H
	DB	026H
	DB	021H
	DB	026H
	DB	021H
	DB	06H
	DB	021H
	DB	06H
	DB	021H
	DB	06H
	DB	019H
	DB	06H
	DB	021H
	DB	026H
	DB	021H
	DB	026H
	DB	021H
	DB	026H
	DB	021H
	DB	06H
	DB	019H
	DB	06H
	DB	021H
	DB	06H
	DB	021H
	DB	06H
	DB	021H
	DB	06H
	DB	021H
	DB	027H
	DB	021H
	DB	026H
	DB	021H
	DB	06H
	DB	021H
	DB	06H
	DB	021H
	DB	06H
	DB	021H
	DB	026H
	DB	021H
	DB	026H
	DB	021H
	DB	06H
	DB	021H
	DB	06H
	DB	021H
	DB	026H
	DB	021H
	DB	026H
	DB	021H
	DB	026H
	DB	021H
	DB	026H
	DB	021H
	DB	026H
	DB	021H
	DB	06H
	DB	021H
	DB	05H
	DB	019H
	DB	06H
	DB	021H
	DB	026H
	DB	021H
	DB	026H
	DB	021H
	DB	026H
	DB	021H
	DB	06H
	DB	021H
	DB	026H
	DB	021H
	DB	06H
	DB	021H
	DB	06H
	DB	021H
	DB	06H
	DB	021H
	DB	046H
	DB	021H
	DB	026H
	DB	021H
	DB	026H
	DB	021H
	DB	06H
	DB	021H
	DB	026H
	DB	021H
	DB	026H
	DB	021H
	DB	06H
	DB	021H
	DB	06H
	DB	019H
	DB	06H
	DB	021H
	DB	06H
	DB	021H
	DB	06H
	DB	019H
	DB	026H
	DB	021H
	DB	026H
	DB	021H
	DB	026H
	DB	021H
	DB	026H
	DB	021H
	DB	06H
	DB	021H
	DB	026H
	DB	021H
	DB	06H
	DB	019H
	DB	06H
	DB	021H
	DB	06H
	DB	021H
	DB	06H
	DB	021H
	DB	026H
	DB	021H
	DB	06H
	DB	021H
	DB	06H
	DB	021H
	DB	06H
	DB	021H
	DB	06H
	DB	021H
	DB	026H
	DB	021H
	DB	027H
	DB	021H
	DB	026H
	DB	021H
	DB	06H
	DB	021H
	DB	026H
	DB	021H
	DB	06H
	DB	021H
	DB	026H
	DB	021H
	DB	06H
	DB	021H
	DB	06H
	DB	021H
	DB	06H
	DB	021H
	DB	06H
	DB	021H
	DB	06H
	DB	021H
	DB	06H
	DB	019H
	DB	026H
	DB	021H
	DB	026H
	DB	021H
	DB	06H
	DB	021H
	DB	026H
	DB	021H
	DB	026H
	DB	021H
	DB	06H
	DB	021H
	DB	026H
	DB	021H
	DB	026H
	DB	021H
	DB	026H
	DB	021H
	DB	026H
	DB	021H
	DB	06H
	DB	019H
	DB	026H
	DB	021H
	DB	06H
	DB	021H
	DB	06H
	DB	021H
	DB	026H
	DB	021H
	DB	026H
	DB	021H
	DB	06H
	DB	021H
	DB	06H
	DB	021H
	DB	06H
	DB	021H
	DB	06H
	DB	021H
	DB	026H
	DB	021H
	DB	06H
	DB	021H
	DB	06H
	DB	021H
	DB	026H
	DB	021H
	DB	026H
	DB	021H
	DB	026H
	DB	021H
	DB	026H
	DB	021H
	DB	026H
	DB	021H
	DB	026H
	DB	021H
	DB	06H
	DB	021H
	DB	026H
	DB	021H
	DB	06H
	DB	021H
	DB	026H
	DB	021H
	DB	026H
	DB	021H
	DB	026H
	DB	021H
	DB	06H
	DB	019H
	DB	026H
	DB	021H
	DB	06H
	DB	021H
	DB	05H
	DB	019H
	DB	06H
	DB	021H
	DB	026H
	DB	021H
	DB	06H
	DB	021H
	DB	026H
	DB	021H
	DB	026H
	DB	021H
	DB	026H
	DB	021H
	DB	06H
	DB	019H
	DB	06H
	DB	021H
	DB	026H
	DB	021H
	DB	026H
	DB	021H
	DB	06H
	DB	021H
	DB	06H
	DB	021H
	DB	026H
	DB	021H
	DB	026H
	DB	021H
	DB	06H
	DB	019H
	DB	026H
	DB	021H
	DB	06H
	DB	021H
	DB	06H
	DB	021H
	DB	026H
	DB	021H
	DB	026H
	DB	021H
	DB	06H
	DB	021H
	DB	026H
	DB	021H
	DB	06H
	DB	019H
	DB	06H
	DB	021H
	DB	026H
	DB	021H
	DB	026H
	DB	021H
	DB	026H
	DB	021H
	DB	026H
	DB	021H
	DB	06H
	DB	021H
	DB	026H
	DB	021H
	DB	06H
	DB	021H
	DB	026H
	DB	021H
	DB	026H
	DB	021H
	DB	06H
	DB	021H
	DB	026H
	DB	021H
	DB	026H
	DB	021H
	DB	06H
	DB	019H
	DB	026H
	DB	021H
	DB	06H
	DB	021H
	DB	06H
	DB	021H
	DB	06H
	DB	021H
	DB	026H
	DB	021H
	DB	026H
	DB	021H
	DB	026H
	DB	021H
	DB	026H
	DB	021H
	DB	027H
	DB	021H
	DB	026H
	DB	021H
	DB	06H
	DB	021H
	DB	026H
	DB	021H
	DB	026H
	DB	021H
	DB	026H
	DB	021H
	DB	026H
	DB	021H
	DB	026H
	DB	021H
	DB	026H
	DB	021H
	DB	026H
	DB	021H
	DB	06H
	DB	021H
	DB	06H
	DB	021H
	DB	026H
	DB	021H
	DB	026H
	DB	021H
	DB	026H
	DB	021H
	DB	026H
	DB	021H
	DB	06H
	DB	021H
	DB	026H
	DB	021H
	DB	06H
	DB	021H
	DB	06H
	DB	019H
	DB	06H
	DB	019H
	DB	026H
	DB	021H
	DB	026H
	DB	021H
	DB	026H
	DB	021H
	DB	027H
	DB	021H
	DB	026H
	DB	021H
	DB	06H
	DB	021H
	DB	06H
	DB	019H
	DB	06H
	DB	021H
	DB	06H
	DB	021H
	DB	026H
	DB	021H
	DB	06H
	DB	019H
	DB	0e5H
	DB	018H
	DB	06H
	DB	021H
	DB	026H
	DB	021H
	DB	06H
	DB	021H
	DB	026H
	DB	021H
	DB	026H
	DB	021H
	DB	026H
	DB	021H
	DB	06H
	DB	021H
	DB	06H
	DB	021H
	DB	026H
	DB	021H
	DB	05H
	DB	019H
	DB	026H
	DB	021H
	DB	06H
	DB	021H
	DB	026H
	DB	021H
	DB	026H
	DB	021H
	DB	06H
	DB	021H
	DB	026H
	DB	021H
	DB	06H
	DB	019H
	DB	026H
	DB	021H
	DB	06H
	DB	021H
	DB	026H
	DB	021H
	DB	026H
	DB	021H
	DB	026H
	DB	021H
	DB	026H
	DB	021H
	DB	026H
	DB	021H
	DB	06H
	DB	021H
	DB	06H
	DB	021H
	DB	06H
	DB	021H
	DB	06H
	DB	021H
	DB	06H
	DB	019H
	DB	06H
	DB	021H
	DB	026H
	DB	021H
	DB	026H
	DB	021H
	DB	06H
	DB	021H
	DB	026H
	DB	021H
	DB	06H
	DB	021H
	DB	026H
	DB	021H
	DB	06H
	DB	019H
	DB	06H
	DB	021H
	DB	06H
	DB	021H
	DB	026H
	DB	021H
	DB	026H
	DB	021H
	DB	026H
	DB	021H
	DB	026H
	DB	021H
	DB	026H
	DB	021H
	DB	026H
	DB	021H
	DB	026H
	DB	021H
	DB	026H
	DB	021H
	DB	06H
	DB	021H
	DB	06H
	DB	021H
	DB	026H
	DB	021H
	DB	026H
	DB	021H
	DB	026H
	DB	021H
	DB	026H
	DB	021H
	DB	06H
	DB	019H
	DB	026H
	DB	021H
	DB	026H
	DB	021H
	DB	026H
	DB	021H
	DB	06H
	DB	021H
	DB	06H
	DB	021H
	DB	06H
	DB	019H
	DB	026H
	DB	021H
	DB	026H
	DB	021H
	DB	06H
	DB	021H
	DB	026H
	DB	021H
	DB	026H
	DB	021H
	DB	06H
	DB	019H
	DB	026H
	DB	021H
	DB	06H
	DB	021H
	DB	06H
	DB	019H
	DB	026H
	DB	021H
	DB	026H
	DB	021H
	DB	06H
	DB	021H
	DB	06H
	DB	021H
	DB	026H
	DB	021H
	DB	026H
	DB	021H
	DB	06H
	DB	019H
	DB	06H
	DB	021H
	DB	06H
	DB	021H
	DB	06H
	DB	019H
	DB	026H
	DB	021H
	DB	026H
	DB	021H
	DB	026H
	DB	021H
	DB	06H
	DB	019H
	DB	06H
	DB	021H
	DB	06H
	DB	021H
	DB	06H
	DB	021H
	DB	06H
	DB	019H
	DB	026H
	DB	021H
	DB	026H
	DB	021H
	DB	06H
	DB	019H
	DB	06H
	DB	021H
	DB	026H
	DB	021H
	DB	06H
	DB	019H
	DB	026H
	DB	021H
	DB	027H
	DB	021H
	DB	026H
	DB	021H
	DB	026H
	DB	021H
	DB	026H
	DB	021H
	DB	026H
	DB	021H
	DB	06H
	DB	021H
	DB	06H
	DB	021H
	DB	026H
	DB	021H
	DB	026H
	DB	021H
	DB	026H
	DB	021H
	DB	06H
	DB	021H
	DB	027H
	DB	021H
	DB	026H
	DB	021H
	DB	026H
	DB	021H
	DB	026H
	DB	021H
	DB	06H
	DB	021H
	DB	06H
	DB	021H
	DB	026H
	DB	021H
	DB	06H
	DB	021H
	DB	06H
	DB	021H
	DB	026H
	DB	021H
	DB	047H
	DB	021H
	DB	026H
	DB	021H
	DB	06H
	DB	021H
	DB	06H
	DB	021H
	DB	06H
	DB	021H
	DB	06H
	DB	021H
	DB	026H
	DB	021H
	DB	026H
	DB	021H
	DB	026H
	DB	021H
	DB	026H
	DB	021H
	DB	06H
	DB	021H
	DB	06H
	DB	019H
	DB	026H
	DB	021H
	DB	026H
	DB	021H
	DB	06H
	DB	021H
	DB	026H
	DB	021H
	DB	06H
	DB	019H
	DB	06H
	DB	021H
	DB	026H
	DB	021H
	DB	026H
	DB	021H
	DB	06H
	DB	019H
	DB	026H
	DB	021H
	DB	046H
	DB	021H
	DB	06H
	DB	021H
	DB	026H
	DB	021H
	DB	06H
	DB	021H
	DB	026H
	DB	021H
	DB	026H
	DB	021H
	DB	026H
	DB	021H
	DB	06H
	DB	021H
	DB	026H
	DB	021H
	DB	026H
	DB	021H
	DB	026H
	DB	021H
	DB	027H
	DB	021H
	DB	026H
	DB	021H
	DB	026H
	DB	021H
	DB	06H
	DB	021H
	DB	026H
	DB	021H
	DB	026H
	DB	021H
	DB	06H
	DB	019H
	DB	026H
	DB	021H
	DB	06H
	DB	021H
	DB	026H
	DB	021H
	DB	026H
	DB	021H
	DB	06H
	DB	021H
	DB	026H
	DB	021H
	DB	026H
	DB	021H
	DB	026H
	DB	021H
	DB	06H
	DB	021H
	DB	06H
	DB	021H
	DB	026H
	DB	021H
	DB	026H
	DB	021H
	DB	026H
	DB	021H
	DB	06H
	DB	021H
	DB	06H
	DB	019H
	DB	06H
	DB	019H
	DB	06H
	DB	021H
	DB	026H
	DB	021H
	DB	026H
	DB	021H
	DB	06H
	DB	021H
	DB	026H
	DB	021H
	DB	06H
	DB	021H
	DB	06H
	DB	021H
	DB	026H
	DB	021H
	DB	06H
	DB	019H
	DB	06H
	DB	021H
	DB	026H
	DB	021H
	DB	06H
	DB	021H
	DB	026H
	DB	021H
	DB	026H
	DB	021H
	DB	06H
	DB	021H
	DB	026H
	DB	021H
	DB	06H
	DB	021H
	DB	026H
	DB	021H
	DB	026H
	DB	021H
	DB	026H
	DB	021H
	DB	026H
	DB	021H
	DB	026H
	DB	021H
	DB	026H
	DB	021H
	DB	026H
	DB	021H
	DB	026H
	DB	021H
	DB	06H
	DB	021H
	DB	06H
	DB	021H
	DB	06H
	DB	021H
	DB	06H
	DB	021H
	DB	06H
	DB	021H
	DB	06H
	DB	021H
	DB	06H
	DB	019H
	DB	06H
	DB	021H
	DB	06H
	DB	021H
	DB	06H
	DB	021H
	DB	06H
	DB	019H
	DB	06H
	DB	021H
	DB	026H
	DB	021H
	DB	026H
	DB	021H
	DB	026H
	DB	021H
	DB	06H
	DB	021H
	DB	026H
	DB	021H
	DB	06H
	DB	021H
	DB	06H
	DB	021H
	DB	026H
	DB	021H
	DB	026H
	DB	021H
	DB	026H
	DB	021H
	DB	026H
	DB	021H
	DB	06H
	DB	021H
	DB	026H
	DB	021H
	DB	026H
	DB	021H
	DB	06H
	DB	021H
	DB	06H
	DB	019H
	DB	05H
	DB	019H
	DB	06H
	DB	021H
	DB	026H
	DB	021H
	DB	026H
	DB	021H
	DB	026H
	DB	021H
	DB	026H
	DB	021H
	DB	06H
	DB	019H
	DB	026H
	DB	021H
	DB	06H
	DB	019H
	DB	026H
	DB	021H
	DB	06H
	DB	021H
	DB	06H
	DB	021H
	DB	026H
	DB	021H
	DB	026H
	DB	021H
	DB	06H
	DB	019H
	DB	026H
	DB	021H
	DB	026H
	DB	021H
	DB	06H
	DB	021H
	DB	026H
	DB	021H
	DB	06H
	DB	021H
	DB	06H
	DB	019H
	DB	06H
	DB	021H
	DB	026H
	DB	021H
	DB	026H
	DB	021H
	DB	06H
	DB	021H
	DB	026H
	DB	021H
	DB	06H
	DB	021H
	DB	026H
	DB	021H
	DB	026H
	DB	021H
	DB	026H
	DB	021H
	DB	026H
	DB	021H
	DB	026H
	DB	021H
	DB	06H
	DB	021H
	DB	06H
	DB	021H
	DB	06H
	DB	019H
	DB	06H
	DB	021H
	DB	026H
	DB	021H
	DB	05H
	DB	021H
	DB	06H
	DB	021H
	DB	06H
	DB	021H
	DB	06H
	DB	019H
	DB	06H
	DB	021H
	DB	026H
	DB	021H
	DB	026H
	DB	021H
	DB	06H
	DB	021H
	DB	06H
	DB	021H
	DB	026H
	DB	021H
	DB	06H
	DB	021H
	DB	06H
	DB	021H
	DB	05H
	DB	019H
	DB	026H
	DB	021H
	DB	06H
	DB	021H
	DB	026H
	DB	021H
	DB	026H
	DB	021H
	DB	06H
	DB	019H
	DB	06H
	DB	021H
	DB	06H
	DB	021H
	DB	06H
	DB	021H
	DB	026H
	DB	021H
	DB	026H
	DB	021H
	DB	026H
	DB	021H
	DB	06H
	DB	021H
	DB	026H
	DB	021H
	DB	06H
	DB	021H
	DB	06H
	DB	021H
	DB	026H
	DB	021H
	DB	026H
	DB	021H
	DB	06H
	DB	021H
	DB	06H
	DB	021H
	DB	026H
	DB	021H
	DB	026H
	DB	021H
	DB	06H
	DB	021H
	DB	026H
	DB	021H
	DB	06H
	DB	021H
	DB	06H
	DB	019H
	DB	026H
	DB	021H
	DB	06H
	DB	021H
	DB	026H
	DB	021H
	DB	026H
	DB	021H
	DB	06H
	DB	021H
	DB	027H
	DB	021H
	DB	026H
	DB	021H
	DB	06H
	DB	021H
	DB	06H
	DB	019H
	DB	06H
	DB	021H
	DB	026H
	DB	021H
	DB	026H
	DB	021H
	DB	06H
	DB	021H
	DB	026H
	DB	021H
	DB	026H
	DB	021H
	DB	06H
	DB	021H
	DB	06H
	DB	021H
	DB	026H
	DB	021H
	DB	026H
	DB	021H
	DB	06H
	DB	021H
	DB	06H
	DB	019H
	DB	06H
	DB	021H
	DB	026H
	DB	021H
	DB	06H
	DB	021H
	DB	026H
	DB	021H
	DB	06H
	DB	021H
	DB	026H
	DB	021H
	DB	06H
	DB	021H
	DB	06H
	DB	019H
	DB	026H
	DB	021H
	DB	026H
	DB	021H
	DB	06H
	DB	019H
	DB	026H
	DB	021H
	DB	026H
	DB	021H
	DB	06H
	DB	021H
	DB	06H
	DB	019H
	DB	06H
	DB	021H
	DB	06H
	DB	019H
	DB	06H
	DB	021H
	DB	06H
	DB	021H
	DB	026H
	DB	021H
	DB	026H
	DB	021H
	DB	026H
	DB	021H
	DB	06H
	DB	021H
	DB	026H
	DB	021H
	DB	026H
	DB	021H
	DB	026H
	DB	021H
	DB	026H
	DB	021H
	DB	026H
	DB	021H
	DB	06H
	DB	021H
	DB	026H
	DB	021H
	DB	026H
	DB	021H
	DB	06H
	DB	021H
	DB	026H
	DB	021H
	DB	026H
	DB	021H
	DB	06H
	DB	019H
	DB	06H
	DB	021H
	DB	06H
	DB	021H
	DB	06H
	DB	019H
	DB	026H
	DB	021H
	DB	026H
	DB	021H
	DB	026H
	DB	021H
	DB	026H
	DB	021H
	DB	06H
	DB	021H
	DB	026H
	DB	021H
	DB	06H
	DB	021H
	DB	026H
	DB	021H
	DB	026H
	DB	021H
	DB	06H
	DB	021H
	DB	06H
	DB	021H
	DB	026H
	DB	021H
	DB	06H
	DB	021H
	DB	06H
	DB	021H
	DB	06H
	DB	021H
	DB	06H
	DB	021H
	DB	06H
	DB	021H
	DB	026H
	DB	021H
	DB	06H
	DB	019H
	DB	06H
	DB	021H
	DB	06H
	DB	021H
	DB	06H
	DB	019H
	DB	06H
	DB	021H
	DB	026H
	DB	021H
	DB	026H
	DB	021H
	DB	026H
	DB	021H
	DB	026H
	DB	021H
	DB	026H
	DB	021H
	DB	026H
	DB	021H
	DB	026H
	DB	021H
	DB	026H
	DB	021H
	DB	06H
	DB	021H
	DB	026H
	DB	021H
	DB	06H
	DB	021H
	DB	06H
	DB	021H
	DB	026H
	DB	021H
	DB	06H
	DB	021H
	DB	026H
	DB	021H
	DB	06H
	DB	021H
	DB	026H
	DB	021H
	DB	026H
	DB	021H
	DB	026H
	DB	021H
	DB	06H
	DB	021H
	DB	026H
	DB	021H
	DB	026H
	DB	021H
	DB	026H
	DB	021H
	DB	06H
	DB	021H
	DB	06H
	DB	019H
	DB	06H
	DB	021H
	DB	06H
	DB	021H
	DB	026H
	DB	021H
	DB	026H
	DB	021H
	DB	06H
	DB	021H
	DB	06H
	DB	019H
	DB	06H
	DB	021H
	DB	06H
	DB	021H
	DB	026H
	DB	021H
	DB	026H
	DB	021H
	DB	026H
	DB	021H
	DB	026H
	DB	021H
	DB	026H
	DB	021H
	DB	027H
	DB	021H
	DB	026H
	DB	021H
	DB	06H
	DB	021H
	DB	026H
	DB	021H
	DB	026H
	DB	021H
	DB	06H
	DB	019H
	DB	026H
	DB	021H
	DB	026H
	DB	021H
	DB	026H
	DB	021H
	DB	026H
	DB	021H
	DB	026H
	DB	021H
	DB	06H
	DB	021H
	DB	026H
	DB	021H
	DB	026H
	DB	021H
	DB	06H
	DB	019H
	DB	06H
	DB	021H
	DB	026H
	DB	021H
	DB	06H
	DB	019H
	DB	026H
	DB	021H
	DB	026H
	DB	021H
	DB	06H
	DB	021H
	DB	026H
	DB	021H
	DB	026H
	DB	021H
	DB	06H
	DB	021H
	DB	026H
	DB	021H
	DB	026H
	DB	021H
	DB	026H
	DB	021H
	DB	06H
	DB	021H
	DB	06H
	DB	019H
	DB	06H
	DB	021H
	DB	06H
	DB	019H
	DB	06H
	DB	021H
	DB	026H
	DB	021H
	DB	026H
	DB	021H
	DB	06H
	DB	021H
	DB	026H
	DB	021H
	DB	026H
	DB	021H
	DB	06H
	DB	021H
	DB	026H
	DB	021H
	DB	027H
	DB	021H
	DB	026H
	DB	021H
	DB	06H
	DB	019H
	DB	06H
	DB	021H
	DB	06H
	DB	021H
	DB	026H
	DB	021H
	DB	06H
	DB	021H
	DB	026H
	DB	021H
	DB	026H
	DB	021H
	DB	06H
	DB	021H
	DB	06H
	DB	021H
	DB	026H
	DB	021H
	DB	026H
	DB	021H
	DB	026H
	DB	021H
	DB	026H
	DB	021H
	DB	026H
	DB	021H
	DB	026H
	DB	021H
	DB	026H
	DB	021H
	DB	06H
	DB	021H
	DB	026H
	DB	021H
	DB	026H
	DB	021H
	DB	026H
	DB	021H
	DB	026H
	DB	021H
	DB	026H
	DB	021H
	DB	026H
	DB	021H
	DB	06H
	DB	021H
	DB	026H
	DB	021H
	DB	06H
	DB	021H
	DB	026H
	DB	021H
	DB	06H
	DB	019H
	DB	05H
	DB	019H
	DB	0e6H
	DB	018H
	DB	06H
	DB	021H
	DB	06H
	DB	021H
	DB	026H
	DB	021H
	DB	026H
	DB	021H
	DB	026H
	DB	021H
	DB	026H
	DB	021H
	DB	026H
	DB	021H
	DB	026H
	DB	021H
	DB	06H
	DB	021H
	DB	026H
	DB	021H
	DB	026H
	DB	021H
	DB	026H
	DB	021H
	DB	06H
	DB	021H
	DB	06H
	DB	019H
	DB	06H
	DB	021H
	DB	026H
	DB	021H
	DB	026H
	DB	021H
	DB	06H
	DB	021H
	DB	06H
	DB	019H
	DB	06H
	DB	021H
	DB	06H
	DB	021H
	DB	026H
	DB	021H
	DB	026H
	DB	021H
	DB	026H
	DB	021H
	DB	06H
	DB	021H
	DB	026H
	DB	021H
	DB	05H
	DB	019H
	DB	06H
	DB	021H
	DB	026H
	DB	021H
	DB	026H
	DB	021H
	DB	06H
	DB	021H
	DB	026H
	DB	021H
	DB	026H
	DB	021H
	DB	06H
	DB	021H
	DB	026H
	DB	021H
	DB	06H
	DB	021H
	DB	026H
	DB	021H
	DB	06H
	DB	021H
	DB	06H
	DB	019H
	DB	026H
	DB	021H
	DB	06H
	DB	021H
	DB	06H
	DB	021H
	DB	026H
	DB	021H
	DB	026H
	DB	021H
	DB	026H
	DB	021H
	DB	06H
	DB	021H
	DB	06H
	DB	021H
	DB	026H
	DB	021H
	DB	026H
	DB	021H
	DB	026H
	DB	021H
	DB	026H
	DB	021H
	DB	06H
	DB	019H
	DB	06H
	DB	021H
	DB	06H
	DB	021H
	DB	06H
	DB	019H
	DB	06H
	DB	019H
	DB	06H
	DB	021H
	DB	026H
	DB	021H
	DB	06H
	DB	021H
	DB	026H
	DB	021H
	DB	026H
	DB	021H
	DB	06H
	DB	021H
	DB	026H
	DB	021H
	DB	06H
	DB	021H
	DB	06H
	DB	019H
	DB	06H
	DB	021H
	DB	026H
	DB	021H
	DB	026H
	DB	021H
	DB	026H
	DB	021H
	DB	06H
	DB	021H
	DB	026H
	DB	021H
	DB	026H
	DB	021H
	DB	06H
	DB	021H
	DB	06H
	DB	021H
	DB	046H
	DB	021H
	DB	047H
	DB	021H
	DB	06H
	DB	021H
	DB	06H
	DB	021H
	DB	026H
	DB	021H
	DB	026H
	DB	021H
	DB	06H
	DB	021H
	DB	026H
	DB	021H
	DB	06H
	DB	021H
	DB	06H
	DB	021H
	DB	06H
	DB	021H
	DB	06H
	DB	021H
	DB	026H
	DB	021H
	DB	06H
	DB	021H
	DB	06H
	DB	021H
	DB	06H
	DB	021H
	DB	06H
	DB	021H
	DB	026H
	DB	021H
	DB	026H
	DB	021H
	DB	06H
	DB	021H
	DB	06H
	DB	021H
	DB	06H
	DB	021H
	DB	046H
	DB	021H
	DB	026H
	DB	021H
	DB	06H
	DB	021H
	DB	026H
	DB	021H
	DB	026H
	DB	021H
	DB	06H
	DB	021H
	DB	027H
	DB	021H
	DB	06H
	DB	021H
	DB	026H
	DB	021H
	DB	06H
	DB	021H
	DB	026H
	DB	021H
	DB	06H
	DB	021H
	DB	06H
	DB	021H
	DB	06H
	DB	021H
	DB	026H
	DB	021H
	DB	026H
	DB	021H
	DB	06H
	DB	021H
	DB	06H
	DB	021H
	DB	06H
	DB	021H
	DB	026H
	DB	021H
	DB	026H
	DB	021H
	DB	027H
	DB	021H
	DB	06H
	DB	019H
	DB	06H
	DB	021H
	DB	06H
	DB	021H
	DB	026H
	DB	021H
	DB	06H
	DB	019H
	DB	06H
	DB	021H
	DB	026H
	DB	021H
	DB	026H
	DB	021H
	DB	026H
	DB	021H
	DB	026H
	DB	021H
	DB	026H
	DB	021H
	DB	026H
	DB	021H
	DB	026H
	DB	021H
	DB	026H
	DB	021H
	DB	026H
	DB	021H
	DB	06H
	DB	021H
	DB	026H
	DB	021H
	DB	026H
	DB	021H
	DB	026H
	DB	021H
	DB	026H
	DB	021H
	DB	027H
	DB	021H
	DB	047H
	DB	021H
	DB	026H
	DB	021H
	DB	026H
	DB	021H
	DB	026H
	DB	021H
	DB	027H
	DB	021H
	DB	06H
	DB	021H
	DB	026H
	DB	021H
	DB	026H
	DB	021H
	DB	026H
	DB	021H
	DB	026H
	DB	021H
	DB	06H
	DB	021H
	DB	026H
	DB	021H
	DB	06H
	DB	021H
	DB	06H
	DB	019H
	DB	0e6H
	DB	018H
	DB	026H
	DB	021H
	DB	026H
	DB	021H
	DB	06H
	DB	021H
	DB	06H
	DB	019H
	DB	026H
	DB	021H
	DB	026H
	DB	021H
	DB	026H
	DB	021H
	DB	06H
	DB	021H
	DB	06H
	DB	021H
	DB	026H
	DB	021H
	DB	06H
	DB	019H
	DB	06H
	DB	021H
	DB	06H
	DB	019H
	DB	026H
	DB	021H
	DB	06H
	DB	021H
	DB	06H
	DB	021H
	DB	026H
	DB	021H
	DB	06H
	DB	021H
	DB	026H
	DB	021H
	DB	026H
	DB	021H
	DB	06H
	DB	021H
	DB	06H
	DB	019H
	DB	026H
	DB	021H
	DB	06H
	DB	019H
	DB	026H
	DB	021H
	DB	026H
	DB	021H
	DB	06H
	DB	019H
	DB	06H
	DB	021H
	DB	06H
	DB	021H
	DB	06H
	DB	021H
	DB	06H
	DB	019H
	DB	06H
	DB	019H
	DB	026H
	DB	021H
	DB	026H
	DB	021H
	DB	026H
	DB	021H
	DB	06H
	DB	019H
	DB	026H
	DB	021H
	DB	026H
	DB	021H
	DB	06H
	DB	021H
	DB	06H
	DB	019H
	DB	06H
	DB	021H
	DB	06H
	DB	021H
	DB	026H
	DB	021H
	DB	06H
	DB	021H
	DB	06H
	DB	021H
	DB	026H
	DB	021H
	DB	06H
	DB	021H
	DB	026H
	DB	021H
	DB	06H
	DB	019H
	DB	06H
	DB	021H
	DB	06H
	DB	021H
	DB	026H
	DB	021H
	DB	06H
	DB	019H
	DB	06H
	DB	021H
	DB	06H
	DB	021H
	DB	06H
	DB	019H
	DB	026H
	DB	021H
	DB	06H
	DB	021H
	DB	06H
	DB	021H
	DB	06H
	DB	021H
	DB	026H
	DB	021H
	DB	026H
	DB	021H
	DB	06H
	DB	021H
	DB	06H
	DB	021H
	DB	026H
	DB	021H
	DB	026H
	DB	021H
	DB	026H
	DB	021H
	DB	06H
	DB	021H
	DB	06H
	DB	021H
	DB	026H
	DB	021H
	DB	06H
	DB	019H
	DB	026H
	DB	021H
	DB	026H
	DB	021H
	DB	026H
	DB	021H
	DB	06H
	DB	021H
	DB	06H
	DB	021H
	DB	026H
	DB	021H
	DB	026H
	DB	021H
	DB	026H
	DB	021H
	DB	06H
	DB	019H
	DB	05H
	DB	019H
	DB	06H
	DB	021H
	DB	06H
	DB	021H
	DB	06H
	DB	021H
	DB	05H
	DB	019H
	DB	026H
	DB	021H
	DB	06H
	DB	021H
	DB	026H
	DB	021H
	DB	06H
	DB	019H
	DB	06H
	DB	021H
	DB	026H
	DB	021H
	DB	047H
	DB	021H
	DB	026H
	DB	021H
	DB	026H
	DB	021H
	DB	026H
	DB	021H
	DB	026H
	DB	021H
	DB	026H
	DB	021H
	DB	06H
	DB	019H
	DB	06H
	DB	021H
	DB	026H
	DB	021H
	DB	06H
	DB	019H
	DB	06H
	DB	021H
	DB	026H
	DB	021H
	DB	026H
	DB	021H
	DB	06H
	DB	021H
	DB	06H
	DB	019H
	DB	06H
	DB	021H
	DB	026H
	DB	021H
	DB	026H
	DB	021H
	DB	06H
	DB	021H
	DB	06H
	DB	021H
	DB	026H
	DB	021H
	DB	06H
	DB	021H
	DB	026H
	DB	021H
	DB	026H
	DB	021H
	DB	06H
	DB	021H
	DB	026H
	DB	021H
	DB	05H
	DB	019H
	DB	06H
	DB	019H
	DB	026H
	DB	021H
	DB	027H
	DB	021H
	DB	06H
	DB	021H
	DB	0e6H
	DB	018H
	DB	06H
	DB	021H
	DB	026H
	DB	021H
	DB	026H
	DB	021H
	DB	026H
	DB	021H
	DB	026H
	DB	021H
	DB	06H
	DB	019H
	DB	06H
	DB	021H
	DB	026H
	DB	021H
	DB	026H
	DB	021H
	DB	026H
	DB	021H
	DB	026H
	DB	021H
	DB	026H
	DB	021H
	DB	026H
	DB	021H
	DB	026H
	DB	021H
	DB	027H
	DB	021H
	DB	026H
	DB	021H
	DB	06H
	DB	021H
	DB	026H
	DB	021H
	DB	026H
	DB	021H
	DB	06H
	DB	019H
	DB	06H
	DB	021H
	DB	06H
	DB	019H
	DB	026H
	DB	021H
	DB	06H
	DB	021H
	DB	06H
	DB	021H
	DB	026H
	DB	021H
	DB	06H
	DB	021H
	DB	026H
	DB	021H
	DB	06H
	DB	021H
	DB	06H
	DB	021H
	DB	026H
	DB	021H
	DB	06H
	DB	019H
	DB	06H
	DB	021H
	DB	026H
	DB	021H
	DB	026H
	DB	021H
	DB	026H
	DB	021H
	DB	06H
	DB	019H
	DB	026H
	DB	021H
	DB	06H
	DB	021H
	DB	026H
	DB	021H
	DB	026H
	DB	021H
	DB	06H
	DB	021H
	DB	026H
	DB	021H
	DB	026H
	DB	021H
	DB	026H
	DB	021H
	DB	026H
	DB	021H
	DB	05H
	DB	019H
	DB	0e5H
	DB	018H
	DB	026H
	DB	021H
	DB	06H
	DB	021H
	DB	06H
	DB	021H
	DB	026H
	DB	021H
	DB	026H
	DB	021H
	DB	026H
	DB	021H
	DB	06H
	DB	019H
	DB	06H
	DB	019H
	DB	026H
	DB	021H
	DB	06H
	DB	019H
	DB	06H
	DB	021H
	DB	026H
	DB	021H
	DB	06H
	DB	019H
	DB	026H
	DB	021H
	DB	06H
	DB	021H
	DB	026H
	DB	021H
	DB	026H
	DB	021H
	DB	026H
	DB	021H
	DB	026H
	DB	021H
	DB	06H
	DB	021H
	DB	026H
	DB	021H
	DB	06H
	DB	021H
	DB	06H
	DB	021H
	DB	06H
	DB	021H
	DB	026H
	DB	021H
	DB	026H
	DB	021H
	DB	026H
	DB	021H
	DB	026H
	DB	021H
	DB	06H
	DB	021H
	DB	06H
	DB	021H
	DB	06H
	DB	021H
	DB	06H
	DB	021H
	DB	026H
	DB	021H
	DB	06H
	DB	021H
	DB	026H
	DB	021H
	DB	06H
	DB	021H
	DB	026H
	DB	021H
	DB	06H
	DB	021H
	DB	026H
	DB	021H
	DB	06H
	DB	021H
	DB	06H
	DB	021H
	DB	06H
	DB	021H
	DB	026H
	DB	021H
	DB	026H
	DB	021H
	DB	026H
	DB	021H
	DB	026H
	DB	021H
	DB	06H
	DB	021H
	DB	06H
	DB	021H
	DB	026H
	DB	021H
	DB	026H
	DB	021H
	DB	026H
	DB	021H
	DB	027H
	DB	021H
	DB	026H
	DB	021H
	DB	06H
	DB	021H
	DB	06H
	DB	021H
	DB	06H
	DB	019H
	DB	026H
	DB	021H
	DB	026H
	DB	021H
	DB	06H
	DB	021H
	DB	06H
	DB	021H
	DB	06H
	DB	019H
	DB	026H
	DB	021H
	DB	026H
	DB	021H
	DB	06H
	DB	021H
	DB	06H
	DB	021H
	DB	026H
	DB	021H
	DB	06H
	DB	021H
	DB	06H
	DB	021H
	DB	026H
	DB	021H
	DB	026H
	DB	021H
	DB	026H
	DB	021H
	DB	026H
	DB	021H
	DB	026H
	DB	021H
	DB	026H
	DB	021H
	DB	026H
	DB	021H
	DB	026H
	DB	021H
	DB	026H
	DB	021H
	DB	026H
	DB	021H
	DB	06H
	DB	021H
	DB	026H
	DB	021H
	DB	06H
	DB	021H
	DB	06H
	DB	021H
	DB	026H
	DB	021H
	DB	026H
	DB	021H
	DB	026H
	DB	021H
	DB	06H
	DB	021H
	DB	06H
	DB	021H
	DB	06H
	DB	019H
	DB	06H
	DB	021H
	DB	026H
	DB	021H
	DB	06H
	DB	021H
	DB	026H
	DB	021H
	DB	06H
	DB	021H
	DB	026H
	DB	021H
	DB	026H
	DB	021H
	DB	026H
	DB	021H
	DB	026H
	DB	021H
	DB	026H
	DB	021H
	DB	026H
	DB	021H
	DB	06H
	DB	021H
	DB	026H
	DB	021H
	DB	06H
	DB	021H
	DB	06H
	DB	019H
	DB	06H
	DB	021H
	DB	06H
	DB	021H
	DB	026H
	DB	021H
	DB	06H
	DB	021H
	DB	026H
	DB	021H
	DB	06H
	DB	021H
	DB	026H
	DB	021H
	DB	06H
	DB	019H
	DB	06H
	DB	021H
	DB	026H
	DB	021H
	DB	026H
	DB	021H
	DB	06H
	DB	021H
	DB	026H
	DB	021H
	DB	026H
	DB	021H
	DB	06H
	DB	021H
	DB	06H
	DB	021H
	DB	026H
	DB	021H
	DB	026H
	DB	021H
	DB	026H
	DB	021H
	DB	026H
	DB	021H
	DB	06H
	DB	021H
	DB	06H
	DB	021H
	DB	026H
	DB	021H
	DB	026H
	DB	021H
	DB	06H
	DB	019H
	DB	0e5H
	DB	018H
	DB	06H
	DB	021H
	DB	06H
	DB	021H
	DB	026H
	DB	021H
	DB	026H
	DB	021H
	DB	026H
	DB	021H
	DB	06H
	DB	019H
	DB	026H
	DB	021H
	DB	06H
	DB	021H
	DB	026H
	DB	021H
	DB	06H
	DB	021H
	DB	06H
	DB	019H
	DB	026H
	DB	021H
	DB	06H
	DB	021H
	DB	026H
	DB	021H
	DB	026H
	DB	021H
	DB	06H
	DB	021H
	DB	026H
	DB	021H
	DB	027H
	DB	021H
	DB	06H
	DB	021H
	DB	06H
	DB	021H
	DB	06H
	DB	021H
	DB	06H
	DB	019H
	DB	026H
	DB	021H
	DB	06H
	DB	021H
	DB	06H
	DB	021H
	DB	026H
	DB	021H
	DB	026H
	DB	021H
	DB	026H
	DB	021H
	DB	026H
	DB	021H
	DB	06H
	DB	021H
	DB	06H
	DB	021H
	DB	026H
	DB	021H
	DB	06H
	DB	021H
	DB	06H
	DB	019H
	DB	026H
	DB	021H
	DB	06H
	DB	021H
	DB	026H
	DB	021H
	DB	06H
	DB	021H
	DB	026H
	DB	021H
	DB	027H
	DB	021H
	DB	06H
	DB	021H
	DB	06H
	DB	021H
	DB	026H
	DB	021H
	DB	06H
	DB	019H
	DB	026H
	DB	021H
	DB	026H
	DB	021H
	DB	06H
	DB	021H
	DB	06H
	DB	019H
	DB	06H
	DB	021H
	DB	06H
	DB	021H
	DB	06H
	DB	021H
	DB	046H
	DB	021H
	DB	026H
	DB	021H
	DB	06H
	DB	021H
	DB	06H
	DB	019H
	DB	06H
	DB	019H
	DB	06H
	DB	021H
	DB	026H
	DB	021H
	DB	06H
	DB	021H
	DB	06H
	DB	021H
	DB	026H
	DB	021H
	DB	06H
	DB	021H
	DB	026H
	DB	021H
	DB	046H
	DB	021H
	DB	06H
	DB	021H
	DB	06H
	DB	019H
	DB	06H
	DB	019H
	DB	06H
	DB	021H
	DB	06H
	DB	019H
	DB	06H
	DB	021H
	DB	026H
	DB	021H
	DB	06H
	DB	021H
	DB	026H
	DB	021H
	DB	06H
	DB	021H
	DB	026H
	DB	021H
	DB	026H
	DB	021H
	DB	06H
	DB	021H
	DB	026H
	DB	021H
	DB	026H
	DB	021H
	DB	06H
	DB	021H
	DB	026H
	DB	021H
	DB	06H
	DB	021H
	DB	026H
	DB	021H
	DB	026H
	DB	021H
	DB	06H
	DB	021H
	DB	06H
	DB	021H
	DB	026H
	DB	021H
	DB	026H
	DB	021H
	DB	06H
	DB	021H
	DB	06H
	DB	019H
	DB	06H
	DB	021H
	DB	026H
	DB	021H
	DB	026H
	DB	021H
	DB	026H
	DB	021H
	DB	026H
	DB	021H
	DB	06H
	DB	021H
	DB	026H
	DB	021H
	DB	026H
	DB	021H
	DB	026H
	DB	021H
	DB	06H
	DB	021H
	DB	06H
	DB	021H
	DB	026H
	DB	021H
	DB	026H
	DB	021H
	DB	06H
	DB	021H
	DB	06H
	DB	021H
	DB	026H
	DB	021H
	DB	06H
	DB	019H
	DB	06H
	DB	021H
	DB	06H
	DB	021H
	DB	026H
	DB	021H
	DB	026H
	DB	021H
	DB	026H
	DB	021H
	DB	026H
	DB	021H
	DB	06H
	DB	021H
	DB	06H
	DB	019H
	DB	026H
	DB	021H
	DB	06H
	DB	021H
	DB	026H
	DB	021H
	DB	026H
	DB	021H
	DB	06H
	DB	021H
	DB	026H
	DB	021H
	DB	026H
	DB	021H
	DB	026H
	DB	021H
	DB	027H
	DB	021H
	DB	026H
	DB	021H
	DB	06H
	DB	021H
	DB	06H
	DB	019H
	DB	026H
	DB	021H
	DB	026H
	DB	021H
	DB	06H
	DB	021H
	DB	026H
	DB	021H
	DB	026H
	DB	021H
	DB	026H
	DB	021H
	DB	026H
	DB	021H
	DB	06H
	DB	021H
	DB	026H
	DB	021H
	DB	026H
	DB	021H
	DB	026H
	DB	021H
	DB	026H
	DB	021H
	DB	026H
	DB	021H
	DB	06H
	DB	021H
	DB	026H
	DB	021H
	DB	026H
	DB	021H
	DB	06H
	DB	021H
	DB	026H
	DB	021H
	DB	026H
	DB	021H
	DB	026H
	DB	021H
	DB	06H
	DB	021H
	DB	026H
	DB	021H
	DB	06H
	DB	021H
	DB	026H
	DB	021H
	DB	027H
	DB	021H
	DB	026H
	DB	021H
	DB	026H
	DB	021H
	DB	06H
	DB	021H
	DB	06H
	DB	021H
	DB	06H
	DB	019H
	DB	06H
	DB	021H
	DB	06H
	DB	021H
	DB	06H
	DB	021H
	DB	06H
	DB	019H
	DB	06H
	DB	021H
	DB	026H
	DB	021H
	DB	06H
	DB	021H
	DB	026H
	DB	021H
	DB	06H
	DB	021H
	DB	06H
	DB	021H
	DB	026H
	DB	021H
	DB	026H
	DB	021H
	DB	06H
	DB	021H
	DB	06H
	DB	021H
	DB	06H
	DB	021H
	DB	06H
	DB	019H
	DB	06H
	DB	021H
	DB	026H
	DB	021H
	DB	027H
	DB	021H
	DB	06H
	DB	021H
	DB	026H
	DB	021H
	DB	027H
	DB	021H
	DB	06H
	DB	021H
	DB	026H
	DB	021H
	DB	06H
	DB	021H
	DB	026H
	DB	021H
	DB	026H
	DB	021H
	DB	06H
	DB	021H
	DB	06H
	DB	021H
	DB	026H
	DB	021H
	DB	026H
	DB	021H
	DB	026H
	DB	021H
	DB	026H
	DB	021H
	DB	026H
	DB	021H
	DB	06H
	DB	021H
	DB	026H
	DB	021H
	DB	06H
	DB	021H
	DB	026H
	DB	021H
	DB	06H
	DB	021H
	DB	06H
	DB	021H
	DB	06H
	DB	019H
	DB	026H
	DB	021H
	DB	026H
	DB	021H
	DB	026H
	DB	021H
	DB	026H
	DB	021H
	DB	06H
	DB	021H
	DB	06H
	DB	021H
	DB	06H
	DB	021H
	DB	06H
	DB	021H
	DB	026H
	DB	021H
	DB	06H
	DB	021H
	DB	026H
	DB	021H
	DB	06H
	DB	021H
	DB	06H
	DB	021H
	DB	026H
	DB	021H
	DB	026H
	DB	021H
	DB	06H
	DB	021H
	DB	026H
	DB	021H
	DB	026H
	DB	021H
	DB	027H
	DB	021H
	DB	026H
	DB	021H
	DB	026H
	DB	021H
	DB	06H
	DB	021H
	DB	06H
	DB	019H
	DB	026H
	DB	021H
	DB	026H
	DB	021H
	DB	06H
	DB	021H
	DB	026H
	DB	021H
	DB	026H
	DB	021H
	DB	026H
	DB	021H
	DB	026H
	DB	021H
	DB	026H
	DB	021H
	DB	06H
	DB	021H
	DB	06H
	DB	019H
	DB	06H
	DB	021H
	DB	026H
	DB	021H
	DB	026H
	DB	021H
	DB	06H
	DB	021H
	DB	026H
	DB	021H
	DB	026H
	DB	021H
	DB	06H
	DB	019H
	DB	026H
	DB	021H
	DB	026H
	DB	021H
	DB	06H
	DB	021H
	DB	06H
	DB	021H
	DB	026H
	DB	021H
	DB	06H
	DB	021H
	DB	026H
	DB	021H
	DB	026H
	DB	021H
	DB	026H
	DB	021H
	DB	026H
	DB	021H
	DB	026H
	DB	021H
	DB	026H
	DB	021H
	DB	06H
	DB	019H
	DB	06H
	DB	021H
	DB	026H
	DB	021H
	DB	06H
	DB	021H
	DB	06H
	DB	019H
	DB	06H
	DB	019H
	DB	06H
	DB	021H
	DB	06H
	DB	021H
	DB	06H
	DB	021H
	DB	026H
	DB	021H
	DB	026H
	DB	021H
	DB	06H
	DB	021H
	DB	026H
	DB	021H
	DB	026H
	DB	021H
	DB	026H
	DB	021H
	DB	06H
	DB	021H
	DB	026H
	DB	021H
	DB	026H
	DB	021H
	DB	06H
	DB	021H
	DB	06H
	DB	021H
	DB	026H
	DB	021H
	DB	06H
	DB	021H
	DB	06H
	DB	021H
	DB	06H
	DB	021H
	DB	06H
	DB	021H
	DB	05H
	DB	019H
	DB	026H
	DB	021H
	DB	026H
	DB	021H
	DB	06H
	DB	021H
	DB	026H
	DB	021H
	DB	026H
	DB	021H
	DB	06H
	DB	021H
	DB	026H
	DB	021H
	DB	026H
	DB	021H
	DB	026H
	DB	021H
	DB	026H
	DB	021H
	DB	026H
	DB	021H
	DB	026H
	DB	021H
	DB	06H
	DB	021H
	DB	06H
	DB	021H
	DB	026H
	DB	021H
	DB	026H
	DB	021H
	DB	06H
	DB	021H
	DB	06H
	DB	021H
	DB	06H
	DB	019H
	DB	05H
	DB	019H
	DB	026H
	DB	021H
	DB	06H
	DB	021H
	DB	06H
	DB	021H
	DB	06H
	DB	021H
	DB	06H
	DB	021H
	DB	026H
	DB	021H
	DB	026H
	DB	021H
	DB	026H
	DB	021H
	DB	026H
	DB	021H
	DB	026H
	DB	021H
	DB	06H
	DB	021H
	DB	026H
	DB	021H
	DB	06H
	DB	021H
	DB	06H
	DB	021H
	DB	06H
	DB	021H
	DB	06H
	DB	021H
	DB	06H
	DB	021H
	DB	06H
	DB	021H
	DB	06H
	DB	019H
	DB	026H
	DB	021H
	DB	026H
	DB	021H
	DB	06H
	DB	021H
	DB	026H
	DB	021H
	DB	026H
	DB	021H
	DB	06H
	DB	021H
	DB	026H
	DB	021H
	DB	06H
	DB	021H
	DB	026H
	DB	021H
	DB	026H
	DB	021H
	DB	06H
	DB	019H
	DB	06H
	DB	021H
	DB	026H
	DB	021H
	DB	06H
	DB	021H
	DB	06H
	DB	019H
	DB	026H
	DB	021H
	DB	026H
	DB	021H
	DB	06H
	DB	019H
	DB	026H
	DB	021H
	DB	026H
	DB	021H
	DB	06H
	DB	021H
	DB	06H
	DB	021H
	DB	026H
	DB	021H
	DB	026H
	DB	021H
	DB	026H
	DB	021H
	DB	026H
	DB	021H
	DB	026H
	DB	021H
	DB	06H
	DB	021H
	DB	026H
	DB	021H
	DB	06H
	DB	021H
	DB	06H
	DB	019H
	DB	026H
	DB	021H
	DB	026H
	DB	021H
	DB	06H
	DB	021H
	DB	026H
	DB	021H
	DB	026H
	DB	021H
	DB	06H
	DB	021H
	DB	026H
	DB	021H
	DB	026H
	DB	021H
	DB	026H
	DB	021H
	DB	026H
	DB	021H
	DB	026H
	DB	021H
	DB	06H
	DB	021H
	DB	06H
	DB	021H
	DB	06H
	DB	021H
	DB	026H
	DB	021H
	DB	06H
	DB	019H
	DB	06H
	DB	021H
	DB	06H
	DB	021H
	DB	026H
	DB	021H
	DB	06H
	DB	019H
	DB	026H
	DB	021H
	DB	06H
	DB	021H
	DB	06H
	DB	019H
	DB	06H
	DB	021H
	DB	026H
	DB	021H
	DB	06H
	DB	021H
	DB	05H
	DB	019H
	DB	026H
	DB	021H
	DB	026H
	DB	021H
	DB	06H
	DB	021H
	DB	06H
	DB	021H
	DB	026H
	DB	021H
	DB	026H
	DB	021H
	DB	026H
	DB	021H
	DB	026H
	DB	021H
	DB	06H
	DB	021H
	DB	026H
	DB	021H
	DB	026H
	DB	021H
	DB	026H
	DB	021H
	DB	026H
	DB	021H
	DB	026H
	DB	021H
	DB	06H
	DB	021H
	DB	026H
	DB	021H
	DB	026H
	DB	021H
	DB	06H
	DB	021H
	DB	026H
	DB	021H
	DB	06H
	DB	019H
	DB	026H
	DB	021H
	DB	026H
	DB	021H
	DB	06H
	DB	021H
	DB	06H
	DB	021H
	DB	06H
	DB	021H
	DB	026H
	DB	021H
	DB	026H
	DB	021H
	DB	06H
	DB	021H
	DB	06H
	DB	021H
	DB	026H
	DB	021H
	DB	027H
	DB	021H
	DB	026H
	DB	021H
	DB	06H
	DB	021H
	DB	06H
	DB	021H
	DB	026H
	DB	021H
	DB	026H
	DB	021H
	DB	06H
	DB	019H
	DB	026H
	DB	021H
	DB	06H
	DB	021H
	DB	06H
	DB	021H
	DB	06H
	DB	019H
	DB	06H
	DB	019H
	DB	06H
	DB	021H
	DB	026H
	DB	021H
	DB	06H
	DB	021H
	DB	026H
	DB	021H
	DB	06H
	DB	021H
	DB	06H
	DB	019H
	DB	06H
	DB	021H
	DB	06H
	DB	021H
	DB	06H
	DB	021H
	DB	026H
	DB	021H
	DB	06H
	DB	021H
	DB	06H
	DB	021H
	DB	026H
	DB	021H
	DB	06H
	DB	021H
	DB	06H
	DB	019H
	DB	06H
	DB	019H
	DB	026H
	DB	021H
	DB	06H
	DB	021H
	DB	06H
	DB	021H
	DB	026H
	DB	021H
	DB	026H
	DB	021H
	DB	06H
	DB	021H
	DB	026H
	DB	021H
	DB	026H
	DB	021H
	DB	06H
	DB	021H
	DB	06H
	DB	021H
	DB	06H
	DB	021H
	DB	06H
	DB	021H
	DB	026H
	DB	021H
	DB	026H
	DB	021H
	DB	06H
	DB	021H
	DB	06H
	DB	021H
	DB	06H
	DB	021H
	DB	06H
	DB	021H
	DB	06H
	DB	021H
	DB	026H
	DB	021H
	DB	026H
	DB	021H
	DB	026H
	DB	021H
	DB	06H
	DB	021H
	DB	026H
	DB	021H
	DB	026H
	DB	021H
	DB	026H
	DB	021H
	DB	026H
	DB	021H
	DB	026H
	DB	021H
	DB	06H
	DB	021H
	DB	06H
	DB	021H
	DB	06H
	DB	021H
	DB	026H
	DB	021H
	DB	026H
	DB	021H
	DB	06H
	DB	021H
	DB	06H
	DB	021H
	DB	026H
	DB	021H
	DB	026H
	DB	021H
	DB	026H
	DB	021H
	DB	06H
	DB	021H
	DB	06H
	DB	021H
	DB	026H
	DB	021H
	DB	026H
	DB	021H
	DB	026H
	DB	021H
	DB	026H
	DB	021H
	DB	026H
	DB	021H
	DB	06H
	DB	021H
	DB	06H
	DB	021H
	DB	06H
	DB	021H
	DB	026H
	DB	021H
	DB	026H
	DB	021H
	DB	06H
	DB	021H
	DB	026H
	DB	021H
	DB	06H
	DB	021H
	DB	026H
	DB	021H
	DB	06H
	DB	021H
	DB	06H
	DB	021H
	DB	06H
	DB	019H
	DB	026H
	DB	021H
	DB	026H
	DB	021H
	DB	06H
	DB	021H
	DB	06H
	DB	019H
	DB	06H
	DB	019H
	DB	06H
	DB	021H
	DB	026H
	DB	021H
	DB	06H
	DB	021H
	DB	06H
	DB	021H
	DB	026H
	DB	021H
	DB	06H
	DB	021H
	DB	026H
	DB	021H
	DB	06H
	DB	019H
	DB	06H
	DB	021H
	DB	026H
	DB	021H
	DB	026H
	DB	021H
	DB	026H
	DB	021H
	DB	026H
	DB	021H
	DB	06H
	DB	021H
	DB	026H
	DB	021H
	DB	026H
	DB	021H
	DB	026H
	DB	021H
	DB	026H
	DB	021H
	DB	06H
	DB	021H
	DB	026H
	DB	021H
	DB	06H
	DB	021H
	DB	06H
	DB	021H
	DB	026H
	DB	021H
	DB	026H
	DB	021H
	DB	06H
	DB	021H
	DB	026H
	DB	021H
	DB	06H
	DB	021H
	DB	06H
	DB	021H
	DB	06H
	DB	021H
	DB	05H
	DB	019H
	DB	06H
	DB	021H
	DB	06H
	DB	021H
	DB	026H
	DB	021H
	DB	06H
	DB	019H
	DB	06H
	DB	021H
	DB	026H
	DB	021H
	DB	026H
	DB	021H
	DB	06H
	DB	019H
	DB	026H
	DB	021H
	DB	06H
	DB	021H
	DB	06H
	DB	019H
	DB	06H
	DB	021H
	DB	06H
	DB	021H
	DB	06H
	DB	021H
	DB	026H
	DB	021H
	DB	026H
	DB	021H
	DB	06H
	DB	021H
	DB	06H
	DB	019H
	DB	026H
	DB	021H
	DB	06H
	DB	021H
	DB	026H
	DB	021H
	DB	026H
	DB	021H
	DB	06H
	DB	021H
	DB	06H
	DB	021H
	DB	026H
	DB	021H
	DB	05H
	DB	021H
	DB	026H
	DB	021H
	DB	026H
	DB	021H
	DB	026H
	DB	021H
	DB	026H
	DB	021H
	DB	06H
	DB	021H
	DB	026H
	DB	021H
	DB	026H
	DB	021H
	DB	06H
	DB	021H
	DB	06H
	DB	021H
	DB	026H
	DB	021H
	DB	06H
	DB	021H
	DB	06H
	DB	021H
	DB	06H
	DB	021H
	DB	06H
	DB	021H
	DB	026H
	DB	021H
	DB	06H
	DB	021H
	DB	026H
	DB	021H
	DB	06H
	DB	019H
	DB	06H
	DB	021H
	DB	026H
	DB	021H
	DB	026H
	DB	021H
	DB	026H
	DB	021H
	DB	026H
	DB	021H
	DB	026H
	DB	021H
	DB	06H
	DB	021H
	DB	06H
	DB	021H
	DB	026H
	DB	021H
	DB	026H
	DB	021H
	DB	026H
	DB	021H
	DB	06H
	DB	021H
	DB	06H
	DB	021H
	DB	026H
	DB	021H
	DB	06H
	DB	021H
	DB	06H
	DB	021H
	DB	06H
	DB	021H
	DB	026H
	DB	021H
	DB	026H
	DB	021H
	DB	026H
	DB	021H
	DB	06H
	DB	021H
	DB	06H
	DB	021H
	DB	026H
	DB	021H
	DB	026H
	DB	021H
	DB	026H
	DB	021H
	DB	026H
	DB	021H
	DB	06H
	DB	021H
	DB	06H
	DB	021H
	DB	026H
	DB	021H
	DB	026H
	DB	021H
	DB	026H
	DB	021H
	DB	06H
	DB	021H
	DB	026H
	DB	021H
	DB	026H
	DB	021H
	DB	06H
	DB	021H
	DB	06H
	DB	021H
	DB	026H
	DB	021H
	DB	027H
	DB	021H
	DB	046H
	DB	021H
	DB	06H
	DB	021H
	DB	06H
	DB	021H
	DB	06H
	DB	021H
	DB	06H
	DB	021H
	DB	026H
	DB	021H
	DB	027H
	DB	021H
	DB	026H
	DB	021H
	DB	026H
	DB	021H
	DB	026H
	DB	021H
	DB	027H
	DB	021H
	DB	026H
	DB	021H
	DB	06H
	DB	019H
	DB	026H
	DB	021H
	DB	027H
	DB	021H
	DB	026H
	DB	021H
	DB	026H
	DB	021H
	DB	06H
	DB	021H
	DB	06H
	DB	021H
	DB	06H
	DB	021H
	DB	026H
	DB	021H
	DB	026H
	DB	021H
	DB	06H
	DB	021H
	DB	026H
	DB	021H
	DB	026H
	DB	021H
	DB	06H
	DB	021H
	DB	026H
	DB	021H
	DB	026H
	DB	021H
	DB	06H
	DB	021H
	DB	06H
	DB	021H
	DB	026H
	DB	021H
	DB	06H
	DB	021H
	DB	026H
	DB	021H
	DB	026H
	DB	021H
	DB	026H
	DB	021H
	DB	026H
	DB	021H
	DB	026H
	DB	021H
	DB	027H
	DB	021H
	DB	026H
	DB	021H
	DB	06H
	DB	021H
	DB	06H
	DB	019H
	DB	06H
	DB	021H
	DB	026H
	DB	021H
	DB	06H
	DB	021H
	DB	026H
	DB	021H
	DB	026H
	DB	021H
	DB	06H
	DB	021H
	DB	026H
	DB	021H
	DB	027H
	DB	021H
	DB	026H
	DB	021H
	DB	026H
	DB	021H
	DB	06H
	DB	021H
	DB	026H
	DB	021H
	DB	06H
	DB	021H
	DB	026H
	DB	021H
	DB	026H
	DB	021H
	DB	026H
	DB	021H
	DB	06H
	DB	021H
	DB	026H
	DB	021H
	DB	026H
	DB	021H
	DB	026H
	DB	021H
	DB	026H
	DB	021H
	DB	026H
	DB	021H
	DB	06H
	DB	021H
	DB	06H
	DB	021H
	DB	026H
	DB	021H
	DB	06H
	DB	021H
	DB	026H
	DB	021H
	DB	026H
	DB	021H
	DB	026H
	DB	021H
	DB	026H
	DB	021H
	DB	026H
	DB	021H
	DB	026H
	DB	021H
	DB	06H
	DB	021H
	DB	06H
	DB	021H
	DB	06H
	DB	021H
	DB	026H
	DB	021H
	DB	06H
	DB	021H
	DB	026H
	DB	021H
	DB	026H
	DB	021H
	DB	026H
	DB	021H
	DB	026H
	DB	021H
	DB	026H
	DB	021H
	DB	06H
	DB	021H
	DB	06H
	DB	019H
	DB	06H
	DB	021H
	DB	026H
	DB	021H
	DB	06H
	DB	021H
	DB	026H
	DB	021H
	DB	026H
	DB	021H
	DB	026H
	DB	021H
	DB	06H
	DB	021H
	DB	06H
	DB	019H
	DB	026H
	DB	021H
	DB	026H
	DB	021H
	DB	06H
	DB	021H
	DB	06H
	DB	021H
	DB	06H
	DB	019H
	DB	06H
	DB	021H
	DB	06H
	DB	021H
	DB	026H
	DB	021H
	DB	026H
	DB	021H
	DB	026H
	DB	021H
	DB	026H
	DB	021H
	DB	026H
	DB	021H
	DB	046H
	DB	021H
	DB	026H
	DB	021H
	DB	06H
	DB	021H
	DB	026H
	DB	021H
	DB	026H
	DB	021H
	DB	06H
	DB	021H
	DB	026H
	DB	021H
	DB	06H
	DB	021H
	DB	026H
	DB	021H
	DB	026H
	DB	021H
	DB	06H
	DB	021H
	DB	026H
	DB	021H
	DB	06H
	DB	019H
	DB	06H
	DB	021H
	DB	06H
	DB	021H
	DB	026H
	DB	021H
	DB	026H
	DB	021H
	DB	06H
	DB	021H
	DB	026H
	DB	021H
	DB	026H
	DB	021H
	DB	06H
	DB	021H
	DB	026H
	DB	021H
	DB	026H
	DB	021H
	DB	06H
	DB	021H
	DB	026H
	DB	021H
	DB	06H
	DB	021H
	DB	026H
	DB	021H
	DB	026H
	DB	021H
	DB	06H
	DB	021H
	DB	06H
	DB	021H
	DB	06H
	DB	021H
	DB	026H
	DB	021H
	DB	06H
	DB	021H
	DB	026H
	DB	021H
	DB	026H
	DB	021H
	DB	027H
	DB	021H
	DB	047H
	DB	021H
	DB	026H
	DB	021H
	DB	06H
	DB	021H
	DB	06H
	DB	021H
	DB	06H
	DB	021H
	DB	026H
	DB	021H
	DB	026H
	DB	021H
	DB	06H
	DB	021H
	DB	06H
	DB	021H
	DB	06H
	DB	021H
	DB	06H
	DB	021H
	DB	026H
	DB	021H
	DB	026H
	DB	021H
	DB	026H
	DB	021H
	DB	06H
	DB	021H
	DB	06H
	DB	021H
	DB	06H
	DB	019H
	DB	06H
	DB	021H
	DB	026H
	DB	021H
	DB	06H
	DB	021H
	DB	06H
	DB	021H
	DB	06H
	DB	021H
	DB	06H
	DB	021H
	DB	026H
	DB	021H
	DB	06H
	DB	019H
	DB	026H
	DB	021H
	DB	026H
	DB	021H
	DB	026H
	DB	021H
	DB	047H
	DB	021H
	DB	06H
	DB	021H
	DB	026H
	DB	021H
	DB	026H
	DB	021H
	DB	06H
	DB	021H
	DB	06H
	DB	021H
	DB	026H
	DB	021H
	DB	026H
	DB	021H
	DB	026H
	DB	021H
	DB	06H
	DB	019H
	DB	06H
	DB	021H
	DB	06H
	DB	021H
	DB	026H
	DB	021H
	DB	06H
	DB	021H
	DB	026H
	DB	021H
	DB	026H
	DB	021H
	DB	026H
	DB	021H
	DB	06H
	DB	019H
	DB	06H
	DB	021H
	DB	026H
	DB	021H
	DB	06H
	DB	021H
	DB	06H
	DB	021H
	DB	06H
	DB	021H
	DB	026H
	DB	021H
	DB	06H
	DB	021H
	DB	026H
	DB	021H
	DB	026H
	DB	021H
	DB	06H
	DB	021H
	DB	026H
	DB	021H
	DB	026H
	DB	021H
	DB	026H
	DB	021H
	DB	06H
	DB	021H
	DB	026H
	DB	021H
	DB	026H
	DB	021H
	DB	06H
	DB	019H
	DB	06H
	DB	021H
	DB	026H
	DB	021H
	DB	06H
	DB	021H
	DB	06H
	DB	021H
	DB	026H
	DB	021H
	DB	026H
	DB	021H
	DB	06H
	DB	021H
	DB	06H
	DB	021H
	DB	06H
	DB	019H
	DB	026H
	DB	021H
	DB	06H
	DB	021H
	DB	06H
	DB	021H
	DB	027H
	DB	021H
	DB	026H
	DB	021H
	DB	06H
	DB	021H
	DB	026H
	DB	021H
	DB	026H
	DB	021H
	DB	06H
	DB	021H
	DB	06H
	DB	021H
	DB	06H
	DB	021H
	DB	026H
	DB	021H
	DB	06H
	DB	021H
	DB	026H
	DB	021H
	DB	026H
	DB	021H
	DB	06H
	DB	021H
	DB	026H
	DB	021H
	DB	026H
	DB	021H
	DB	026H
	DB	021H
	DB	026H
	DB	021H
	DB	026H
	DB	021H
	DB	06H
	DB	021H
	DB	06H
	DB	021H
	DB	026H
	DB	021H
	DB	026H
	DB	021H
	DB	05H
	DB	019H
	DB	026H
	DB	021H
	DB	026H
	DB	021H
	DB	026H
	DB	021H
	DB	06H
	DB	021H
	DB	026H
	DB	021H
	DB	06H
	DB	019H
	DB	06H
	DB	021H
	DB	026H
	DB	021H
	DB	026H
	DB	021H
	DB	06H
	DB	021H
	DB	06H
	DB	021H
	DB	06H
	DB	019H
	DB	026H
	DB	021H
	DB	026H
	DB	021H
	DB	06H
	DB	021H
	DB	026H
	DB	021H
	DB	06H
	DB	021H
	DB	026H
	DB	021H
	DB	06H
	DB	019H
	DB	026H
	DB	021H
	DB	026H
	DB	021H
	DB	06H
	DB	021H
	DB	026H
	DB	021H
	DB	026H
	DB	021H
	DB	027H
	DB	021H
	DB	06H
	DB	021H
	DB	026H
	DB	021H
	DB	06H
	DB	021H
	DB	06H
	DB	021H
	DB	026H
	DB	021H
	DB	026H
	DB	021H
	DB	026H
	DB	021H
	DB	026H
	DB	021H
	DB	026H
	DB	021H
	DB	06H
	DB	021H
	DB	06H
	DB	019H
	DB	06H
	DB	021H
	DB	026H
	DB	021H
	DB	06H
	DB	021H
	DB	06H
	DB	021H
	DB	026H
	DB	021H
	DB	026H
	DB	021H
	DB	026H
	DB	021H
	DB	026H
	DB	021H
	DB	06H
	DB	019H
	DB	06H
	DB	021H
	DB	06H
	DB	021H
	DB	06H
	DB	021H
	DB	06H
	DB	019H
	DB	06H
	DB	021H
	DB	06H
	DB	021H
	DB	06H
	DB	021H
	DB	06H
	DB	021H
	DB	026H
	DB	021H
	DB	026H
	DB	021H
	DB	06H
	DB	021H
	DB	026H
	DB	021H
	DB	026H
	DB	021H
	DB	026H
	DB	021H
	DB	026H
	DB	021H
	DB	06H
	DB	021H
	DB	06H
	DB	019H
	DB	026H
	DB	021H
	DB	026H
	DB	021H
	DB	026H
	DB	021H
	DB	026H
	DB	021H
	DB	06H
	DB	021H
	DB	026H
	DB	021H
	DB	026H
	DB	021H
	DB	026H
	DB	021H
	DB	06H
	DB	021H
	DB	027H
	DB	021H
	DB	026H
	DB	021H
	DB	026H
	DB	021H
	DB	047H
	DB	021H
	DB	026H
	DB	021H
	DB	06H
	DB	019H
	DB	026H
	DB	021H
	DB	026H
	DB	021H
	DB	026H
	DB	021H
	DB	06H
	DB	021H
	DB	06H
	DB	021H
	DB	06H
	DB	019H
	DB	06H
	DB	019H
	DB	06H
	DB	021H
	DB	026H
	DB	021H
	DB	06H
	DB	021H
	DB	06H
	DB	021H
	DB	06H
	DB	021H
	DB	06H
	DB	021H
	DB	06H
	DB	019H
	DB	026H
	DB	021H
	DB	06H
	DB	021H
	DB	06H
	DB	021H
	DB	026H
	DB	021H
	DB	06H
	DB	019H
	DB	026H
	DB	021H
	DB	06H
	DB	021H
	DB	026H
	DB	021H
	DB	06H
	DB	019H
	DB	026H
	DB	021H
	DB	026H
	DB	021H
	DB	026H
	DB	021H
	DB	06H
	DB	021H
	DB	06H
	DB	019H
	DB	026H
	DB	021H
	DB	026H
	DB	021H
	DB	06H
	DB	021H
	DB	06H
	DB	019H
	DB	06H
	DB	021H
	DB	026H
	DB	021H
	DB	06H
	DB	021H
	DB	026H
	DB	021H
	DB	026H
	DB	021H
	DB	06H
	DB	019H
	DB	026H
	DB	021H
	DB	027H
	DB	021H
	DB	026H
	DB	021H
	DB	06H
	DB	021H
	DB	026H
	DB	021H
	DB	026H
	DB	021H
	DB	026H
	DB	021H
	DB	06H
	DB	021H
	DB	06H
	DB	021H
	DB	06H
	DB	021H
	DB	026H
	DB	021H
	DB	06H
	DB	021H
	DB	06H
	DB	021H
	DB	06H
	DB	021H
	DB	026H
	DB	021H
	DB	026H
	DB	021H
	DB	026H
	DB	021H
	DB	06H
	DB	021H
	DB	026H
	DB	021H
	DB	026H
	DB	021H
	DB	026H
	DB	021H
	DB	05H
	DB	019H
	DB	06H
	DB	021H
	DB	026H
	DB	021H
	DB	06H
	DB	021H
	DB	06H
	DB	021H
	DB	06H
	DB	019H
	DB	026H
	DB	021H
	DB	027H
	DB	021H
	DB	06H
	DB	021H
	DB	06H
	DB	021H
	DB	06H
	DB	021H
	DB	06H
	DB	019H
	DB	026H
	DB	021H
	DB	06H
	DB	019H
	DB	06H
	DB	021H
	DB	026H
	DB	021H
	DB	06H
	DB	021H
	DB	06H
	DB	021H
	DB	06H
	DB	019H
	DB	05H
	DB	019H
	DB	026H
	DB	021H
	DB	06H
	DB	021H
	DB	06H
	DB	019H
	DB	026H
	DB	021H
	DB	026H
	DB	021H
	DB	026H
	DB	021H
	DB	026H
	DB	021H
	DB	06H
	DB	021H
	DB	026H
	DB	021H
	DB	026H
	DB	021H
	DB	06H
	DB	021H
	DB	026H
	DB	021H
	DB	06H
	DB	021H
	DB	06H
	DB	021H
	DB	026H
	DB	021H
	DB	06H
	DB	021H
	DB	026H
	DB	021H
	DB	026H
	DB	021H
	DB	026H
	DB	021H
	DB	06H
	DB	021H
	DB	06H
	DB	019H
	DB	06H
	DB	021H
	DB	026H
	DB	021H
	DB	027H
	DB	021H
	DB	026H
	DB	021H
	DB	06H
	DB	021H
	DB	026H
	DB	021H
	DB	026H
	DB	021H
	DB	06H
	DB	021H
	DB	026H
	DB	021H
	DB	06H
	DB	021H
	DB	026H
	DB	021H
	DB	06H
	DB	019H
	DB	06H
	DB	019H
	DB	06H
	DB	021H
	DB	026H
	DB	021H
	DB	026H
	DB	021H
	DB	026H
	DB	021H
	DB	026H
	DB	021H
	DB	06H
	DB	019H
	DB	06H
	DB	019H
	DB	06H
	DB	021H
	DB	026H
	DB	021H
	DB	026H
	DB	021H
	DB	026H
	DB	021H
	DB	026H
	DB	021H
	DB	026H
	DB	021H
	DB	026H
	DB	021H
	DB	026H
	DB	021H
	DB	06H
	DB	021H
	DB	06H
	DB	021H
	DB	06H
	DB	021H
	DB	026H
	DB	021H
	DB	06H
	DB	021H
	DB	06H
	DB	019H
	DB	06H
	DB	019H
	DB	06H
	DB	019H
	DB	06H
	DB	021H
	DB	06H
	DB	019H
	DB	05H
	DB	019H
	DB	06H
	DB	019H
	DB	06H
	DB	019H
	DB	026H
	DB	021H
	DB	06H
	DB	021H
	DB	026H
	DB	021H
	DB	06H
	DB	021H
	DB	026H
	DB	021H
	DB	026H
	DB	021H
	DB	026H
	DB	021H
	DB	027H
	DB	021H
	DB	026H
	DB	021H
	DB	026H
	DB	021H
	DB	06H
	DB	021H
	DB	06H
	DB	021H
	DB	026H
	DB	021H
	DB	06H
	DB	021H
	DB	06H
	DB	019H
	DB	06H
	DB	021H
	DB	026H
	DB	021H
	DB	06H
	DB	019H
	DB	06H
	DB	021H
	DB	026H
	DB	021H
	DB	026H
	DB	021H
	DB	027H
	DB	021H
	DB	026H
	DB	021H
	DB	026H
	DB	021H
	DB	06H
	DB	021H
	DB	06H
	DB	021H
	DB	06H
	DB	019H
	DB	05H
	DB	019H
	DB	026H
	DB	021H
	DB	026H
	DB	021H
	DB	027H
	DB	021H
	DB	047H
	DB	021H
	DB	06H
	DB	021H
	DB	026H
	DB	021H
	DB	026H
	DB	021H
	DB	06H
	DB	021H
	DB	06H
	DB	021H
	DB	06H
	DB	019H
	DB	026H
	DB	021H
	DB	026H
	DB	021H
	DB	026H
	DB	021H
	DB	027H
	DB	021H
	DB	026H
	DB	021H
	DB	026H
	DB	021H
	DB	06H
	DB	021H
	DB	026H
	DB	021H
	DB	06H
	DB	021H
	DB	026H
	DB	021H
	DB	026H
	DB	021H
	DB	026H
	DB	021H
	DB	026H
	DB	021H
	DB	06H
	DB	021H
	DB	026H
	DB	021H
	DB	026H
	DB	021H
	DB	026H
	DB	021H
	DB	026H
	DB	021H
	DB	026H
	DB	021H
	DB	047H
	DB	021H
	DB	027H
	DB	021H
	DB	047H
	DB	029H
	DB	026H
	DB	021H
	DB	06H
	DB	021H
	DB	026H
	DB	021H
	DB	06H
	DB	021H
	DB	06H
	DB	021H
	DB	026H
	DB	021H
	DB	026H
	DB	021H
	DB	027H
	DB	021H
	DB	026H
	DB	021H
	DB	026H
	DB	021H
	DB	06H
	DB	021H
	DB	06H
	DB	021H
	DB	026H
	DB	021H
	DB	026H
	DB	021H
	DB	026H
	DB	021H
	DB	026H
	DB	021H
	DB	026H
	DB	021H
	DB	06H
	DB	021H
	DB	026H
	DB	021H
	DB	047H
	DB	021H
	DB	026H
	DB	021H
	DB	06H
	DB	021H
	DB	06H
	DB	021H
	DB	06H
	DB	021H
	DB	026H
	DB	021H
	DB	06H
	DB	021H
	DB	06H
	DB	021H
	DB	06H
	DB	019H
	DB	06H
	DB	021H
	DB	026H
	DB	021H
	DB	026H
	DB	021H
	DB	026H
	DB	021H
	DB	026H
	DB	021H
	DB	06H
	DB	021H
	DB	026H
	DB	021H
	DB	026H
	DB	021H
	DB	026H
	DB	021H
	DB	026H
	DB	021H
	DB	06H
	DB	021H
	DB	026H
	DB	021H
	DB	026H
	DB	021H
	DB	026H
	DB	021H
	DB	06H
	DB	019H
	DB	026H
	DB	021H
	DB	06H
	DB	021H
	DB	06H
	DB	019H
	DB	06H
	DB	019H
	DB	06H
	DB	021H
	DB	026H
	DB	021H
	DB	026H
	DB	021H
	DB	06H
	DB	021H
	DB	06H
	DB	021H
	DB	06H
	DB	021H
	DB	06H
	DB	021H
	DB	026H
	DB	021H
	DB	06H
	DB	021H
	DB	06H
	DB	021H
	DB	06H
	DB	021H
	DB	06H
	DB	021H
	DB	026H
	DB	021H
	DB	026H
	DB	021H
	DB	026H
	DB	021H
	DB	026H
	DB	021H
	DB	06H
	DB	021H
	DB	06H
	DB	021H
	DB	06H
	DB	021H
	DB	026H
	DB	021H
	DB	026H
	DB	021H
	DB	06H
	DB	021H
	DB	026H
	DB	021H
	DB	06H
	DB	021H
	DB	06H
	DB	019H
	DB	06H
	DB	021H
	DB	026H
	DB	021H
	DB	026H
	DB	021H
	DB	026H
	DB	021H
	DB	06H
	DB	021H
	DB	06H
	DB	019H
	DB	06H
	DB	021H
	DB	06H
	DB	019H
	DB	06H
	DB	019H
	DB	026H
	DB	021H
	DB	06H
	DB	021H
	DB	026H
	DB	021H
	DB	06H
	DB	021H
	DB	06H
	DB	021H
	DB	06H
	DB	021H
	DB	06H
	DB	021H
	DB	06H
	DB	021H
	DB	06H
	DB	021H
	DB	026H
	DB	021H
	DB	06H
	DB	021H
	DB	06H
	DB	019H
	DB	026H
	DB	021H
	DB	06H
	DB	021H
	DB	026H
	DB	021H
	DB	026H
	DB	021H
	DB	026H
	DB	021H
	DB	047H
	DB	021H
	DB	026H
	DB	021H
	DB	06H
	DB	021H
	DB	026H
	DB	021H
	DB	06H
	DB	021H
	DB	06H
	DB	021H
	DB	06H
	DB	021H
	DB	06H
	DB	021H
	DB	06H
	DB	019H
	DB	06H
	DB	021H
	DB	026H
	DB	021H
	DB	06H
	DB	019H
	DB	05H
	DB	019H
	DB	026H
	DB	021H
	DB	026H
	DB	021H
	DB	026H
	DB	021H
	DB	026H
	DB	021H
	DB	026H
	DB	021H
	DB	026H
	DB	021H
	DB	026H
	DB	021H
	DB	026H
	DB	021H
	DB	026H
	DB	021H
	DB	06H
	DB	021H
	DB	06H
	DB	021H
	DB	026H
	DB	021H
	DB	026H
	DB	021H
	DB	026H
	DB	021H
	DB	026H
	DB	021H
	DB	06H
	DB	019H
	DB	06H
	DB	021H
	DB	026H
	DB	021H
	DB	026H
	DB	021H
	DB	06H
	DB	021H
	DB	06H
	DB	021H
	DB	026H
	DB	021H
	DB	026H
	DB	021H
	DB	06H
	DB	021H
	DB	026H
	DB	021H
	DB	026H
	DB	021H
	DB	026H
	DB	021H
	DB	06H
	DB	021H
	DB	06H
	DB	019H
	DB	026H
	DB	021H
	DB	026H
	DB	021H
	DB	06H
	DB	021H
	DB	06H
	DB	019H
	DB	06H
	DB	019H
	DB	026H
	DB	021H
	DB	06H
	DB	021H
	DB	026H
	DB	021H
	DB	026H
	DB	021H
	DB	06H
	DB	019H
	DB	06H
	DB	021H
	DB	026H
	DB	021H
	DB	026H
	DB	021H
	DB	026H
	DB	021H
	DB	026H
	DB	021H
	DB	027H
	DB	021H
	DB	06H
	DB	021H
	DB	026H
	DB	021H
	DB	026H
	DB	021H
	DB	06H
	DB	021H
	DB	06H
	DB	021H
	DB	026H
	DB	021H
	DB	026H
	DB	021H
	DB	06H
	DB	021H
	DB	06H
	DB	021H
	DB	026H
	DB	021H
	DB	026H
	DB	021H
	DB	06H
	DB	021H
	DB	026H
	DB	021H
	DB	026H
	DB	021H
	DB	06H
	DB	021H
	DB	026H
	DB	021H
	DB	06H
	DB	021H
	DB	026H
	DB	021H
	DB	06H
	DB	021H
	DB	0e5H
	DB	018H
	DB	06H
	DB	021H
	DB	026H
	DB	021H
	DB	026H
	DB	021H
	DB	026H
	DB	021H
	DB	026H
	DB	021H
	DB	06H
	DB	019H
	DB	06H
	DB	021H
	DB	06H
	DB	019H
	DB	026H
	DB	021H
	DB	026H
	DB	021H
	DB	026H
	DB	021H
	DB	026H
	DB	021H
	DB	026H
	DB	021H
	DB	06H
	DB	021H
	DB	06H
	DB	019H
	DB	06H
	DB	021H
	DB	026H
	DB	021H
	DB	026H
	DB	021H
	DB	06H
	DB	021H
	DB	06H
	DB	021H
	DB	026H
	DB	021H
	DB	026H
	DB	021H
	DB	06H
	DB	021H
	DB	026H
	DB	021H
	DB	06H
	DB	021H
	DB	06H
	DB	021H
	DB	026H
	DB	021H
	DB	027H
	DB	021H
	DB	06H
	DB	021H
	DB	026H
	DB	021H
	DB	026H
	DB	021H
	DB	06H
	DB	021H
	DB	06H
	DB	021H
	DB	026H
	DB	021H
	DB	026H
	DB	021H
	DB	06H
	DB	019H
	DB	026H
	DB	021H
	DB	026H
	DB	021H
	DB	06H
	DB	019H
	DB	06H
	DB	021H
	DB	06H
	DB	021H
	DB	026H
	DB	021H
	DB	06H
	DB	019H
	DB	06H
	DB	021H
	DB	026H
	DB	021H
	DB	06H
	DB	019H
	DB	06H
	DB	021H
	DB	026H
	DB	021H
	DB	026H
	DB	021H
	DB	026H
	DB	021H
	DB	047H
	DB	021H
	DB	026H
	DB	021H
	DB	026H
	DB	021H
	DB	06H
	DB	021H
	DB	06H
	DB	019H
	DB	06H
	DB	021H
	DB	06H
	DB	019H
	DB	06H
	DB	021H
	DB	026H
	DB	021H
	DB	026H
	DB	021H
	DB	026H
	DB	021H
	DB	026H
	DB	021H
	DB	026H
	DB	021H
	DB	06H
	DB	019H
	DB	06H
	DB	019H
	DB	026H
	DB	021H
	DB	06H
	DB	021H
	DB	06H
	DB	021H
	DB	026H
	DB	021H
	DB	06H
	DB	021H
	DB	026H
	DB	021H
	DB	06H
	DB	021H
	DB	026H
	DB	021H
	DB	06H
	DB	019H
	DB	026H
	DB	021H
	DB	026H
	DB	021H
	DB	06H
	DB	021H
	DB	06H
	DB	021H
	DB	05H
	DB	019H
	DB	026H
	DB	021H
	DB	026H
	DB	021H
	DB	06H
	DB	021H
	DB	026H
	DB	021H
	DB	026H
	DB	021H
	DB	026H
	DB	021H
	DB	06H
	DB	021H
	DB	026H
	DB	021H
	DB	026H
	DB	021H
	DB	06H
	DB	021H
	DB	06H
	DB	021H
	DB	06H
	DB	019H
	DB	06H
	DB	021H
	DB	06H
	DB	021H
	DB	026H
	DB	021H
	DB	026H
	DB	021H
	DB	026H
	DB	021H
	DB	06H
	DB	021H
	DB	06H
	DB	019H
	DB	06H
	DB	019H
	DB	026H
	DB	021H
	DB	026H
	DB	021H
	DB	06H
	DB	021H
	DB	06H
	DB	021H
	DB	026H
	DB	021H
	DB	06H
	DB	019H
	DB	026H
	DB	021H
	DB	06H
	DB	021H
	DB	06H
	DB	019H
	DB	06H
	DB	021H
	DB	026H
	DB	021H
	DB	026H
	DB	021H
	DB	026H
	DB	021H
	DB	026H
	DB	021H
	DB	06H
	DB	021H
	DB	06H
	DB	019H
	DB	06H
	DB	021H
	DB	05H
	DB	019H
	DB	06H
	DB	021H
	DB	06H
	DB	019H
	DB	026H
	DB	021H
	DB	06H
	DB	019H
	DB	06H
	DB	021H
	DB	06H
	DB	019H
	DB	06H
	DB	021H
	DB	026H
	DB	021H
	DB	06H
	DB	021H
	DB	026H
	DB	021H
	DB	026H
	DB	021H
	DB	026H
	DB	021H
	DB	026H
	DB	021H
	DB	026H
	DB	021H
	DB	026H
	DB	021H
	DB	06H
	DB	021H
	DB	026H
	DB	021H
	DB	026H
	DB	021H
	DB	06H
	DB	021H
	DB	06H
	DB	021H
	DB	06H
	DB	021H
	DB	026H
	DB	021H
	DB	026H
	DB	021H
	DB	06H
	DB	021H
	DB	026H
	DB	021H
	DB	026H
	DB	021H
	DB	026H
	DB	021H
	DB	026H
	DB	021H
	DB	026H
	DB	021H
	DB	026H
	DB	021H
	DB	026H
	DB	021H
	DB	06H
	DB	021H
	DB	06H
	DB	019H
	DB	06H
	DB	021H
	DB	06H
	DB	021H
	DB	026H
	DB	021H
	DB	026H
	DB	021H
	DB	06H
	DB	021H
	DB	06H
	DB	021H
	DB	06H
	DB	019H
	DB	06H
	DB	021H
	DB	026H
	DB	021H
	DB	026H
	DB	021H
	DB	026H
	DB	021H
	DB	026H
	DB	021H
	DB	026H
	DB	021H
	DB	027H
	DB	021H
	DB	026H
	DB	021H
	DB	06H
	DB	021H
	DB	026H
	DB	021H
	DB	06H
	DB	021H
	DB	06H
	DB	019H
	DB	026H
	DB	021H
	DB	026H
	DB	021H
	DB	026H
	DB	021H
	DB	026H
	DB	021H
	DB	026H
	DB	021H
	DB	06H
	DB	021H
	DB	026H
	DB	021H
	DB	026H
	DB	021H
	DB	06H
	DB	019H
	DB	026H
	DB	021H
	DB	06H
	DB	021H
	DB	06H
	DB	021H
	DB	026H
	DB	021H
	DB	026H
	DB	021H
	DB	026H
	DB	021H
	DB	026H
	DB	021H
	DB	026H
	DB	021H
	DB	06H
	DB	021H
	DB	06H
	DB	021H
	DB	026H
	DB	021H
	DB	06H
	DB	021H
	DB	0e5H
	DB	018H
	DB	06H
	DB	021H
	DB	06H
	DB	021H
	DB	0e5H
	DB	018H
	DB	06H
	DB	021H
	DB	026H
	DB	021H
	DB	026H
	DB	021H
	DB	05H
	DB	019H
	DB	026H
	DB	021H
	DB	026H
	DB	021H
	DB	06H
	DB	019H
	DB	026H
	DB	021H
	DB	026H
	DB	021H
	DB	06H
	DB	021H
	DB	06H
	DB	019H
	DB	06H
	DB	019H
	DB	06H
	DB	021H
	DB	026H
	DB	021H
	DB	06H
	DB	021H
	DB	026H
	DB	021H
	DB	026H
	DB	021H
	DB	06H
	DB	021H
	DB	06H
	DB	021H
	DB	026H
	DB	021H
	DB	047H
	DB	021H
	DB	026H
	DB	021H
	DB	026H
	DB	021H
	DB	026H
	DB	021H
	DB	027H
	DB	021H
	DB	026H
	DB	021H
	DB	026H
	DB	021H
	DB	046H
	DB	021H
	DB	047H
	DB	029H
	DB	026H
	DB	021H
	DB	026H
	DB	021H
	DB	026H
	DB	021H
	DB	026H
	DB	021H
	DB	06H
	DB	021H
	DB	06H
	DB	021H
	DB	026H
	DB	021H
	DB	06H
	DB	021H
	DB	06H
	DB	019H
	DB	06H
	DB	019H
	DB	06H
	DB	021H
	DB	06H
	DB	021H
	DB	026H
	DB	021H
	DB	026H
	DB	021H
	DB	026H
	DB	021H
	DB	026H
	DB	021H
	DB	026H
	DB	021H
	DB	026H
	DB	021H
	DB	026H
	DB	021H
	DB	026H
	DB	021H
	DB	046H
	DB	021H
	DB	06H
	DB	021H
	DB	026H
	DB	021H
	DB	06H
	DB	021H
	DB	026H
	DB	021H
	DB	06H
	DB	021H
	DB	026H
	DB	021H
	DB	026H
	DB	021H
	DB	06H
	DB	021H
	DB	06H
	DB	021H
	DB	06H
	DB	021H
	DB	026H
	DB	021H
	DB	026H
	DB	021H
	DB	06H
	DB	021H
	DB	026H
	DB	021H
	DB	06H
	DB	021H
	DB	026H
	DB	021H
	DB	06H
	DB	021H
	DB	026H
	DB	021H
	DB	027H
	DB	021H
	DB	026H
	DB	021H
	DB	026H
	DB	021H
	DB	026H
	DB	021H
	DB	06H
	DB	021H
	DB	06H
	DB	021H
	DB	046H
	DB	021H
	DB	06H
	DB	021H
	DB	026H
	DB	021H
	DB	06H
	DB	021H
	DB	026H
	DB	021H
	DB	06H
	DB	021H
	DB	06H
	DB	021H
	DB	026H
	DB	021H
	DB	026H
	DB	021H
	DB	026H
	DB	021H
	DB	026H
	DB	021H
	DB	026H
	DB	021H
	DB	06H
	DB	021H
	DB	026H
	DB	021H
	DB	026H
	DB	021H
	DB	027H
	DB	021H
	DB	026H
	DB	021H
	DB	06H
	DB	021H
	DB	026H
	DB	021H
	DB	06H
	DB	021H
	DB	06H
	DB	021H
	DB	026H
	DB	021H
	DB	026H
	DB	021H
	DB	026H
	DB	021H
	DB	026H
	DB	021H
	DB	027H
	DB	021H
	DB	06H
	DB	021H
	DB	06H
	DB	021H
	DB	06H
	DB	021H
	DB	06H
	DB	021H
	DB	06H
	DB	021H
	DB	026H
	DB	021H
	DB	06H
	DB	021H
	DB	026H
	DB	021H
	DB	026H
	DB	021H
	DB	06H
	DB	021H
	DB	026H
	DB	021H
	DB	026H
	DB	021H
	DB	026H
	DB	021H
	DB	026H
	DB	021H
	DB	026H
	DB	021H
	DB	026H
	DB	021H
	DB	06H
	DB	021H
	DB	06H
	DB	021H
	DB	026H
	DB	021H
	DB	026H
	DB	021H
	DB	06H
	DB	021H
	DB	026H
	DB	021H
	DB	026H
	DB	021H
	DB	06H
	DB	021H
	DB	06H
	DB	021H
	DB	026H
	DB	021H
	DB	06H
	DB	021H
	DB	06H
	DB	021H
	DB	06H
	DB	019H
	DB	06H
	DB	019H
	DB	06H
	DB	021H
	DB	026H
	DB	021H
	DB	026H
	DB	021H
	DB	06H
	DB	021H
	DB	026H
	DB	021H
	DB	026H
	DB	021H
	DB	026H
	DB	021H
	DB	026H
	DB	021H
	DB	026H
	DB	021H
	DB	026H
	DB	021H
	DB	026H
	DB	021H
	DB	06H
	DB	021H
	DB	026H
	DB	021H
	DB	06H
	DB	019H
	DB	026H
	DB	021H
	DB	06H
	DB	021H
	DB	026H
	DB	021H
	DB	06H
	DB	019H
	DB	06H
	DB	019H
	DB	06H
	DB	019H
	DB	026H
	DB	021H
	DB	06H
	DB	021H
	DB	06H
	DB	021H
	DB	06H
	DB	021H
	DB	06H
	DB	021H
	DB	026H
	DB	021H
	DB	026H
	DB	021H
	DB	026H
	DB	021H
	DB	06H
	DB	021H
	DB	06H
	DB	021H
	DB	026H
	DB	021H
	DB	026H
	DB	021H
	DB	06H
	DB	019H
	DB	06H
	DB	021H
	DB	047H
	DB	021H
	DB	026H
	DB	021H
	DB	026H
	DB	021H
	DB	06H
	DB	021H
	DB	06H
	DB	021H
	DB	06H
	DB	021H
	DB	026H
	DB	021H
	DB	026H
	DB	021H
	DB	026H
	DB	021H
	DB	026H
	DB	021H
	DB	06H
	DB	021H
	DB	06H
	DB	021H
	DB	026H
	DB	021H
	DB	026H
	DB	021H
	DB	027H
	DB	021H
	DB	06H
	DB	021H
	DB	026H
	DB	021H
	DB	026H
	DB	021H
	DB	027H
	DB	021H
	DB	026H
	DB	021H
	DB	06H
	DB	021H
	DB	026H
	DB	021H
	DB	026H
	DB	021H
	DB	026H
	DB	021H
	DB	026H
	DB	021H
	DB	06H
	DB	021H
	DB	026H
	DB	021H
	DB	06H
	DB	021H
	DB	05H
	DB	019H
	DB	0e6H
	DB	018H
	DB	026H
	DB	021H
	DB	06H
	DB	019H
	DB	026H
	DB	021H
	DB	06H
	DB	019H
	DB	026H
	DB	021H
	DB	026H
	DB	021H
	DB	026H
	DB	021H
	DB	06H
	DB	021H
	DB	06H
	DB	021H
	DB	05H
	DB	019H
	DB	06H
	DB	019H
	DB	06H
	DB	021H
	DB	06H
	DB	021H
	DB	026H
	DB	021H
	DB	06H
	DB	021H
	DB	06H
	DB	021H
	DB	026H
	DB	021H
	DB	06H
	DB	021H
	DB	026H
	DB	021H
	DB	026H
	DB	021H
	DB	06H
	DB	021H
	DB	05H
	DB	019H
	DB	026H
	DB	021H
	DB	06H
	DB	019H
	DB	06H
	DB	021H
	DB	06H
	DB	021H
	DB	06H
	DB	021H
	DB	06H
	DB	021H
	DB	06H
	DB	021H
	DB	06H
	DB	019H
	DB	0e5H
	DB	018H
	DB	06H
	DB	021H
	DB	06H
	DB	021H
	DB	026H
	DB	021H
	DB	06H
	DB	021H
	DB	06H
	DB	021H
	DB	026H
	DB	021H
	DB	026H
	DB	021H
	DB	06H
	DB	021H
	DB	06H
	DB	019H
	DB	026H
	DB	021H
	DB	026H
	DB	021H
	DB	026H
	DB	021H
	DB	06H
	DB	019H
	DB	06H
	DB	021H
	DB	026H
	DB	021H
	DB	06H
	DB	021H
	DB	026H
	DB	021H
	DB	06H
	DB	021H
	DB	06H
	DB	021H
	DB	06H
	DB	019H
	DB	06H
	DB	021H
	DB	06H
	DB	021H
	DB	06H
	DB	019H
	DB	06H
	DB	021H
	DB	026H
	DB	021H
	DB	06H
	DB	021H
	DB	06H
	DB	021H
	DB	05H
	DB	019H
	DB	026H
	DB	021H
	DB	026H
	DB	021H
	DB	06H
	DB	021H
	DB	06H
	DB	021H
	DB	06H
	DB	021H
	DB	026H
	DB	021H
	DB	026H
	DB	021H
	DB	026H
	DB	021H
	DB	06H
	DB	019H
	DB	026H
	DB	021H
	DB	06H
	DB	021H
	DB	06H
	DB	019H
	DB	06H
	DB	021H
	DB	026H
	DB	021H
	DB	026H
	DB	021H
	DB	06H
	DB	021H
	DB	06H
	DB	021H
	DB	026H
	DB	021H
	DB	026H
	DB	021H
	DB	06H
	DB	021H
	DB	06H
	DB	019H
	DB	06H
	DB	019H
	DB	06H
	DB	021H
	DB	06H
	DB	021H
	DB	06H
	DB	019H
	DB	06H
	DB	021H
	DB	026H
	DB	021H
	DB	026H
	DB	021H
	DB	026H
	DB	021H
	DB	06H
	DB	019H
	DB	06H
	DB	021H
	DB	026H
	DB	021H
	DB	026H
	DB	021H
	DB	026H
	DB	021H
	DB	026H
	DB	021H
	DB	026H
	DB	021H
	DB	026H
	DB	021H
	DB	06H
	DB	021H
	DB	06H
	DB	021H
	DB	026H
	DB	021H
	DB	026H
	DB	021H
	DB	06H
	DB	019H
	DB	06H
	DB	021H
	DB	027H
	DB	021H
	DB	026H
	DB	021H
	DB	06H
	DB	021H
	DB	06H
	DB	021H
	DB	026H
	DB	021H
	DB	026H
	DB	021H
	DB	026H
	DB	021H
	DB	06H
	DB	021H
	DB	06H
	DB	019H
	DB	06H
	DB	021H
	DB	06H
	DB	021H
	DB	026H
	DB	021H
	DB	026H
	DB	021H
	DB	06H
	DB	019H
	DB	026H
	DB	021H
	DB	0e6H
	DB	018H
	DB	06H
	DB	021H
	DB	026H
	DB	021H
	DB	026H
	DB	021H
	DB	06H
	DB	021H
	DB	06H
	DB	019H
	DB	026H
	DB	021H
	DB	026H
	DB	021H
	DB	026H
	DB	021H
	DB	06H
	DB	021H
	DB	026H
	DB	021H
	DB	06H
	DB	021H
	DB	06H
	DB	021H
	DB	06H
	DB	021H
	DB	026H
	DB	021H
	DB	026H
	DB	021H
	DB	026H
	DB	021H
	DB	026H
	DB	021H
	DB	026H
	DB	021H
	DB	026H
	DB	021H
	DB	026H
	DB	021H
	DB	06H
	DB	021H
	DB	026H
	DB	021H
	DB	026H
	DB	021H
	DB	06H
	DB	021H
	DB	0e6H
	DB	018H
	DB	026H
	DB	021H
	DB	026H
	DB	021H
	DB	026H
	DB	021H
	DB	026H
	DB	021H
	DB	026H
	DB	021H
	DB	026H
	DB	021H
	DB	06H
	DB	021H
	DB	06H
	DB	019H
	DB	06H
	DB	021H
	DB	026H
	DB	021H
	DB	06H
	DB	021H
	DB	026H
	DB	021H
	DB	026H
	DB	021H
	DB	026H
	DB	021H
	DB	026H
	DB	021H
	DB	026H
	DB	021H
	DB	026H
	DB	021H
	DB	026H
	DB	021H
	DB	026H
	DB	021H
	DB	06H
	DB	021H
	DB	06H
	DB	021H
	DB	026H
	DB	021H
	DB	026H
	DB	021H
	DB	026H
	DB	021H
	DB	06H
	DB	021H
	DB	026H
	DB	021H
	DB	026H
	DB	021H
	DB	06H
	DB	019H
	DB	026H
	DB	021H
	DB	06H
	DB	021H
	DB	026H
	DB	021H
	DB	026H
	DB	021H
	DB	06H
	DB	021H
	DB	06H
	DB	019H
	DB	06H
	DB	021H
	DB	06H
	DB	021H
	DB	026H
	DB	021H
	DB	026H
	DB	021H
	DB	026H
	DB	021H
	DB	06H
	DB	021H
	DB	06H
	DB	019H
	DB	06H
	DB	021H
	DB	026H
	DB	021H
	DB	026H
	DB	021H
	DB	026H
	DB	021H
	DB	026H
	DB	021H
	DB	026H
	DB	021H
	DB	026H
	DB	021H
	DB	06H
	DB	021H
	DB	06H
	DB	021H
	DB	026H
	DB	021H
	DB	06H
	DB	021H
	DB	026H
	DB	021H
	DB	06H
	DB	021H
	DB	026H
	DB	021H
	DB	06H
	DB	021H
	DB	06H
	DB	021H
	DB	06H
	DB	021H
	DB	06H
	DB	021H
	DB	06H
	DB	021H
	DB	06H
	DB	021H
	DB	026H
	DB	021H
	DB	026H
	DB	021H
	DB	026H
	DB	021H
	DB	06H
	DB	021H
	DB	06H
	DB	021H
	DB	026H
	DB	021H
	DB	06H
	DB	021H
	DB	06H
	DB	021H
	DB	026H
	DB	021H
	DB	06H
	DB	021H
	DB	06H
	DB	021H
	DB	026H
	DB	021H
	DB	026H
	DB	021H
	DB	06H
	DB	021H
	DB	06H
	DB	021H
	DB	026H
	DB	021H
	DB	06H
	DB	021H
	DB	06H
	DB	021H
	DB	026H
	DB	021H
	DB	06H
	DB	021H
	DB	06H
	DB	021H
	DB	026H
	DB	021H
	DB	026H
	DB	021H
	DB	026H
	DB	021H
	DB	027H
	DB	021H
	DB	026H
	DB	021H
	DB	06H
	DB	019H
	DB	06H
	DB	021H
	DB	06H
	DB	021H
	DB	026H
	DB	021H
	DB	026H
	DB	021H
	DB	06H
	DB	021H
	DB	026H
	DB	021H
	DB	06H
	DB	019H
	DB	06H
	DB	021H
	DB	026H
	DB	021H
	DB	06H
	DB	021H
	DB	026H
	DB	021H
	DB	06H
	DB	021H
	DB	026H
	DB	021H
	DB	026H
	DB	021H
	DB	026H
	DB	021H
	DB	026H
	DB	021H
	DB	06H
	DB	021H
	DB	06H
	DB	021H
	DB	06H
	DB	019H
	DB	026H
	DB	021H
	DB	026H
	DB	021H
	DB	026H
	DB	021H
	DB	026H
	DB	021H
	DB	06H
	DB	021H
	DB	026H
	DB	021H
	DB	06H
	DB	019H
	DB	06H
	DB	021H
	DB	026H
	DB	021H
	DB	06H
	DB	021H
	DB	06H
	DB	021H
	DB	026H
	DB	021H
	DB	06H
	DB	021H
	DB	026H
	DB	021H
	DB	06H
	DB	021H
	DB	06H
	DB	021H
	DB	026H
	DB	021H
	DB	06H
	DB	021H
	DB	026H
	DB	021H
	DB	06H
	DB	021H
	DB	026H
	DB	021H
	DB	026H
	DB	021H
	DB	026H
	DB	021H
	DB	026H
	DB	021H
	DB	027H
	DB	021H
	DB	026H
	DB	021H
	DB	026H
	DB	021H
	DB	026H
	DB	021H
	DB	026H
	DB	021H
	DB	026H
	DB	021H
	DB	06H
	DB	019H
	DB	06H
	DB	019H
	DB	026H
	DB	021H
	DB	06H
	DB	021H
	DB	026H
	DB	021H
	DB	06H
	DB	021H
	DB	026H
	DB	021H
	DB	06H
	DB	021H
	DB	06H
	DB	021H
	DB	026H
	DB	021H
	DB	06H
	DB	021H
	DB	06H
	DB	021H
	DB	026H
	DB	021H
	DB	026H
	DB	021H
	DB	06H
	DB	021H
	DB	06H
	DB	021H
	DB	06H
	DB	021H
	DB	06H
	DB	021H
	DB	06H
	DB	021H
	DB	026H
	DB	021H
	DB	026H
	DB	021H
	DB	06H
	DB	019H
	DB	06H
	DB	019H
	DB	026H
	DB	021H
	DB	026H
	DB	021H
	DB	06H
	DB	021H
	DB	06H
	DB	021H
	DB	026H
	DB	021H
	DB	026H
	DB	021H
	DB	06H
	DB	021H
	DB	026H
	DB	021H
	DB	026H
	DB	021H
	DB	06H
	DB	021H
	DB	026H
	DB	021H
	DB	026H
	DB	021H
	DB	026H
	DB	021H
	DB	06H
	DB	021H
	DB	026H
	DB	021H
	DB	027H
	DB	021H
	DB	026H
	DB	021H
	DB	026H
	DB	021H
	DB	06H
	DB	021H
	DB	06H
	DB	021H
	DB	026H
	DB	021H
	DB	026H
	DB	021H
	DB	026H
	DB	021H
	DB	026H
	DB	021H
	DB	06H
	DB	021H
	DB	026H
	DB	021H
	DB	06H
	DB	021H
	DB	026H
	DB	021H
	DB	026H
	DB	021H
	DB	026H
	DB	021H
	DB	026H
	DB	021H
	DB	026H
	DB	021H
	DB	027H
	DB	021H
	DB	026H
	DB	021H
	DB	06H
	DB	019H
	DB	026H
	DB	021H
	DB	026H
	DB	021H
	DB	047H
	DB	021H
	DB	047H
	DB	021H
	DB	06H
	DB	021H
	DB	026H
	DB	021H
	DB	047H
	DB	021H
	DB	026H
	DB	021H
	DB	06H
	DB	021H
	DB	06H
	DB	019H
	DB	026H
	DB	021H
	DB	06H
	DB	021H
	DB	06H
	DB	021H
	DB	026H
	DB	021H
	DB	026H
	DB	021H
	DB	026H
	DB	021H
	DB	026H
	DB	021H
	DB	06H
	DB	019H
	DB	06H
	DB	021H
	DB	06H
	DB	021H
	DB	06H
	DB	021H
	DB	026H
	DB	021H
	DB	026H
	DB	021H
	DB	026H
	DB	021H
	DB	06H
	DB	021H
	DB	026H
	DB	021H
	DB	06H
	DB	021H
	DB	06H
	DB	021H
	DB	026H
	DB	021H
	DB	046H
	DB	021H
	DB	026H
	DB	021H
	DB	026H
	DB	021H
	DB	027H
	DB	021H
	DB	026H
	DB	021H
	DB	06H
	DB	021H
	DB	026H
	DB	021H
	DB	026H
	DB	021H
	DB	027H
	DB	021H
	DB	06H
	DB	021H
	DB	026H
	DB	021H
	DB	026H
	DB	021H
	DB	026H
	DB	021H
	DB	026H
	DB	021H
	DB	047H
	DB	021H
	DB	026H
	DB	021H
	DB	026H
	DB	021H
	DB	026H
	DB	021H
	DB	06H
	DB	021H
	DB	06H
	DB	021H
	DB	026H
	DB	021H
	DB	026H
	DB	021H
	DB	06H
	DB	021H
	DB	06H
	DB	019H
	DB	026H
	DB	021H
	DB	026H
	DB	021H
	DB	026H
	DB	021H
	DB	06H
	DB	021H
	DB	06H
	DB	021H
	DB	026H
	DB	021H
	DB	026H
	DB	021H
	DB	026H
	DB	021H
	DB	06H
	DB	021H
	DB	026H
	DB	021H
	DB	026H
	DB	021H
	DB	026H
	DB	021H
	DB	026H
	DB	021H
	DB	06H
	DB	021H
	DB	047H
	DB	021H
	DB	026H
	DB	021H
	DB	06H
	DB	021H
	DB	026H
	DB	021H
	DB	06H
	DB	021H
	DB	06H
	DB	021H
	DB	026H
	DB	021H
	DB	026H
	DB	021H
	DB	026H
	DB	021H
	DB	026H
	DB	021H
	DB	026H
	DB	021H
	DB	026H
	DB	021H
	DB	06H
	DB	021H
	DB	026H
	DB	021H
	DB	026H
	DB	021H
	DB	026H
	DB	021H
	DB	026H
	DB	021H
	DB	06H
	DB	021H
	DB	06H
	DB	021H
	DB	026H
	DB	021H
	DB	06H
	DB	019H
	DB	06H
	DB	019H
	DB	06H
	DB	021H
	DB	06H
	DB	021H
	DB	026H
	DB	021H
	DB	026H
	DB	021H
	DB	026H
	DB	021H
	DB	027H
	DB	021H
	DB	026H
	DB	021H
	DB	06H
	DB	021H
	DB	06H
	DB	021H
	DB	06H
	DB	021H
	DB	06H
	DB	021H
	DB	026H
	DB	021H
	DB	026H
	DB	021H
	DB	06H
	DB	021H
	DB	06H
	DB	021H
	DB	026H
	DB	021H
	DB	06H
	DB	021H
	DB	06H
	DB	021H
	DB	026H
	DB	021H
	DB	026H
	DB	021H
	DB	026H
	DB	021H
	DB	026H
	DB	021H
	DB	026H
	DB	021H
	DB	026H
	DB	021H
	DB	026H
	DB	021H
	DB	026H
	DB	021H
	DB	06H
	DB	021H
	DB	046H
	DB	021H
	DB	046H
	DB	021H
	DB	026H
	DB	021H
	DB	027H
	DB	021H
	DB	026H
	DB	021H
	DB	027H
	DB	021H
	DB	06H
	DB	019H
	DB	06H
	DB	019H
	DB	026H
	DB	021H
	DB	026H
	DB	021H
	DB	06H
	DB	021H
	DB	06H
	DB	021H
	DB	026H
	DB	021H
	DB	026H
	DB	021H
	DB	026H
	DB	021H
	DB	026H
	DB	021H
	DB	026H
	DB	021H
	DB	06H
	DB	019H
	DB	06H
	DB	021H
	DB	06H
	DB	021H
	DB	06H
	DB	021H
	DB	026H
	DB	021H
	DB	026H
	DB	021H
	DB	026H
	DB	021H
	DB	026H
	DB	021H
	DB	026H
	DB	021H
	DB	026H
	DB	021H
	DB	026H
	DB	021H
	DB	026H
	DB	021H
	DB	06H
	DB	021H
	DB	026H
	DB	021H
	DB	026H
	DB	021H
	DB	06H
	DB	019H
	DB	026H
	DB	021H
	DB	06H
	DB	021H
	DB	06H
	DB	021H
	DB	026H
	DB	021H
	DB	026H
	DB	021H
	DB	026H
	DB	021H
	DB	026H
	DB	021H
	DB	026H
	DB	021H
	DB	06H
	DB	019H
	DB	06H
	DB	019H
	DB	026H
	DB	021H
	DB	026H
	DB	021H
	DB	026H
	DB	021H
	DB	026H
	DB	021H
	DB	06H
	DB	019H
	DB	05H
	DB	021H
	DB	06H
	DB	021H
	DB	026H
	DB	021H
	DB	026H
	DB	021H
	DB	06H
	DB	021H
	DB	06H
	DB	021H
	DB	026H
	DB	021H
	DB	06H
	DB	021H
	DB	06H
	DB	021H
	DB	06H
	DB	021H
	DB	06H
	DB	019H
	DB	06H
	DB	021H
	DB	026H
	DB	021H
	DB	026H
	DB	021H
	DB	026H
	DB	021H
	DB	026H
	DB	021H
	DB	026H
	DB	021H
	DB	026H
	DB	021H
	DB	06H
	DB	021H
	DB	06H
	DB	021H
	DB	06H
	DB	021H
	DB	026H
	DB	021H
	DB	06H
	DB	021H
	DB	026H
	DB	021H
	DB	026H
	DB	021H
	DB	06H
	DB	019H
	DB	06H
	DB	019H
	DB	06H
	DB	021H
	DB	06H
	DB	021H
	DB	06H
	DB	021H
	DB	026H
	DB	021H
	DB	026H
	DB	021H
	DB	026H
	DB	021H
	DB	06H
	DB	021H
	DB	06H
	DB	021H
	DB	06H
	DB	019H
	DB	06H
	DB	019H
	DB	06H
	DB	021H
	DB	026H
	DB	021H
	DB	06H
	DB	021H
	DB	026H
	DB	021H
	DB	06H
	DB	019H
	DB	026H
	DB	021H
	DB	06H
	DB	021H
	DB	026H
	DB	021H
	DB	06H
	DB	021H
	DB	026H
	DB	021H
	DB	026H
	DB	021H
	DB	06H
	DB	021H
	DB	06H
	DB	021H
	DB	06H
	DB	019H
	DB	026H
	DB	021H
	DB	026H
	DB	021H
	DB	026H
	DB	021H
	DB	026H
	DB	021H
	DB	026H
	DB	021H
	DB	026H
	DB	021H
	DB	026H
	DB	021H
	DB	026H
	DB	021H
	DB	026H
	DB	021H
	DB	06H
	DB	021H
	DB	06H
	DB	019H
	DB	05H
	DB	019H
	DB	06H
	DB	021H
	DB	06H
	DB	021H
	DB	026H
	DB	021H
	DB	026H
	DB	021H
	DB	06H
	DB	021H
	DB	06H
	DB	019H
	DB	06H
	DB	021H
	DB	06H
	DB	019H
	DB	027H
	DB	021H
	DB	06H
	DB	021H
	DB	06H
	DB	019H
	DB	06H
	DB	021H
	DB	026H
	DB	021H
	DB	06H
	DB	021H
	DB	06H
	DB	021H
	DB	06H
	DB	021H
	DB	06H
	DB	021H
	DB	06H
	DB	021H
	DB	06H
	DB	021H
	DB	026H
	DB	021H
	DB	026H
	DB	021H
	DB	06H
	DB	021H
	DB	06H
	DB	021H
	DB	06H
	DB	019H
	DB	06H
	DB	021H
	DB	06H
	DB	021H
	DB	06H
	DB	021H
	DB	06H
	DB	021H
	DB	026H
	DB	021H
	DB	06H
	DB	019H
	DB	06H
	DB	021H
	DB	06H
	DB	021H
	DB	06H
	DB	021H
	DB	026H
	DB	021H
	DB	026H
	DB	021H
	DB	026H
	DB	021H
	DB	026H
	DB	021H
	DB	026H
	DB	021H
	DB	026H
	DB	021H
	DB	026H
	DB	021H
	DB	026H
	DB	021H
	DB	06H
	DB	021H
	DB	06H
	DB	021H
	DB	026H
	DB	021H
	DB	06H
	DB	019H
	DB	06H
	DB	021H
	DB	06H
	DB	021H
	DB	026H
	DB	021H
	DB	026H
	DB	021H
	DB	06H
	DB	021H
	DB	026H
	DB	021H
	DB	026H
	DB	021H
	DB	06H
	DB	021H
	DB	026H
	DB	021H
	DB	026H
	DB	021H
	DB	026H
	DB	021H
	DB	06H
	DB	021H
	DB	06H
	DB	021H
	DB	06H
	DB	021H
	DB	026H
	DB	021H
	DB	06H
	DB	021H
	DB	06H
	DB	019H
	DB	026H
	DB	021H
	DB	026H
	DB	021H
	DB	026H
	DB	021H
	DB	06H
	DB	021H
	DB	06H
	DB	019H
	DB	06H
	DB	021H
	DB	026H
	DB	021H
	DB	06H
	DB	021H
	DB	06H
	DB	021H
	DB	06H
	DB	021H
	DB	06H
	DB	021H
	DB	026H
	DB	021H
	DB	06H
	DB	021H
	DB	06H
	DB	021H
	DB	06H
	DB	021H
	DB	06H
	DB	019H
	DB	026H
	DB	021H
	DB	06H
	DB	021H
	DB	06H
	DB	021H
	DB	026H
	DB	021H
	DB	05H
	DB	019H
	DB	026H
	DB	021H
	DB	06H
	DB	021H
	DB	06H
	DB	021H
	DB	06H
	DB	021H
	DB	06H
	DB	021H
	DB	026H
	DB	021H
	DB	027H
	DB	021H
	DB	047H
	DB	021H
	DB	026H
	DB	021H
	DB	06H
	DB	021H
	DB	026H
	DB	021H
	DB	026H
	DB	021H
	DB	026H
	DB	021H
	DB	06H
	DB	021H
	DB	06H
	DB	021H
	DB	06H
	DB	021H
	DB	06H
	DB	021H
	DB	06H
	DB	021H
	DB	026H
	DB	021H
	DB	06H
	DB	021H
	DB	06H
	DB	021H
	DB	06H
	DB	021H
	DB	026H
	DB	021H
	DB	06H
	DB	021H
	DB	06H
	DB	021H
	DB	026H
	DB	021H
	DB	026H
	DB	021H
	DB	026H
	DB	021H
	DB	026H
	DB	021H
	DB	06H
	DB	021H
	DB	026H
	DB	021H
	DB	026H
	DB	021H
	DB	06H
	DB	019H
	DB	06H
	DB	019H
	DB	06H
	DB	021H
	DB	06H
	DB	021H
	DB	026H
	DB	021H
	DB	06H
	DB	019H
	DB	026H
	DB	021H
	DB	026H
	DB	021H
	DB	06H
	DB	021H
	DB	026H
	DB	021H
	DB	026H
	DB	021H
	DB	026H
	DB	021H
	DB	026H
	DB	021H
	DB	05H
	DB	019H
	DB	06H
	DB	021H
	DB	026H
	DB	021H
	DB	06H
	DB	021H
	DB	026H
	DB	021H
	DB	026H
	DB	021H
	DB	026H
	DB	021H
	DB	026H
	DB	021H
	DB	06H
	DB	021H
	DB	06H
	DB	021H
	DB	026H
	DB	021H
	DB	06H
	DB	021H
	DB	06H
	DB	019H
	DB	06H
	DB	021H
	DB	026H
	DB	021H
	DB	06H
	DB	021H
	DB	026H
	DB	021H
	DB	06H
	DB	021H
	DB	026H
	DB	021H
	DB	026H
	DB	021H
	DB	06H
	DB	021H
	DB	026H
	DB	021H
	DB	026H
	DB	021H
	DB	06H
	DB	021H
	DB	06H
	DB	021H
	DB	06H
	DB	019H
	DB	026H
	DB	021H
	DB	026H
	DB	021H
	DB	026H
	DB	021H
	DB	026H
	DB	021H
	DB	06H
	DB	021H
	DB	026H
	DB	021H
	DB	026H
	DB	021H
	DB	06H
	DB	021H
	DB	06H
	DB	021H
	DB	06H
	DB	021H
	DB	06H
	DB	021H
	DB	026H
	DB	021H
	DB	026H
	DB	021H
	DB	06H
	DB	021H
	DB	06H
	DB	021H
	DB	026H
	DB	021H
	DB	026H
	DB	021H
	DB	06H
	DB	021H
	DB	026H
	DB	021H
	DB	06H
	DB	021H
	DB	026H
	DB	021H
	DB	026H
	DB	021H
	DB	06H
	DB	021H
	DB	026H
	DB	021H
	DB	026H
	DB	021H
	DB	06H
	DB	021H
	DB	06H
	DB	019H
	DB	026H
	DB	021H
	DB	06H
	DB	021H
	DB	06H
	DB	021H
	DB	026H
	DB	021H
	DB	026H
	DB	021H
	DB	06H
	DB	021H
	DB	06H
	DB	021H
	DB	06H
	DB	021H
	DB	06H
	DB	021H
	DB	026H
	DB	021H
	DB	026H
	DB	021H
	DB	026H
	DB	021H
	DB	06H
	DB	021H
	DB	06H
	DB	021H
	DB	06H
	DB	021H
	DB	026H
	DB	021H
	DB	026H
	DB	021H
	DB	026H
	DB	021H
	DB	06H
	DB	021H
	DB	026H
	DB	021H
	DB	026H
	DB	021H
	DB	026H
	DB	021H
	DB	06H
	DB	021H
	DB	047H
	DB	021H
	DB	026H
	DB	021H
	DB	026H
	DB	021H
	DB	06H
	DB	021H
	DB	026H
	DB	021H
	DB	026H
	DB	021H
	DB	026H
	DB	021H
	DB	026H
	DB	021H
	DB	026H
	DB	021H
	DB	026H
	DB	021H
	DB	026H
	DB	021H
	DB	06H
	DB	021H
	DB	06H
	DB	021H
	DB	06H
	DB	021H
	DB	06H
	DB	021H
	DB	06H
	DB	021H
	DB	026H
	DB	021H
	DB	06H
	DB	021H
	DB	06H
	DB	021H
	DB	06H
	DB	021H
	DB	06H
	DB	021H
	DB	047H
	DB	021H
	DB	026H
	DB	021H
	DB	06H
	DB	021H
	DB	026H
	DB	021H
	DB	06H
	DB	021H
	DB	027H
	DB	021H
	DB	026H
	DB	021H
	DB	026H
	DB	021H
	DB	026H
	DB	021H
	DB	06H
	DB	021H
	DB	06H
	DB	019H
	DB	06H
	DB	021H
	DB	026H
	DB	021H
	DB	026H
	DB	021H
	DB	06H
	DB	021H
	DB	026H
	DB	021H
	DB	026H
	DB	021H
	DB	026H
	DB	021H
	DB	06H
	DB	021H
	DB	06H
	DB	021H
	DB	026H
	DB	021H
	DB	027H
	DB	021H
	DB	06H
	DB	021H
	DB	026H
	DB	021H
	DB	026H
	DB	021H
	DB	06H
	DB	021H
	DB	06H
	DB	021H
	DB	06H
	DB	021H
	DB	06H
	DB	021H
	DB	026H
	DB	021H
	DB	026H
	DB	021H
	DB	026H
	DB	021H
	DB	06H
	DB	021H
	DB	026H
	DB	021H
	DB	026H
	DB	021H
	DB	026H
	DB	021H
	DB	06H
	DB	021H
	DB	026H
	DB	021H
	DB	026H
	DB	021H
	DB	026H
	DB	021H
	DB	026H
	DB	021H
	DB	026H
	DB	021H
	DB	026H
	DB	021H
	DB	026H
	DB	021H
	DB	06H
	DB	021H
	DB	06H
	DB	021H
	DB	06H
	DB	021H
	DB	06H
	DB	021H
	DB	046H
	DB	021H
	DB	026H
	DB	021H
	DB	026H
	DB	021H
	DB	06H
	DB	021H
	DB	026H
	DB	021H
	DB	06H
	DB	021H
	DB	06H
	DB	021H
	DB	026H
	DB	021H
	DB	026H
	DB	021H
	DB	026H
	DB	021H
	DB	06H
	DB	021H
	DB	06H
	DB	021H
	DB	026H
	DB	021H
	DB	06H
	DB	021H
	DB	047H
	DB	021H
	DB	026H
	DB	021H
	DB	06H
	DB	021H
	DB	026H
	DB	021H
	DB	06H
	DB	021H
	DB	026H
	DB	021H
	DB	06H
	DB	019H
	DB	026H
	DB	021H
	DB	026H
	DB	021H
	DB	026H
	DB	021H
	DB	06H
	DB	021H
	DB	026H
	DB	021H
	DB	026H
	DB	021H
	DB	026H
	DB	021H
	DB	026H
	DB	021H
	DB	06H
	DB	021H
	DB	026H
	DB	021H
	DB	026H
	DB	021H
	DB	026H
	DB	021H
	DB	027H
	DB	021H
	DB	026H
	DB	021H
	DB	026H
	DB	021H
	DB	026H
	DB	021H
	DB	026H
	DB	021H
	DB	06H
	DB	021H
	DB	06H
	DB	021H
	DB	06H
	DB	021H
	DB	026H
	DB	021H
	DB	026H
	DB	021H
	DB	06H
	DB	021H
	DB	06H
	DB	021H
	DB	06H
	DB	021H
	DB	026H
	DB	021H
	DB	026H
	DB	021H
	DB	027H
	DB	021H
	DB	026H
	DB	021H
	DB	026H
	DB	021H
	DB	06H
	DB	019H
	DB	06H
	DB	021H
	DB	026H
	DB	021H
	DB	047H
	DB	021H
	DB	026H
	DB	021H
	DB	026H
	DB	021H
	DB	06H
	DB	021H
	DB	06H
	DB	021H
	DB	026H
	DB	021H
	DB	06H
	DB	021H
	DB	06H
	DB	019H
	DB	06H
	DB	021H
	DB	06H
	DB	021H
	DB	026H
	DB	021H
	DB	026H
	DB	021H
	DB	027H
	DB	021H
	DB	026H
	DB	021H
	DB	026H
	DB	021H
	DB	026H
	DB	021H
	DB	06H
	DB	021H
	DB	026H
	DB	021H
	DB	026H
	DB	021H
	DB	06H
	DB	021H
	DB	06H
	DB	021H
	DB	06H
	DB	021H
	DB	06H
	DB	021H
	DB	06H
	DB	021H
	DB	06H
	DB	019H
	DB	046H
	DB	021H
	DB	026H
	DB	021H
	DB	06H
	DB	021H
	DB	026H
	DB	021H
	DB	026H
	DB	021H
	DB	06H
	DB	021H
	DB	026H
	DB	021H
	DB	026H
	DB	021H
	DB	026H
	DB	021H
	DB	027H
	DB	021H
	DB	026H
	DB	021H
	DB	026H
	DB	021H
	DB	06H
	DB	021H
	DB	047H
	DB	021H
	DB	026H
	DB	021H
	DB	026H
	DB	021H
	DB	026H
	DB	021H
	DB	026H
	DB	021H
	DB	026H
	DB	021H
	DB	026H
	DB	021H
	DB	027H
	DB	021H
	DB	06H
	DB	021H
	DB	026H
	DB	021H
	DB	026H
	DB	021H
	DB	026H
	DB	021H
	DB	026H
	DB	021H
	DB	026H
	DB	021H
	DB	026H
	DB	021H
	DB	026H
	DB	021H
	DB	026H
	DB	021H
	DB	06H
	DB	021H
	DB	06H
	DB	021H
	DB	06H
	DB	021H
	DB	06H
	DB	021H
	DB	06H
	DB	021H
	DB	06H
	DB	021H
	DB	026H
	DB	021H
	DB	06H
	DB	019H
	DB	06H
	DB	021H
	DB	06H
	DB	021H
	DB	06H
	DB	021H
	DB	06H
	DB	021H
	DB	06H
	DB	021H
	DB	06H
	DB	019H
	DB	06H
	DB	021H
	DB	06H
	DB	021H
	DB	06H
	DB	021H
	DB	06H
	DB	021H
	DB	06H
	DB	021H
	DB	026H
	DB	021H
	DB	026H
	DB	021H
	DB	06H
	DB	019H
	DB	06H
	DB	021H
	DB	06H
	DB	021H
	DB	06H
	DB	021H
	DB	026H
	DB	021H
	DB	026H
	DB	021H
	DB	026H
	DB	021H
	DB	026H
	DB	021H
	DB	026H
	DB	021H
	DB	06H
	DB	021H
	DB	026H
	DB	021H
	DB	06H
	DB	021H
	DB	026H
	DB	021H
	DB	026H
	DB	021H
	DB	06H
	DB	021H
	DB	06H
	DB	021H
	DB	026H
	DB	021H
	DB	046H
	DB	021H
	DB	026H
	DB	021H
	DB	026H
	DB	021H
	DB	026H
	DB	021H
	DB	026H
	DB	021H
	DB	026H
	DB	021H
	DB	026H
	DB	021H
	DB	026H
	DB	021H
	DB	026H
	DB	021H
	DB	026H
	DB	021H
	DB	026H
	DB	021H
	DB	06H
	DB	019H
	DB	06H
	DB	021H
	DB	026H
	DB	021H
	DB	026H
	DB	021H
	DB	06H
	DB	021H
	DB	06H
	DB	021H
	DB	026H
	DB	021H
	DB	026H
	DB	021H
	DB	026H
	DB	021H
	DB	026H
	DB	021H
	DB	026H
	DB	021H
	DB	06H
	DB	021H
	DB	06H
	DB	021H
	DB	06H
	DB	021H
	DB	026H
	DB	021H
	DB	026H
	DB	021H
	DB	026H
	DB	021H
	DB	06H
	DB	021H
	DB	06H
	DB	019H
	DB	05H
	DB	019H
	DB	06H
	DB	021H
	DB	05H
	DB	019H
	DB	06H
	DB	021H
	DB	026H
	DB	021H
	DB	026H
	DB	021H
	DB	026H
	DB	021H
	DB	06H
	DB	021H
	DB	06H
	DB	021H
	DB	06H
	DB	021H
	DB	06H
	DB	021H
	DB	06H
	DB	021H
	DB	026H
	DB	021H
	DB	06H
	DB	021H
	DB	026H
	DB	021H
	DB	026H
	DB	021H
	DB	06H
	DB	021H
	DB	06H
	DB	021H
	DB	026H
	DB	021H
	DB	026H
	DB	021H
	DB	026H
	DB	021H
	DB	06H
	DB	021H
	DB	026H
	DB	021H
	DB	027H
	DB	021H
	DB	026H
	DB	021H
	DB	026H
	DB	021H
	DB	026H
	DB	021H
	DB	06H
	DB	021H
	DB	026H
	DB	021H
	DB	026H
	DB	021H
	DB	06H
	DB	021H
	DB	06H
	DB	021H
	DB	026H
	DB	021H
	DB	0e5H
	DB	018H
	DB	06H
	DB	021H
	DB	026H
	DB	021H
	DB	026H
	DB	021H
	DB	06H
	DB	021H
	DB	026H
	DB	021H
	DB	06H
	DB	021H
	DB	06H
	DB	021H
	DB	06H
	DB	021H
	DB	026H
	DB	021H
	DB	026H
	DB	021H
	DB	06H
	DB	021H
	DB	026H
	DB	021H
	DB	026H
	DB	021H
	DB	026H
	DB	021H
	DB	06H
	DB	021H
	DB	06H
	DB	021H
	DB	026H
	DB	021H
	DB	026H
	DB	021H
	DB	026H
	DB	021H
	DB	026H
	DB	021H
	DB	06H
	DB	021H
	DB	026H
	DB	021H
	DB	026H
	DB	021H
	DB	026H
	DB	021H
	DB	026H
	DB	021H
	DB	026H
	DB	021H
	DB	026H
	DB	021H
	DB	026H
	DB	021H
	DB	06H
	DB	021H
	DB	026H
	DB	021H
	DB	026H
	DB	021H
	DB	026H
	DB	021H
	DB	026H
	DB	021H
	DB	06H
	DB	021H
	DB	06H
	DB	021H
	DB	026H
	DB	021H
	DB	06H
	DB	021H
	DB	06H
	DB	019H
	DB	06H
	DB	019H
	DB	06H
	DB	021H
	DB	06H
	DB	021H
	DB	026H
	DB	021H
	DB	026H
	DB	021H
	DB	026H
	DB	021H
	DB	06H
	DB	021H
	DB	06H
	DB	021H
	DB	026H
	DB	021H
	DB	06H
	DB	021H
	DB	06H
	DB	021H
	DB	027H
	DB	021H
	DB	06H
	DB	021H
	DB	026H
	DB	021H
	DB	06H
	DB	021H
	DB	026H
	DB	021H
	DB	06H
	DB	021H
	DB	06H
	DB	019H
	DB	026H
	DB	021H
	DB	026H
	DB	021H
	DB	026H
	DB	021H
	DB	06H
	DB	021H
	DB	06H
	DB	021H
	DB	06H
	DB	021H
	DB	026H
	DB	021H
	DB	026H
	DB	021H
	DB	026H
	DB	021H
	DB	026H
	DB	021H
	DB	06H
	DB	021H
	DB	06H
	DB	019H
	DB	026H
	DB	021H
	DB	026H
	DB	021H
	DB	026H
	DB	021H
	DB	06H
	DB	021H
	DB	026H
	DB	021H
	DB	06H
	DB	021H
	DB	026H
	DB	021H
	DB	06H
	DB	019H
	DB	06H
	DB	019H
	DB	06H
	DB	021H
	DB	026H
	DB	021H
	DB	06H
	DB	021H
	DB	06H
	DB	019H
	DB	06H
	DB	019H
	DB	026H
	DB	021H
	DB	06H
	DB	019H
	DB	026H
	DB	021H
	DB	026H
	DB	021H
	DB	06H
	DB	021H
	DB	06H
	DB	021H
	DB	06H
	DB	021H
	DB	06H
	DB	019H
	DB	026H
	DB	021H
	DB	06H
	DB	021H
	DB	06H
	DB	019H
	DB	06H
	DB	019H
	DB	06H
	DB	019H
	DB	026H
	DB	021H
	DB	026H
	DB	021H
	DB	026H
	DB	021H
	DB	026H
	DB	021H
	DB	06H
	DB	019H
	DB	06H
	DB	021H
	DB	06H
	DB	021H
	DB	026H
	DB	021H
	DB	026H
	DB	021H
	DB	026H
	DB	021H
	DB	026H
	DB	021H
	DB	06H
	DB	021H
	DB	026H
	DB	021H
	DB	026H
	DB	021H
	DB	026H
	DB	021H
	DB	026H
	DB	021H
	DB	026H
	DB	021H
	DB	06H
	DB	021H
	DB	06H
	DB	021H
	DB	026H
	DB	021H
	DB	06H
	DB	019H
	DB	026H
	DB	021H
	DB	06H
	DB	021H
	DB	026H
	DB	021H
	DB	06H
	DB	019H
	DB	06H
	DB	021H
	DB	026H
	DB	021H
	DB	026H
	DB	021H
	DB	06H
	DB	021H
	DB	06H
	DB	021H
	DB	026H
	DB	021H
	DB	06H
	DB	021H
	DB	06H
	DB	019H
	DB	026H
	DB	021H
	DB	047H
	DB	021H
	DB	026H
	DB	021H
	DB	027H
	DB	021H
	DB	06H
	DB	021H
	DB	026H
	DB	021H
	DB	026H
	DB	021H
	DB	026H
	DB	021H
	DB	026H
	DB	021H
	DB	06H
	DB	021H
	DB	026H
	DB	021H
	DB	026H
	DB	021H
	DB	06H
	DB	021H
	DB	06H
	DB	021H
	DB	026H
	DB	021H
	DB	026H
	DB	021H
	DB	026H
	DB	021H
	DB	06H
	DB	021H
	DB	06H
	DB	019H
	DB	06H
	DB	019H
	DB	06H
	DB	021H
	DB	026H
	DB	021H
	DB	026H
	DB	021H
	DB	026H
	DB	021H
	DB	06H
	DB	021H
	DB	026H
	DB	021H
	DB	026H
	DB	021H
	DB	026H
	DB	021H
	DB	026H
	DB	021H
	DB	026H
	DB	021H
	DB	026H
	DB	021H
	DB	06H
	DB	019H
	DB	026H
	DB	021H
	DB	06H
	DB	021H
	DB	06H
	DB	019H
	DB	06H
	DB	019H
	DB	06H
	DB	021H
	DB	026H
	DB	021H
	DB	06H
	DB	021H
	DB	026H
	DB	021H
	DB	06H
	DB	021H
	DB	026H
	DB	021H
	DB	06H
	DB	019H
	DB	06H
	DB	021H
	DB	026H
	DB	021H
	DB	026H
	DB	021H
	DB	026H
	DB	021H
	DB	06H
	DB	021H
	DB	026H
	DB	021H
	DB	026H
	DB	021H
	DB	06H
	DB	021H
	DB	026H
	DB	021H
	DB	026H
	DB	021H
	DB	026H
	DB	021H
	DB	026H
	DB	021H
	DB	06H
	DB	021H
	DB	06H
	DB	021H
	DB	026H
	DB	021H
	DB	06H
	DB	021H
	DB	06H
	DB	021H
	DB	06H
	DB	019H
	DB	06H
	DB	019H
	DB	06H
	DB	021H
	DB	026H
	DB	021H
	DB	026H
	DB	021H
	DB	026H
	DB	021H
	DB	06H
	DB	021H
	DB	026H
	DB	021H
	DB	06H
	DB	019H
	DB	026H
	DB	021H
	DB	06H
	DB	019H
	DB	06H
	DB	019H
	DB	026H
	DB	021H
	DB	06H
	DB	021H
	DB	026H
	DB	021H
	DB	027H
	DB	021H
	DB	06H
	DB	021H
	DB	026H
	DB	021H
	DB	026H
	DB	021H
	DB	06H
	DB	021H
	DB	06H
	DB	021H
	DB	06H
	DB	021H
	DB	026H
	DB	021H
	DB	026H
	DB	021H
	DB	06H
	DB	021H
	DB	026H
	DB	021H
	DB	026H
	DB	021H
	DB	026H
	DB	021H
	DB	026H
	DB	021H
	DB	026H
	DB	021H
	DB	06H
	DB	021H
	DB	026H
	DB	021H
	DB	026H
	DB	021H
	DB	026H
	DB	021H
	DB	06H
	DB	021H
	DB	026H
	DB	021H
	DB	06H
	DB	021H
	DB	027H
	DB	021H
	DB	06H
	DB	021H
	DB	026H
	DB	021H
	DB	047H
	DB	021H
	DB	06H
	DB	021H
	DB	026H
	DB	021H
	DB	026H
	DB	021H
	DB	06H
	DB	021H
	DB	026H
	DB	021H
	DB	026H
	DB	021H
	DB	06H
	DB	021H
	DB	06H
	DB	019H
	DB	06H
	DB	021H
	DB	026H
	DB	021H
	DB	026H
	DB	021H
	DB	027H
	DB	021H
	DB	026H
	DB	021H
	DB	06H
	DB	021H
	DB	06H
	DB	021H
	DB	026H
	DB	021H
	DB	026H
	DB	021H
	DB	026H
	DB	021H
	DB	026H
	DB	021H
	DB	026H
	DB	021H
	DB	027H
	DB	021H
	DB	06H
	DB	021H
	DB	026H
	DB	021H
	DB	026H
	DB	021H
	DB	06H
	DB	021H
	DB	06H
	DB	021H
	DB	06H
	DB	021H
	DB	06H
	DB	021H
	DB	06H
	DB	021H
	DB	026H
	DB	021H
	DB	026H
	DB	021H
	DB	06H
	DB	021H
	DB	026H
	DB	021H
	DB	06H
	DB	021H
	DB	026H
	DB	021H
	DB	026H
	DB	021H
	DB	06H
	DB	021H
	DB	047H
	DB	021H
	DB	026H
	DB	021H
	DB	06H
	DB	019H
	DB	047H
	DB	021H
	DB	06H
	DB	021H
	DB	026H
	DB	021H
	DB	047H
	DB	021H
	DB	06H
	DB	021H
	DB	026H
	DB	021H
	DB	026H
	DB	021H
	DB	026H
	DB	021H
	DB	06H
	DB	021H
	DB	06H
	DB	021H
	DB	06H
	DB	021H
	DB	026H
	DB	021H
	DB	027H
	DB	021H
	DB	047H
	DB	021H
	DB	026H
	DB	021H
	DB	06H
	DB	021H
	DB	026H
	DB	021H
	DB	026H
	DB	021H
	DB	026H
	DB	021H
	DB	06H
	DB	021H
	DB	06H
	DB	021H
	DB	027H
	DB	021H
	DB	026H
	DB	021H
	DB	06H
	DB	021H
	DB	026H
	DB	021H
	DB	026H
	DB	021H
	DB	06H
	DB	021H
	DB	026H
	DB	021H
	DB	06H
	DB	021H
	DB	026H
	DB	021H
	DB	027H
	DB	021H
	DB	026H
	DB	021H
	DB	027H
	DB	021H
	DB	026H
	DB	021H
	DB	06H
	DB	021H
	DB	026H
	DB	021H
	DB	026H
	DB	021H
	DB	026H
	DB	021H
	DB	026H
	DB	021H
	DB	06H
	DB	021H
	DB	026H
	DB	021H
	DB	026H
	DB	021H
	DB	027H
	DB	021H
	DB	026H
	DB	021H
	DB	026H
	DB	021H
	DB	06H
	DB	019H
	DB	06H
	DB	021H
	DB	026H
	DB	021H
	DB	026H
	DB	021H
	DB	06H
	DB	021H
	DB	026H
	DB	021H
	DB	026H
	DB	021H
	DB	026H
	DB	021H
	DB	026H
	DB	021H
	DB	06H
	DB	021H
	DB	027H
	DB	021H
	DB	026H
	DB	021H
	DB	026H
	DB	021H
	DB	027H
	DB	021H
	DB	026H
	DB	021H
	DB	026H
	DB	021H
	DB	026H
	DB	021H
	DB	026H
	DB	021H
	DB	06H
	DB	021H
	DB	026H
	DB	021H
	DB	026H
	DB	021H
	DB	047H
	DB	021H
	DB	06H
	DB	021H
	DB	026H
	DB	021H
	DB	026H
	DB	021H
	DB	027H
	DB	021H
	DB	026H
	DB	021H
	DB	026H
	DB	021H
	DB	027H
	DB	021H
	DB	026H
	DB	021H
	DB	026H
	DB	021H
	DB	06H
	DB	019H
	DB	05H
	DB	021H
	DB	06H
	DB	021H
	DB	026H
	DB	021H
	DB	06H
	DB	019H
	DB	026H
	DB	021H
	DB	026H
	DB	021H
	DB	026H
	DB	021H
	DB	026H
	DB	021H
	DB	06H
	DB	019H
	DB	06H
	DB	021H
	DB	026H
	DB	021H
	DB	027H
	DB	021H
	DB	026H
	DB	021H
	DB	06H
	DB	021H
	DB	026H
	DB	021H
	DB	06H
	DB	021H
	DB	026H
	DB	021H
	DB	047H
	DB	029H
	DB	026H
	DB	021H
	DB	0e6H
	DB	018H
	DB	026H
	DB	021H
	DB	027H
	DB	021H
	DB	026H
	DB	021H
	DB	026H
	DB	021H
	DB	06H
	DB	021H
	DB	026H
	DB	021H
	DB	06H
	DB	021H
	DB	06H
	DB	021H
	DB	026H
	DB	021H
	DB	027H
	DB	021H
	DB	026H
	DB	021H
	DB	026H
	DB	021H
	DB	026H
	DB	021H
	DB	026H
	DB	021H
	DB	06H
	DB	019H
	DB	026H
	DB	021H
	DB	026H
	DB	021H
	DB	06H
	DB	021H
	DB	06H
	DB	021H
	DB	06H
	DB	021H
	DB	05H
	DB	019H
	DB	026H
	DB	021H
	DB	026H
	DB	021H
	DB	026H
	DB	021H
	DB	026H
	DB	021H
	DB	06H
	DB	021H
	DB	026H
	DB	021H
	DB	06H
	DB	019H
	DB	026H
	DB	021H
	DB	06H
	DB	021H
	DB	06H
	DB	019H
	DB	026H
	DB	021H
	DB	026H
	DB	021H
	DB	06H
	DB	021H
	DB	026H
	DB	021H
	DB	026H
	DB	021H
	DB	06H
	DB	019H
	DB	06H
	DB	021H
	DB	026H
	DB	021H
	DB	047H
	DB	021H
	DB	026H
	DB	021H
	DB	06H
	DB	021H
	DB	06H
	DB	019H
	DB	06H
	DB	019H
	DB	026H
	DB	021H
	DB	026H
	DB	021H
	DB	06H
	DB	021H
	DB	026H
	DB	021H
	DB	026H
	DB	021H
	DB	026H
	DB	021H
	DB	027H
	DB	021H
	DB	026H
	DB	021H
	DB	06H
	DB	019H
	DB	06H
	DB	021H
	DB	026H
	DB	021H
	DB	027H
	DB	021H
	DB	06H
	DB	021H
	DB	06H
	DB	021H
	DB	026H
	DB	021H
	DB	026H
	DB	021H
	DB	06H
	DB	021H
	DB	06H
	DB	019H
	DB	06H
	DB	021H
	DB	06H
	DB	021H
	DB	06H
	DB	019H
	DB	06H
	DB	021H
	DB	06H
	DB	019H
	DB	026H
	DB	021H
	DB	026H
	DB	021H
	DB	06H
	DB	021H
	DB	026H
	DB	021H
	DB	026H
	DB	021H
	DB	026H
	DB	021H
	DB	05H
	DB	019H
	DB	06H
	DB	021H
	DB	06H
	DB	021H
	DB	05H
	DB	019H
	DB	06H
	DB	021H
	DB	06H
	DB	019H
	DB	06H
	DB	021H
	DB	06H
	DB	021H
	DB	026H
	DB	021H
	DB	026H
	DB	021H
	DB	06H
	DB	021H
	DB	06H
	DB	021H
	DB	026H
	DB	021H
	DB	026H
	DB	021H
	DB	026H
	DB	021H
	DB	06H
	DB	019H
	DB	026H
	DB	021H
	DB	026H
	DB	021H
	DB	06H
	DB	019H
	DB	06H
	DB	021H
	DB	026H
	DB	021H
	DB	06H
	DB	021H
	DB	026H
	DB	021H
	DB	06H
	DB	019H
	DB	06H
	DB	021H
	DB	06H
	DB	021H
	DB	026H
	DB	021H
	DB	027H
	DB	021H
	DB	06H
	DB	021H
	DB	026H
	DB	021H
	DB	026H
	DB	021H
	DB	06H
	DB	021H
	DB	026H
	DB	021H
	DB	026H
	DB	021H
	DB	026H
	DB	021H
	DB	026H
	DB	021H
	DB	026H
	DB	021H
	DB	026H
	DB	021H
	DB	06H
	DB	019H
	DB	06H
	DB	021H
	DB	026H
	DB	021H
	DB	026H
	DB	021H
	DB	06H
	DB	021H
	DB	06H
	DB	019H
	DB	06H
	DB	021H
	DB	06H
	DB	021H
	DB	026H
	DB	021H
	DB	06H
	DB	019H
	DB	06H
	DB	021H
	DB	026H
	DB	021H
	DB	026H
	DB	021H
	DB	026H
	DB	021H
	DB	026H
	DB	021H
	DB	06H
	DB	021H
	DB	026H
	DB	021H
	DB	026H
	DB	021H
	DB	06H
	DB	019H
	DB	06H
	DB	021H
	DB	06H
	DB	021H
	DB	06H
	DB	021H
	DB	026H
	DB	021H
	DB	06H
	DB	019H
	DB	06H
	DB	021H
	DB	026H
	DB	021H
	DB	06H
	DB	019H
	DB	026H
	DB	021H
	DB	026H
	DB	021H
	DB	026H
	DB	021H
	DB	026H
	DB	021H
	DB	026H
	DB	021H
	DB	06H
	DB	021H
	DB	026H
	DB	021H
	DB	06H
	DB	021H
	DB	027H
	DB	021H
	DB	026H
	DB	021H
	DB	06H
	DB	019H
	DB	06H
	DB	021H
	DB	026H
	DB	021H
	DB	06H
	DB	021H
	DB	06H
	DB	021H
	DB	06H
	DB	021H
	DB	06H
	DB	021H
	DB	06H
	DB	019H
	DB	026H
	DB	021H
	DB	026H
	DB	021H
	DB	06H
	DB	019H
	DB	06H
	DB	021H
	DB	026H
	DB	021H
	DB	026H
	DB	021H
	DB	026H
	DB	021H
	DB	026H
	DB	021H
	DB	026H
	DB	021H
	DB	06H
	DB	019H
	DB	026H
	DB	021H
	DB	06H
	DB	021H
	DB	06H
	DB	021H
	DB	0e5H
	DB	018H
	DB	06H
	DB	021H
	DB	06H
	DB	021H
	DB	06H
	DB	021H
	DB	026H
	DB	021H
	DB	06H
	DB	021H
	DB	026H
	DB	021H
	DB	06H
	DB	021H
	DB	0e5H
	DB	018H
	DB	06H
	DB	021H
	DB	026H
	DB	021H
	DB	026H
	DB	021H
	DB	026H
	DB	021H
	DB	026H
	DB	021H
	DB	06H
	DB	021H
	DB	026H
	DB	021H
	DB	06H
	DB	019H
	DB	06H
	DB	021H
	DB	026H
	DB	021H
	DB	06H
	DB	021H
	DB	06H
	DB	021H
	DB	026H
	DB	021H
	DB	026H
	DB	021H
	DB	06H
	DB	021H
	DB	06H
	DB	021H
	DB	06H
	DB	021H
	DB	026H
	DB	021H
	DB	026H
	DB	021H
	DB	026H
	DB	021H
	DB	06H
	DB	021H
	DB	06H
	DB	021H
	DB	06H
	DB	021H
	DB	026H
	DB	021H
	DB	026H
	DB	021H
	DB	026H
	DB	021H
	DB	06H
	DB	021H
	DB	026H
	DB	021H
	DB	06H
	DB	019H
	DB	06H
	DB	021H
	DB	026H
	DB	021H
	DB	026H
	DB	021H
	DB	06H
	DB	021H
	DB	06H
	DB	019H
	DB	026H
	DB	021H
	DB	026H
	DB	021H
	DB	026H
	DB	021H
	DB	026H
	DB	021H
	DB	026H
	DB	021H
	DB	06H
	DB	021H
	DB	026H
	DB	021H
	DB	06H
	DB	021H
	DB	026H
	DB	021H
	DB	026H
	DB	021H
	DB	026H
	DB	021H
	DB	026H
	DB	021H
	DB	026H
	DB	021H
	DB	026H
	DB	021H
	DB	026H
	DB	021H
	DB	06H
	DB	021H
	DB	06H
	DB	021H
	DB	026H
	DB	021H
	DB	06H
	DB	021H
	DB	06H
	DB	021H
	DB	06H
	DB	021H
	DB	06H
	DB	021H
	DB	026H
	DB	021H
	DB	06H
	DB	021H
	DB	026H
	DB	021H
	DB	06H
	DB	021H
	DB	026H
	DB	021H
	DB	026H
	DB	021H
	DB	06H
	DB	019H
	DB	026H
	DB	021H
	DB	06H
	DB	021H
	DB	06H
	DB	021H
	DB	026H
	DB	021H
	DB	06H
	DB	021H
	DB	026H
	DB	021H
	DB	06H
	DB	021H
	DB	026H
	DB	021H
	DB	026H
	DB	021H
	DB	026H
	DB	021H
	DB	026H
	DB	021H
	DB	06H
	DB	021H
	DB	026H
	DB	021H
	DB	026H
	DB	021H
	DB	026H
	DB	021H
	DB	026H
	DB	021H
	DB	06H
	DB	019H
	DB	06H
	DB	019H
	DB	06H
	DB	021H
	DB	026H
	DB	021H
	DB	06H
	DB	021H
	DB	026H
	DB	021H
	DB	026H
	DB	021H
	DB	026H
	DB	021H
	DB	06H
	DB	021H
	DB	06H
	DB	021H
	DB	026H
	DB	021H
	DB	06H
	DB	019H
	DB	06H
	DB	021H
	DB	026H
	DB	021H
	DB	06H
	DB	019H
	DB	026H
	DB	021H
	DB	026H
	DB	021H
	DB	06H
	DB	021H
	DB	026H
	DB	021H
	DB	026H
	DB	021H
	DB	026H
	DB	021H
	DB	06H
	DB	021H
	DB	06H
	DB	021H
	DB	026H
	DB	021H
	DB	06H
	DB	019H
	DB	06H
	DB	021H
	DB	06H
	DB	021H
	DB	026H
	DB	021H
	DB	026H
	DB	021H
	DB	026H
	DB	021H
	DB	026H
	DB	021H
	DB	06H
	DB	021H
	DB	06H
	DB	021H
	DB	06H
	DB	019H
	DB	026H
	DB	021H
	DB	06H
	DB	021H
	DB	026H
	DB	021H
	DB	06H
	DB	021H
	DB	026H
	DB	021H
	DB	026H
	DB	021H
	DB	026H
	DB	021H
	DB	026H
	DB	021H
	DB	026H
	DB	021H
	DB	06H
	DB	021H
	DB	06H
	DB	019H
	DB	06H
	DB	021H
	DB	026H
	DB	021H
	DB	026H
	DB	021H
	DB	0e6H
	DB	018H
	DB	06H
	DB	021H
	DB	026H
	DB	021H
	DB	026H
	DB	021H
	DB	026H
	DB	021H
	DB	06H
	DB	021H
	DB	06H
	DB	021H
	DB	026H
	DB	021H
	DB	06H
	DB	021H
	DB	026H
	DB	021H
	DB	026H
	DB	021H
	DB	026H
	DB	021H
	DB	06H
	DB	019H
	DB	026H
	DB	021H
	DB	026H
	DB	021H
	DB	026H
	DB	021H
	DB	026H
	DB	021H
	DB	06H
	DB	021H
	DB	06H
	DB	019H
	DB	06H
	DB	021H
	DB	026H
	DB	021H
	DB	026H
	DB	021H
	DB	06H
	DB	021H
	DB	026H
	DB	021H
	DB	06H
	DB	019H
	DB	06H
	DB	021H
	DB	026H
	DB	021H
	DB	06H
	DB	019H
	DB	026H
	DB	021H
	DB	026H
	DB	021H
	DB	026H
	DB	021H
	DB	06H
	DB	021H
	DB	06H
	DB	021H
	DB	026H
	DB	021H
	DB	026H
	DB	021H
	DB	06H
	DB	021H
	DB	06H
	DB	021H
	DB	026H
	DB	021H
	DB	06H
	DB	021H
	DB	026H
	DB	021H
	DB	06H
	DB	021H
	DB	026H
	DB	021H
	DB	026H
	DB	021H
	DB	06H
	DB	021H
	DB	026H
	DB	021H
	DB	026H
	DB	021H
	DB	06H
	DB	021H
	DB	026H
	DB	021H
	DB	026H
	DB	021H
	DB	026H
	DB	021H
	DB	026H
	DB	021H
	DB	026H
	DB	021H
	DB	026H
	DB	021H
	DB	027H
	DB	021H
	DB	06H
	DB	021H
	DB	026H
	DB	021H
	DB	026H
	DB	021H
	DB	026H
	DB	021H
	DB	06H
	DB	021H
	DB	026H
	DB	021H
	DB	026H
	DB	021H
	DB	06H
	DB	021H
	DB	026H
	DB	021H
	DB	026H
	DB	021H
	DB	026H
	DB	021H
	DB	026H
	DB	021H
	DB	026H
	DB	021H
	DB	027H
	DB	021H
	DB	026H
	DB	021H
	DB	06H
	DB	021H
	DB	06H
	DB	019H
	DB	027H
	DB	021H
	DB	026H
	DB	021H
	DB	027H
	DB	021H
	DB	026H
	DB	021H
	DB	026H
	DB	021H
	DB	026H
	DB	021H
	DB	026H
	DB	021H
	DB	06H
	DB	021H
	DB	06H
	DB	021H
	DB	026H
	DB	021H
	DB	06H
	DB	021H
	DB	026H
	DB	021H
	DB	047H
	DB	021H
	DB	026H
	DB	021H
	DB	06H
	DB	021H
	DB	027H
	DB	021H
	DB	047H
	DB	021H
	DB	026H
	DB	021H
	DB	026H
	DB	021H
	DB	026H
	DB	021H
	DB	026H
	DB	021H
	DB	06H
	DB	021H
	DB	06H
	DB	021H
	DB	026H
	DB	021H
	DB	026H
	DB	021H
	DB	026H
	DB	021H
	DB	026H
	DB	021H
	DB	047H
	DB	021H
	DB	026H
	DB	021H
	DB	026H
	DB	021H
	DB	06H
	DB	021H
	DB	06H
	DB	021H
	DB	06H
	DB	021H
	DB	06H
	DB	021H
	DB	06H
	DB	019H
	DB	026H
	DB	021H
	DB	06H
	DB	021H
	DB	06H
	DB	021H
	DB	026H
	DB	021H
	DB	026H
	DB	021H
	DB	026H
	DB	021H
	DB	026H
	DB	021H
	DB	027H
	DB	021H
	DB	027H
	DB	021H
	DB	026H
	DB	021H
	DB	026H
	DB	021H
	DB	026H
	DB	021H
	DB	06H
	DB	021H
	DB	026H
	DB	021H
	DB	026H
	DB	021H
	DB	027H
	DB	021H
	DB	026H
	DB	021H
	DB	026H
	DB	021H
	DB	027H
	DB	021H
	DB	026H
	DB	021H
	DB	026H
	DB	021H
	DB	026H
	DB	021H
	DB	026H
	DB	021H
	DB	027H
	DB	021H
	DB	047H
	DB	029H
	DB	047H
	DB	021H
	DB	026H
	DB	021H
	DB	026H
	DB	021H
	DB	026H
	DB	021H
	DB	047H
	DB	029H
	DB	026H
	DB	021H
	DB	06H
	DB	021H
	DB	06H
	DB	021H
	DB	026H
	DB	021H
	DB	06H
	DB	021H
	DB	026H
	DB	021H
	DB	047H
	DB	021H
	DB	06H
	DB	021H
	DB	026H
	DB	021H
	DB	026H
	DB	021H
	DB	026H
	DB	021H
	DB	06H
	DB	021H
	DB	026H
	DB	021H
	DB	026H
	DB	021H
	DB	026H
	DB	021H
	DB	026H
	DB	021H
	DB	06H
	DB	021H
	DB	026H
	DB	021H
	DB	026H
	DB	021H
	DB	026H
	DB	021H
	DB	06H
	DB	021H
	DB	026H
	DB	021H
	DB	026H
	DB	021H
	DB	027H
	DB	021H
	DB	026H
	DB	021H
	DB	06H
	DB	021H
	DB	026H
	DB	021H
	DB	027H
	DB	021H
	DB	026H
	DB	021H
	DB	06H
	DB	021H
	DB	06H
	DB	021H
	DB	026H
	DB	021H
	DB	026H
	DB	021H
	DB	027H
	DB	021H
	DB	026H
	DB	021H
	DB	06H
	DB	021H
	DB	026H
	DB	021H
	DB	047H
	DB	021H
	DB	026H
	DB	021H
	DB	06H
	DB	021H
	DB	026H
	DB	021H
	DB	026H
	DB	021H
	DB	047H
	DB	029H
	DB	026H
	DB	021H
	DB	06H
	DB	021H
	DB	06H
	DB	021H
	DB	026H
	DB	021H
	DB	026H
	DB	021H
	DB	06H
	DB	021H
	DB	026H
	DB	021H
	DB	027H
	DB	021H
	DB	027H
	DB	021H
	DB	026H
	DB	021H
	DB	026H
	DB	021H
	DB	026H
	DB	021H
	DB	047H
	DB	021H
	DB	026H
	DB	021H
	DB	06H
	DB	019H
	DB	06H
	DB	021H
	DB	026H
	DB	021H
	DB	06H
	DB	021H
	DB	026H
	DB	021H
	DB	06H
	DB	019H
	DB	026H
	DB	021H
	DB	026H
	DB	021H
	DB	026H
	DB	021H
	DB	06H
	DB	021H
	DB	06H
	DB	021H
	DB	026H
	DB	021H
	DB	026H
	DB	021H
	DB	06H
	DB	021H
	DB	06H
	DB	021H
	DB	06H
	DB	021H
	DB	06H
	DB	019H
	DB	06H
	DB	021H
	DB	06H
	DB	021H
	DB	05H
	DB	019H
	DB	06H
	DB	021H
	DB	026H
	DB	021H
	DB	06H
	DB	021H
	DB	026H
	DB	021H
	DB	026H
	DB	021H
	DB	027H
	DB	021H
	DB	026H
	DB	021H
	DB	06H
	DB	021H
	DB	026H
	DB	021H
	DB	06H
	DB	021H
	DB	0e6H
	DB	018H
	DB	026H
	DB	021H
	DB	026H
	DB	021H
	DB	06H
	DB	021H
	DB	026H
	DB	021H
	DB	06H
	DB	021H
	DB	026H
	DB	021H
	DB	026H
	DB	021H
	DB	026H
	DB	021H
	DB	06H
	DB	021H
	DB	06H
	DB	019H
	DB	06H
	DB	019H
	DB	06H
	DB	021H
	DB	026H
	DB	021H
	DB	026H
	DB	021H
	DB	06H
	DB	019H
	DB	026H
	DB	021H
	DB	026H
	DB	021H
	DB	026H
	DB	021H
	DB	06H
	DB	021H
	DB	06H
	DB	021H
	DB	026H
	DB	021H
	DB	06H
	DB	021H
	DB	06H
	DB	019H
	DB	06H
	DB	019H
	DB	026H
	DB	021H
	DB	06H
	DB	021H
	DB	026H
	DB	021H
	DB	026H
	DB	021H
	DB	06H
	DB	021H
	DB	06H
	DB	021H
	DB	06H
	DB	021H
	DB	06H
	DB	021H
	DB	026H
	DB	021H
	DB	026H
	DB	021H
	DB	026H
	DB	021H
	DB	026H
	DB	021H
	DB	026H
	DB	021H
	DB	026H
	DB	021H
	DB	06H
	DB	021H
	DB	026H
	DB	021H
	DB	06H
	DB	019H
	DB	06H
	DB	021H
	DB	06H
	DB	019H
	DB	06H
	DB	021H
	DB	06H
	DB	019H
	DB	06H
	DB	019H
	DB	026H
	DB	021H
	DB	06H
	DB	021H
	DB	06H
	DB	019H
	DB	06H
	DB	021H
	DB	06H
	DB	021H
	DB	026H
	DB	021H
	DB	06H
	DB	019H
	DB	06H
	DB	021H
	DB	06H
	DB	021H
	DB	026H
	DB	021H
	DB	026H
	DB	021H
	DB	026H
	DB	021H
	DB	026H
	DB	021H
	DB	026H
	DB	021H
	DB	06H
	DB	021H
	DB	06H
	DB	021H
	DB	06H
	DB	021H
	DB	026H
	DB	021H
	DB	026H
	DB	021H
	DB	06H
	DB	019H
	DB	06H
	DB	021H
	DB	026H
	DB	021H
	DB	05H
	DB	019H
	DB	06H
	DB	021H
	DB	06H
	DB	021H
	DB	026H
	DB	021H
	DB	026H
	DB	021H
	DB	026H
	DB	021H
	DB	06H
	DB	019H
	DB	06H
	DB	021H
	DB	06H
	DB	019H
	DB	06H
	DB	021H
	DB	06H
	DB	019H
	DB	06H
	DB	021H
	DB	026H
	DB	021H
	DB	026H
	DB	021H
	DB	026H
	DB	021H
	DB	026H
	DB	021H
	DB	06H
	DB	021H
	DB	026H
	DB	021H
	DB	06H
	DB	019H
	DB	06H
	DB	021H
	DB	06H
	DB	021H
	DB	06H
	DB	021H
	DB	027H
	DB	021H
	DB	06H
	DB	021H
	DB	026H
	DB	021H
	DB	026H
	DB	021H
	DB	026H
	DB	021H
	DB	06H
	DB	019H
	DB	026H
	DB	021H
	DB	06H
	DB	021H
	DB	026H
	DB	021H
	DB	026H
	DB	021H
	DB	06H
	DB	021H
	DB	026H
	DB	021H
	DB	06H
	DB	019H
	DB	026H
	DB	021H
	DB	026H
	DB	021H
	DB	026H
	DB	021H
	DB	026H
	DB	021H
	DB	026H
	DB	021H
	DB	026H
	DB	021H
	DB	026H
	DB	021H
	DB	026H
	DB	021H
	DB	026H
	DB	021H
	DB	06H
	DB	021H
	DB	026H
	DB	021H
	DB	06H
	DB	021H
	DB	06H
	DB	019H
	DB	026H
	DB	021H
	DB	026H
	DB	021H
	DB	027H
	DB	021H
	DB	026H
	DB	021H
	DB	06H
	DB	019H
	DB	026H
	DB	021H
	DB	026H
	DB	021H
	DB	06H
	DB	019H
	DB	06H
	DB	021H
	DB	026H
	DB	021H
	DB	06H
	DB	021H
	DB	026H
	DB	021H
	DB	026H
	DB	021H
	DB	06H
	DB	019H
	DB	06H
	DB	021H
	DB	06H
	DB	021H
	DB	026H
	DB	021H
	DB	026H
	DB	021H
	DB	026H
	DB	021H
	DB	06H
	DB	021H
	DB	06H
	DB	021H
	DB	026H
	DB	021H
	DB	06H
	DB	019H
	DB	026H
	DB	021H
	DB	06H
	DB	021H
	DB	026H
	DB	021H
	DB	06H
	DB	021H
	DB	06H
	DB	021H
	DB	06H
	DB	021H
	DB	05H
	DB	019H
	DB	06H
	DB	021H
	DB	06H
	DB	021H
	DB	026H
	DB	021H
	DB	026H
	DB	021H
	DB	026H
	DB	021H
	DB	026H
	DB	021H
	DB	026H
	DB	021H
	DB	026H
	DB	021H
	DB	026H
	DB	021H
	DB	06H
	DB	021H
	DB	026H
	DB	021H
	DB	026H
	DB	021H
	DB	06H
	DB	021H
	DB	06H
	DB	021H
	DB	06H
	DB	021H
	DB	026H
	DB	021H
	DB	06H
	DB	021H
	DB	026H
	DB	021H
	DB	026H
	DB	021H
	DB	026H
	DB	021H
	DB	06H
	DB	021H
	DB	026H
	DB	021H
	DB	027H
	DB	021H
	DB	026H
	DB	021H
	DB	06H
	DB	021H
	DB	06H
	DB	019H
	DB	06H
	DB	021H
	DB	06H
	DB	021H
	DB	026H
	DB	021H
	DB	06H
	DB	021H
	DB	06H
	DB	021H
	DB	026H
	DB	021H
	DB	026H
	DB	021H
	DB	026H
	DB	021H
	DB	026H
	DB	021H
	DB	026H
	DB	021H
	DB	026H
	DB	021H
	DB	026H
	DB	021H
	DB	026H
	DB	021H
	DB	026H
	DB	021H
	DB	026H
	DB	021H
	DB	06H
	DB	019H
	DB	06H
	DB	021H
	DB	06H
	DB	021H
	DB	06H
	DB	019H
	DB	026H
	DB	021H
	DB	06H
	DB	021H
	DB	026H
	DB	021H
	DB	026H
	DB	021H
	DB	026H
	DB	021H
	DB	026H
	DB	021H
	DB	026H
	DB	021H
	DB	026H
	DB	021H
	DB	06H
	DB	019H
	DB	06H
	DB	021H
	DB	06H
	DB	021H
	DB	06H
	DB	019H
	DB	026H
	DB	021H
	DB	026H
	DB	021H
	DB	026H
	DB	021H
	DB	026H
	DB	021H
	DB	06H
	DB	021H
	DB	06H
	DB	021H
	DB	06H
	DB	021H
	DB	026H
	DB	021H
	DB	06H
	DB	021H
	DB	06H
	DB	021H
	DB	06H
	DB	019H
	DB	06H
	DB	021H
	DB	06H
	DB	021H
	DB	06H
	DB	019H
	DB	026H
	DB	021H
	DB	026H
	DB	021H
	DB	06H
	DB	021H
	DB	026H
	DB	021H
	DB	026H
	DB	021H
	DB	06H
	DB	021H
	DB	026H
	DB	021H
	DB	026H
	DB	021H
	DB	06H
	DB	021H
	DB	06H
	DB	021H
	DB	06H
	DB	021H
	DB	06H
	DB	021H
	DB	06H
	DB	021H
	DB	06H
	DB	021H
	DB	026H
	DB	021H
	DB	026H
	DB	021H
	DB	06H
	DB	021H
	DB	026H
	DB	021H
	DB	026H
	DB	021H
	DB	026H
	DB	021H
	DB	026H
	DB	021H
	DB	026H
	DB	021H
	DB	026H
	DB	021H
	DB	026H
	DB	021H
	DB	026H
	DB	021H
	DB	06H
	DB	021H
	DB	026H
	DB	021H
	DB	026H
	DB	021H
	DB	027H
	DB	021H
	DB	026H
	DB	021H
	DB	027H
	DB	021H
	DB	026H
	DB	021H
	DB	06H
	DB	021H
	DB	06H
	DB	019H
	DB	026H
	DB	021H
	DB	06H
	DB	021H
	DB	06H
	DB	021H
	DB	05H
	DB	021H
	DB	06H
	DB	019H
	DB	06H
	DB	021H
	DB	026H
	DB	021H
	DB	026H
	DB	021H
	DB	06H
	DB	021H
	DB	026H
	DB	021H
	DB	026H
	DB	021H
	DB	026H
	DB	021H
	DB	026H
	DB	021H
	DB	026H
	DB	021H
	DB	026H
	DB	021H
	DB	06H
	DB	021H
	DB	026H
	DB	021H
	DB	06H
	DB	021H
	DB	06H
	DB	021H
	DB	026H
	DB	021H
	DB	026H
	DB	021H
	DB	026H
	DB	021H
	DB	06H
	DB	021H
	DB	026H
	DB	021H
	DB	026H
	DB	021H
	DB	06H
	DB	021H
	DB	06H
	DB	019H
	DB	06H
	DB	021H
	DB	026H
	DB	021H
	DB	026H
	DB	021H
	DB	026H
	DB	021H
	DB	06H
	DB	019H
	DB	026H
	DB	021H
	DB	026H
	DB	021H
	DB	026H
	DB	021H
	DB	026H
	DB	021H
	DB	027H
	DB	021H
	DB	026H
	DB	021H
	DB	06H
	DB	021H
	DB	026H
	DB	021H
	DB	026H
	DB	021H
	DB	026H
	DB	021H
	DB	06H
	DB	021H
	DB	026H
	DB	021H
	DB	026H
	DB	021H
	DB	06H
	DB	021H
	DB	026H
	DB	021H
	DB	06H
	DB	021H
	DB	026H
	DB	021H
	DB	026H
	DB	021H
	DB	06H
	DB	021H
	DB	06H
	DB	021H
	DB	026H
	DB	021H
	DB	027H
	DB	021H
	DB	026H
	DB	021H
	DB	026H
	DB	021H
	DB	06H
	DB	021H
	DB	026H
	DB	021H
	DB	06H
	DB	021H
	DB	06H
	DB	021H
	DB	06H
	DB	021H
	DB	06H
	DB	021H
	DB	026H
	DB	021H
	DB	026H
	DB	021H
	DB	047H
	DB	021H
	DB	026H
	DB	021H
	DB	06H
	DB	021H
	DB	026H
	DB	021H
	DB	06H
	DB	021H
	DB	026H
	DB	021H
	DB	026H
	DB	021H
	DB	026H
	DB	021H
	DB	026H
	DB	021H
	DB	026H
	DB	021H
	DB	026H
	DB	021H
	DB	026H
	DB	021H
	DB	026H
	DB	021H
	DB	026H
	DB	021H
	DB	06H
	DB	021H
	DB	047H
	DB	021H
	DB	026H
	DB	021H
	DB	06H
	DB	021H
	DB	06H
	DB	021H
	DB	046H
	DB	021H
	DB	026H
	DB	021H
	DB	026H
	DB	021H
	DB	026H
	DB	021H
	DB	026H
	DB	021H
	DB	026H
	DB	021H
	DB	06H
	DB	021H
	DB	026H
	DB	021H
	DB	06H
	DB	021H
	DB	06H
	DB	021H
	DB	06H
	DB	019H
	DB	06H
	DB	021H
	DB	026H
	DB	021H
	DB	026H
	DB	021H
	DB	026H
	DB	021H
	DB	026H
	DB	021H
	DB	026H
	DB	021H
	DB	06H
	DB	021H
	DB	026H
	DB	021H
	DB	026H
	DB	021H
	DB	026H
	DB	021H
	DB	026H
	DB	021H
	DB	026H
	DB	021H
	DB	026H
	DB	021H
	DB	027H
	DB	021H
	DB	06H
	DB	021H
	DB	026H
	DB	021H
	DB	026H
	DB	021H
	DB	026H
	DB	021H
	DB	06H
	DB	021H
	DB	06H
	DB	021H
	DB	026H
	DB	021H
	DB	026H
	DB	021H
	DB	026H
	DB	021H
	DB	06H
	DB	021H
	DB	06H
	DB	021H
	DB	026H
	DB	021H
	DB	06H
	DB	021H
	DB	026H
	DB	021H
	DB	026H
	DB	021H
	DB	06H
	DB	021H
	DB	06H
	DB	021H
	DB	026H
	DB	021H
	DB	026H
	DB	021H
	DB	06H
	DB	021H
	DB	026H
	DB	021H
	DB	047H
	DB	021H
	DB	026H
	DB	021H
	DB	026H
	DB	021H
	DB	026H
	DB	021H
	DB	026H
	DB	021H
	DB	026H
	DB	021H
	DB	026H
	DB	021H
	DB	026H
	DB	021H
	DB	026H
	DB	021H
	DB	026H
	DB	021H
	DB	026H
	DB	021H
	DB	06H
	DB	021H
	DB	026H
	DB	021H
	DB	026H
	DB	021H
	DB	026H
	DB	021H
	DB	026H
	DB	021H
	DB	06H
	DB	021H
	DB	026H
	DB	021H
	DB	026H
	DB	021H
	DB	027H
	DB	021H
	DB	06H
	DB	021H
	DB	026H
	DB	021H
	DB	026H
	DB	021H
	DB	027H
	DB	021H
	DB	026H
	DB	021H
	DB	06H
	DB	021H
	DB	026H
	DB	021H
	DB	026H
	DB	021H
	DB	06H
	DB	021H
	DB	06H
	DB	021H
	DB	026H
	DB	021H
	DB	06H
	DB	021H
	DB	026H
	DB	021H
	DB	06H
	DB	019H
	DB	026H
	DB	021H
	DB	026H
	DB	021H
	DB	026H
	DB	021H
	DB	026H
	DB	021H
	DB	06H
	DB	021H
	DB	026H
	DB	021H
	DB	026H
	DB	021H
	DB	06H
	DB	021H
	DB	06H
	DB	019H
	DB	026H
	DB	021H
	DB	026H
	DB	021H
	DB	026H
	DB	021H
	DB	026H
	DB	021H
	DB	06H
	DB	021H
	DB	047H
	DB	021H
	DB	06H
	DB	021H
	DB	026H
	DB	021H
	DB	06H
	DB	021H
	DB	026H
	DB	021H
	DB	026H
	DB	021H
	DB	026H
	DB	021H
	DB	026H
	DB	021H
	DB	026H
	DB	021H
	DB	026H
	DB	021H
	DB	026H
	DB	021H
	DB	06H
	DB	021H
	DB	06H
	DB	019H
	DB	06H
	DB	021H
	DB	026H
	DB	021H
	DB	06H
	DB	021H
	DB	06H
	DB	021H
	DB	026H
	DB	021H
	DB	026H
	DB	021H
	DB	026H
	DB	021H
	DB	026H
	DB	021H
	DB	06H
	DB	021H
	DB	026H
	DB	021H
	DB	026H
	DB	021H
	DB	027H
	DB	021H
	DB	06H
	DB	021H
	DB	026H
	DB	021H
	DB	026H
	DB	021H
	DB	026H
	DB	021H
	DB	026H
	DB	021H
	DB	06H
	DB	021H
	DB	026H
	DB	021H
	DB	06H
	DB	021H
	DB	06H
	DB	019H
	DB	06H
	DB	021H
	DB	026H
	DB	021H
	DB	06H
	DB	021H
	DB	06H
	DB	019H
	DB	026H
	DB	021H
	DB	026H
	DB	021H
	DB	026H
	DB	021H
	DB	06H
	DB	021H
	DB	026H
	DB	021H
	DB	026H
	DB	021H
	DB	06H
	DB	021H
	DB	06H
	DB	021H
	DB	026H
	DB	021H
	DB	026H
	DB	021H
	DB	026H
	DB	021H
	DB	06H
	DB	021H
	DB	026H
	DB	021H
	DB	026H
	DB	021H
	DB	06H
	DB	021H
	DB	026H
	DB	021H
	DB	06H
	DB	021H
	DB	026H
	DB	021H
	DB	026H
	DB	021H
	DB	06H
	DB	021H
	DB	026H
	DB	021H
	DB	026H
	DB	021H
	DB	06H
	DB	021H
	DB	06H
	DB	021H
	DB	06H
	DB	021H
	DB	06H
	DB	021H
	DB	06H
	DB	021H
	DB	06H
	DB	021H
	DB	06H
	DB	021H
	DB	026H
	DB	021H
	DB	06H
	DB	021H
	DB	026H
	DB	021H
	DB	06H
	DB	019H
	DB	06H
	DB	021H
	DB	026H
	DB	021H
	DB	026H
	DB	021H
	DB	06H
	DB	021H
	DB	026H
	DB	021H
	DB	06H
	DB	021H
	DB	026H
	DB	021H
	DB	026H
	DB	021H
	DB	06H
	DB	021H
	DB	026H
	DB	021H
	DB	026H
	DB	021H
	DB	06H
	DB	019H
	DB	026H
	DB	021H
	DB	026H
	DB	021H
	DB	06H
	DB	021H
	DB	06H
	DB	021H
	DB	06H
	DB	021H
	DB	06H
	DB	021H
	DB	027H
	DB	021H
	DB	026H
	DB	021H
	DB	06H
	DB	021H
	DB	06H
	DB	019H
	DB	026H
	DB	021H
	DB	06H
	DB	021H
	DB	026H
	DB	021H
	DB	026H
	DB	021H
	DB	06H
	DB	021H
	DB	06H
	DB	021H
	DB	06H
	DB	021H
	DB	05H
	DB	019H
	DB	026H
	DB	021H
	DB	026H
	DB	021H
	DB	06H
	DB	021H
	DB	06H
	DB	021H
	DB	026H
	DB	021H
	DB	026H
	DB	021H
	DB	06H
	DB	021H
	DB	06H
	DB	021H
	DB	026H
	DB	021H
	DB	06H
	DB	021H
	DB	06H
	DB	021H
	DB	026H
	DB	021H
	DB	026H
	DB	021H
	DB	026H
	DB	021H
	DB	026H
	DB	021H
	DB	06H
	DB	021H
	DB	026H
	DB	021H
	DB	026H
	DB	021H
	DB	026H
	DB	021H
	DB	026H
	DB	021H
	DB	06H
	DB	021H
	DB	026H
	DB	021H
	DB	026H
	DB	021H
	DB	06H
	DB	019H
	DB	06H
	DB	021H
	DB	06H
	DB	021H
	DB	026H
	DB	021H
	DB	06H
	DB	021H
	DB	026H
	DB	021H
	DB	026H
	DB	021H
	DB	06H
	DB	021H
	DB	06H
	DB	021H
	DB	06H
	DB	019H
	DB	026H
	DB	021H
	DB	026H
	DB	021H
	DB	06H
	DB	019H
	DB	06H
	DB	021H
	DB	026H
	DB	021H
	DB	06H
	DB	021H
	DB	026H
	DB	021H
	DB	06H
	DB	019H
	DB	026H
	DB	021H
	DB	06H
	DB	021H
	DB	026H
	DB	021H
	DB	026H
	DB	021H
	DB	026H
	DB	021H
	DB	026H
	DB	021H
	DB	06H
	DB	021H
	DB	026H
	DB	021H
	DB	06H
	DB	021H
	DB	06H
	DB	021H
	DB	06H
	DB	021H
	DB	026H
	DB	021H
	DB	06H
	DB	021H
	DB	026H
	DB	021H
	DB	026H
	DB	021H
	DB	026H
	DB	021H
	DB	06H
	DB	021H
	DB	06H
	DB	019H
	DB	06H
	DB	021H
	DB	06H
	DB	021H
	DB	06H
	DB	019H
	DB	06H
	DB	021H
	DB	026H
	DB	021H
	DB	06H
	DB	021H
	DB	06H
	DB	021H
	DB	06H
	DB	021H
	DB	026H
	DB	021H
	DB	06H
	DB	021H
	DB	026H
	DB	021H
	DB	026H
	DB	021H
	DB	06H
	DB	021H
	DB	06H
	DB	021H
	DB	026H
	DB	021H
	DB	06H
	DB	021H
	DB	026H
	DB	021H
	DB	06H
	DB	021H
	DB	06H
	DB	019H
	DB	06H
	DB	021H
	DB	06H
	DB	021H
	DB	026H
	DB	021H
	DB	026H
	DB	021H
	DB	026H
	DB	021H
	DB	026H
	DB	021H
	DB	06H
	DB	019H
	DB	06H
	DB	021H
	DB	06H
	DB	019H
	DB	06H
	DB	021H
	DB	026H
	DB	021H
	DB	06H
	DB	021H
	DB	06H
	DB	021H
	DB	06H
	DB	019H
	DB	06H
	DB	019H
	DB	026H
	DB	021H
	DB	026H
	DB	021H
	DB	026H
	DB	021H
	DB	026H
	DB	021H
	DB	026H
	DB	021H
	DB	06H
	DB	021H
	DB	026H
	DB	021H
	DB	06H
	DB	021H
	DB	06H
	DB	021H
	DB	026H
	DB	021H
	DB	06H
	DB	021H
	DB	026H
	DB	021H
	DB	026H
	DB	021H
	DB	06H
	DB	021H
	DB	06H
	DB	021H
	DB	026H
	DB	021H
	DB	06H
	DB	021H
	DB	05H
	DB	019H
	DB	06H
	DB	021H
	DB	06H
	DB	021H
	DB	026H
	DB	021H
	DB	06H
	DB	019H
	DB	026H
	DB	021H
	DB	026H
	DB	021H
	DB	06H
	DB	021H
	DB	06H
	DB	021H
	DB	026H
	DB	021H
	DB	026H
	DB	021H
	DB	06H
	DB	021H
	DB	026H
	DB	021H
	DB	027H
	DB	021H
	DB	026H
	DB	021H
	DB	027H
	DB	021H
	DB	026H
	DB	021H
	DB	026H
	DB	021H
	DB	06H
	DB	021H
	DB	06H
	DB	021H
	DB	026H
	DB	021H
	DB	026H
	DB	021H
	DB	06H
	DB	021H
	DB	026H
	DB	021H
	DB	026H
	DB	021H
	DB	06H
	DB	019H
	DB	026H
	DB	021H
	DB	06H
	DB	021H
	DB	06H
	DB	019H
	DB	06H
	DB	019H
	DB	05H
	DB	019H
	DB	026H
	DB	021H
	DB	026H
	DB	021H
	DB	06H
	DB	021H
	DB	026H
	DB	021H
	DB	026H
	DB	021H
	DB	06H
	DB	021H
	DB	06H
	DB	021H
	DB	026H
	DB	021H
	DB	026H
	DB	021H
	DB	06H
	DB	021H
	DB	026H
	DB	021H
	DB	06H
	DB	021H
	DB	06H
	DB	021H
	DB	026H
	DB	021H
	DB	026H
	DB	021H
	DB	06H
	DB	021H
	DB	06H
	DB	021H
	DB	06H
	DB	021H
	DB	026H
	DB	021H
	DB	026H
	DB	021H
	DB	026H
	DB	021H
	DB	06H
	DB	021H
	DB	06H
	DB	021H
	DB	026H
	DB	021H
	DB	026H
	DB	021H
	DB	06H
	DB	019H
	DB	026H
	DB	021H
	DB	026H
	DB	021H
	DB	026H
	DB	021H
	DB	06H
	DB	021H
	DB	027H
	DB	021H
	DB	06H
	DB	021H
	DB	06H
	DB	019H
	DB	026H
	DB	021H
	DB	06H
	DB	021H
	DB	06H
	DB	021H
	DB	026H
	DB	021H
	DB	06H
	DB	019H
	DB	06H
	DB	021H
	DB	06H
	DB	019H
	DB	06H
	DB	019H
	DB	026H
	DB	021H
	DB	026H
	DB	021H
	DB	06H
	DB	021H
	DB	06H
	DB	021H
	DB	026H
	DB	021H
	DB	026H
	DB	021H
	DB	027H
	DB	021H
	DB	026H
	DB	021H
	DB	026H
	DB	021H
	DB	026H
	DB	021H
	DB	06H
	DB	021H
	DB	06H
	DB	021H
	DB	026H
	DB	021H
	DB	026H
	DB	021H
	DB	026H
	DB	021H
	DB	027H
	DB	021H
	DB	026H
	DB	021H
	DB	026H
	DB	021H
	DB	026H
	DB	021H
	DB	026H
	DB	021H
	DB	06H
	DB	021H
	DB	026H
	DB	021H
	DB	026H
	DB	021H
	DB	06H
	DB	019H
	DB	06H
	DB	021H
	DB	046H
	DB	021H
	DB	026H
	DB	021H
	DB	06H
	DB	021H
	DB	06H
	DB	019H
	DB	026H
	DB	021H
	DB	026H
	DB	021H
	DB	026H
	DB	021H
	DB	06H
	DB	021H
	DB	06H
	DB	021H
	DB	06H
	DB	021H
	DB	026H
	DB	021H
	DB	027H
	DB	021H
	DB	026H
	DB	021H
	DB	026H
	DB	021H
	DB	06H
	DB	021H
	DB	027H
	DB	021H
	DB	026H
	DB	021H
	DB	026H
	DB	021H
	DB	06H
	DB	021H
	DB	06H
	DB	021H
	DB	06H
	DB	019H
	DB	06H
	DB	021H
	DB	026H
	DB	021H
	DB	026H
	DB	021H
	DB	06H
	DB	021H
	DB	026H
	DB	021H
	DB	026H
	DB	021H
	DB	026H
	DB	021H
	DB	06H
	DB	021H
	DB	026H
	DB	021H
	DB	026H
	DB	021H
	DB	06H
	DB	021H
	DB	026H
	DB	021H
	DB	047H
	DB	021H
	DB	06H
	DB	021H
	DB	026H
	DB	021H
	DB	06H
	DB	019H
	DB	026H
	DB	021H
	DB	026H
	DB	021H
	DB	026H
	DB	021H
	DB	026H
	DB	021H
	DB	06H
	DB	019H
	DB	026H
	DB	021H
	DB	027H
	DB	021H
	DB	026H
	DB	021H
	DB	026H
	DB	021H
	DB	06H
	DB	021H
	DB	06H
	DB	021H
	DB	026H
	DB	021H
	DB	026H
	DB	021H
	DB	026H
	DB	021H
	DB	027H
	DB	021H
	DB	026H
	DB	021H
	DB	06H
	DB	021H
	DB	026H
	DB	021H
	DB	026H
	DB	021H
	DB	026H
	DB	021H
	DB	026H
	DB	021H
	DB	026H
	DB	021H
	DB	06H
	DB	021H
	DB	026H
	DB	021H
	DB	026H
	DB	021H
	DB	026H
	DB	021H
	DB	026H
	DB	021H
	DB	026H
	DB	021H
	DB	026H
	DB	021H
	DB	026H
	DB	021H
	DB	06H
	DB	021H
	DB	026H
	DB	021H
	DB	027H
	DB	021H
	DB	026H
	DB	021H
	DB	026H
	DB	021H
	DB	06H
	DB	021H
	DB	026H
	DB	021H
	DB	026H
	DB	021H
	DB	026H
	DB	021H
	DB	027H
	DB	021H
	DB	026H
	DB	021H
	DB	027H
	DB	021H
	DB	047H
	DB	021H
	DB	027H
	DB	029H
	DB	026H
	DB	021H
	DB	06H
	DB	021H
	DB	06H
	DB	021H
	DB	026H
	DB	021H
	DB	06H
	DB	021H
	DB	06H
	DB	019H
	DB	026H
	DB	021H
	DB	026H
	DB	021H
	DB	06H
	DB	021H
	DB	06H
	DB	021H
	DB	026H
	DB	021H
	DB	027H
	DB	021H
	DB	027H
	DB	021H
	DB	047H
	DB	021H
	DB	026H
	DB	021H
	DB	06H
	DB	021H
	DB	06H
	DB	021H
	DB	026H
	DB	021H
	DB	06H
	DB	021H
	DB	026H
	DB	021H
	DB	06H
	DB	021H
	DB	026H
	DB	021H
	DB	047H
	DB	021H
	DB	06H
	DB	021H
	DB	06H
	DB	021H
	DB	027H
	DB	021H
	DB	026H
	DB	021H
	DB	06H
	DB	021H
	DB	026H
	DB	021H
	DB	026H
	DB	021H
	DB	06H
	DB	021H
	DB	06H
	DB	021H
	DB	06H
	DB	021H
	DB	026H
	DB	021H
	DB	026H
	DB	021H
	DB	06H
	DB	021H
	DB	06H
	DB	019H
	DB	026H
	DB	021H
	DB	026H
	DB	021H
	DB	026H
	DB	021H
	DB	027H
	DB	021H
	DB	026H
	DB	021H
	DB	026H
	DB	021H
	DB	026H
	DB	021H
	DB	026H
	DB	021H
	DB	06H
	DB	021H
	DB	06H
	DB	021H
	DB	06H
	DB	021H
	DB	027H
	DB	021H
	DB	06H
	DB	021H
	DB	026H
	DB	021H
	DB	027H
	DB	029H
	DB	06H
	DB	021H
	DB	026H
	DB	021H
	DB	026H
	DB	021H
	DB	06H
	DB	021H
	DB	026H
	DB	021H
	DB	027H
	DB	021H
	DB	026H
	DB	021H
	DB	06H
	DB	019H
	DB	06H
	DB	021H
	DB	026H
	DB	021H
	DB	047H
	DB	021H
	DB	026H
	DB	021H
	DB	06H
	DB	021H
	DB	026H
	DB	021H
	DB	047H
	DB	021H
	DB	06H
	DB	021H
	DB	026H
	DB	021H
	DB	026H
	DB	021H
	DB	027H
	DB	021H
	DB	026H
	DB	021H
	DB	026H
	DB	021H
	DB	06H
	DB	021H
	DB	026H
	DB	021H
	DB	06H
	DB	021H
	DB	06H
	DB	019H
	DB	06H
	DB	021H
	DB	026H
	DB	021H
	DB	026H
	DB	021H
	DB	06H
	DB	021H
	DB	06H
	DB	021H
	DB	026H
	DB	021H
	DB	026H
	DB	021H
	DB	026H
	DB	021H
	DB	026H
	DB	021H
	DB	06H
	DB	021H
	DB	06H
	DB	021H
	DB	06H
	DB	021H
	DB	06H
	DB	021H
	DB	06H
	DB	021H
	DB	047H
	DB	029H
	DB	026H
	DB	021H
	DB	027H
	DB	021H
	DB	026H
	DB	021H
	DB	06H
	DB	021H
	DB	027H
	DB	021H
	DB	06H
	DB	021H
	DB	026H
	DB	021H
	DB	06H
	DB	021H
	DB	06H
	DB	021H
	DB	026H
	DB	021H
	DB	06H
	DB	021H
	DB	06H
	DB	021H
	DB	026H
	DB	021H
	DB	06H
	DB	021H
	DB	026H
	DB	021H
	DB	026H
	DB	021H
	DB	026H
	DB	021H
	DB	06H
	DB	021H
	DB	06H
	DB	021H
	DB	06H
	DB	021H
	DB	026H
	DB	021H
	DB	026H
	DB	021H
	DB	026H
	DB	021H
	DB	026H
	DB	021H
	DB	026H
	DB	021H
	DB	026H
	DB	021H
	DB	026H
	DB	021H
	DB	026H
	DB	021H
	DB	06H
	DB	021H
	DB	026H
	DB	021H
	DB	026H
	DB	021H
	DB	026H
	DB	021H
	DB	026H
	DB	021H
	DB	026H
	DB	021H
	DB	026H
	DB	021H
	DB	06H
	DB	021H
	DB	06H
	DB	021H
	DB	026H
	DB	021H
	DB	06H
	DB	021H
	DB	026H
	DB	021H
	DB	026H
	DB	021H
	DB	027H
	DB	021H
	DB	06H
	DB	021H
	DB	06H
	DB	021H
	DB	026H
	DB	021H
	DB	06H
	DB	021H
	DB	047H
	DB	029H
	DB	047H
	DB	021H
	DB	06H
	DB	021H
	DB	026H
	DB	021H
	DB	06H
	DB	021H
	DB	026H
	DB	021H
	DB	026H
	DB	021H
	DB	026H
	DB	021H
	DB	026H
	DB	021H
	DB	06H
	DB	021H
	DB	026H
	DB	021H
	DB	047H
	DB	021H
	DB	026H
	DB	021H
	DB	026H
	DB	021H
	DB	06H
	DB	021H
	DB	026H
	DB	021H
	DB	026H
	DB	021H
	DB	06H
	DB	021H
	DB	06H
	DB	021H
	DB	06H
	DB	021H
	DB	026H
	DB	021H
	DB	026H
	DB	021H
	DB	06H
	DB	019H
	DB	06H
	DB	021H
	DB	026H
	DB	021H
	DB	06H
	DB	021H
	DB	06H
	DB	021H
	DB	026H
	DB	021H
	DB	026H
	DB	021H
	DB	06H
	DB	021H
	DB	026H
	DB	021H
	DB	026H
	DB	021H
	DB	06H
	DB	021H
	DB	026H
	DB	021H
	DB	06H
	DB	021H
	DB	026H
	DB	021H
	DB	026H
	DB	021H
	DB	06H
	DB	021H
	DB	06H
	DB	021H
	DB	026H
	DB	021H
	DB	06H
	DB	021H
	DB	026H
	DB	021H
	DB	026H
	DB	021H
	DB	06H
	DB	021H
	DB	06H
	DB	021H
	DB	026H
	DB	021H
	DB	026H
	DB	021H
	DB	06H
	DB	021H
	DB	05H
	DB	019H
	DB	06H
	DB	021H
	DB	026H
	DB	021H
	DB	026H
	DB	021H
	DB	06H
	DB	021H
	DB	026H
	DB	021H
	DB	06H
	DB	021H
	DB	06H
	DB	021H
	DB	06H
	DB	021H
	DB	026H
	DB	021H
	DB	026H
	DB	021H
	DB	06H
	DB	021H
	DB	06H
	DB	019H
	DB	06H
	DB	019H
	DB	06H
	DB	021H
	DB	026H
	DB	021H
	DB	027H
	DB	021H
	DB	06H
	DB	021H
	DB	026H
	DB	021H
	DB	026H
	DB	021H
	DB	026H
	DB	021H
	DB	026H
	DB	021H
	DB	026H
	DB	021H
	DB	06H
	DB	021H
	DB	06H
	DB	021H
	DB	026H
	DB	021H
	DB	026H
	DB	021H
	DB	026H
	DB	021H
	DB	026H
	DB	021H
	DB	06H
	DB	021H
	DB	026H
	DB	021H
	DB	026H
	DB	021H
	DB	06H
	DB	021H
	DB	06H
	DB	019H
	DB	06H
	DB	021H
	DB	026H
	DB	021H
	DB	026H
	DB	021H
	DB	026H
	DB	021H
	DB	06H
	DB	021H
	DB	06H
	DB	021H
	DB	06H
	DB	021H
	DB	06H
	DB	021H
	DB	06H
	DB	019H
	DB	026H
	DB	021H
	DB	026H
	DB	021H
	DB	06H
	DB	021H
	DB	026H
	DB	021H
	DB	06H
	DB	021H
	DB	026H
	DB	021H
	DB	026H
	DB	021H
	DB	026H
	DB	021H
	DB	06H
	DB	021H
	DB	026H
	DB	021H
	DB	06H
	DB	021H
	DB	026H
	DB	021H
	DB	06H
	DB	019H
	DB	06H
	DB	021H
	DB	026H
	DB	021H
	DB	06H
	DB	019H
	DB	06H
	DB	021H
	DB	06H
	DB	021H
	DB	06H
	DB	021H
	DB	06H
	DB	021H
	DB	06H
	DB	021H
	DB	06H
	DB	021H
	DB	06H
	DB	021H
	DB	026H
	DB	021H
	DB	06H
	DB	021H
	DB	06H
	DB	019H
	DB	026H
	DB	021H
	DB	06H
	DB	019H
	DB	06H
	DB	021H
	DB	026H
	DB	021H
	DB	06H
	DB	021H
	DB	026H
	DB	021H
	DB	06H
	DB	019H
	DB	047H
	DB	021H
	DB	06H
	DB	021H
	DB	06H
	DB	021H
	DB	06H
	DB	021H
	DB	06H
	DB	021H
	DB	06H
	DB	019H
	DB	06H
	DB	021H
	DB	06H
	DB	019H
	DB	06H
	DB	021H
	DB	026H
	DB	021H
	DB	06H
	DB	019H
	DB	026H
	DB	021H
	DB	026H
	DB	021H
	DB	026H
	DB	021H
	DB	027H
	DB	021H
	DB	06H
	DB	021H
	DB	026H
	DB	021H
	DB	026H
	DB	021H
	DB	026H
	DB	021H
	DB	026H
	DB	021H
	DB	06H
	DB	021H
	DB	026H
	DB	021H
	DB	026H
	DB	021H
	DB	026H
	DB	021H
	DB	06H
	DB	021H
	DB	026H
	DB	021H
	DB	06H
	DB	019H
	DB	06H
	DB	021H
	DB	026H
	DB	021H
	DB	026H
	DB	021H
	DB	06H
	DB	019H
	DB	026H
	DB	021H
	DB	026H
	DB	021H
	DB	06H
	DB	021H
	DB	06H
	DB	019H
	DB	026H
	DB	021H
	DB	026H
	DB	021H
	DB	026H
	DB	021H
	DB	06H
	DB	021H
	DB	06H
	DB	021H
	DB	026H
	DB	021H
	DB	026H
	DB	021H
	DB	06H
	DB	019H
	DB	026H
	DB	021H
	DB	026H
	DB	021H
	DB	026H
	DB	021H
	DB	026H
	DB	021H
	DB	026H
	DB	021H
	DB	06H
	DB	021H
	DB	026H
	DB	021H
	DB	06H
	DB	021H
	DB	026H
	DB	021H
	DB	026H
	DB	021H
	DB	027H
	DB	021H
	DB	026H
	DB	021H
	DB	026H
	DB	021H
	DB	026H
	DB	021H
	DB	026H
	DB	021H
	DB	06H
	DB	021H
	DB	026H
	DB	021H
	DB	026H
	DB	021H
	DB	06H
	DB	021H
	DB	026H
	DB	021H
	DB	026H
	DB	021H
	DB	06H
	DB	019H
	DB	06H
	DB	021H
	DB	06H
	DB	021H
	DB	026H
	DB	021H
	DB	06H
	DB	021H
	DB	026H
	DB	021H
	DB	026H
	DB	021H
	DB	026H
	DB	021H
	DB	06H
	DB	021H
	DB	026H
	DB	021H
	DB	026H
	DB	021H
	DB	06H
	DB	019H
	DB	026H
	DB	021H
	DB	026H
	DB	021H
	DB	027H
	DB	021H
	DB	06H
	DB	021H
	DB	06H
	DB	021H
	DB	026H
	DB	021H
	DB	026H
	DB	021H
	DB	06H
	DB	019H
	DB	06H
	DB	019H
	DB	026H
	DB	021H
	DB	026H
	DB	021H
	DB	06H
	DB	021H
	DB	026H
	DB	021H
	DB	026H
	DB	021H
	DB	026H
	DB	021H
	DB	06H
	DB	021H
	DB	06H
	DB	019H
	DB	06H
	DB	019H
	DB	026H
	DB	021H
	DB	06H
	DB	021H
	DB	026H
	DB	021H
	DB	027H
	DB	021H
	DB	06H
	DB	021H
	DB	06H
	DB	021H
	DB	06H
	DB	021H
	DB	06H
	DB	021H
	DB	06H
	DB	021H
	DB	026H
	DB	021H
	DB	06H
	DB	021H
	DB	06H
	DB	019H
	DB	06H
	DB	021H
	DB	026H
	DB	021H
	DB	06H
	DB	019H
	DB	026H
	DB	021H
	DB	026H
	DB	021H
	DB	026H
	DB	021H
	DB	06H
	DB	021H
	DB	06H
	DB	019H
	DB	026H
	DB	021H
	DB	06H
	DB	019H
	DB	026H
	DB	021H
	DB	026H
	DB	021H
	DB	027H
	DB	021H
	DB	06H
	DB	021H
	DB	026H
	DB	021H
	DB	026H
	DB	021H
	DB	06H
	DB	019H
	DB	026H
	DB	021H
	DB	026H
	DB	021H
	DB	026H
	DB	021H
	DB	027H
	DB	021H
	DB	026H
	DB	021H
	DB	026H
	DB	021H
	DB	026H
	DB	021H
	DB	026H
	DB	021H
	DB	026H
	DB	021H
	DB	06H
	DB	021H
	DB	06H
	DB	021H
	DB	06H
	DB	019H
	DB	06H
	DB	021H
	DB	026H
	DB	021H
	DB	026H
	DB	021H
	DB	026H
	DB	021H
	DB	027H
	DB	021H
	DB	026H
	DB	021H
	DB	026H
	DB	021H
	DB	06H
	DB	021H
	DB	06H
	DB	021H
	DB	06H
	DB	021H
	DB	026H
	DB	021H
	DB	06H
	DB	021H
	DB	026H
	DB	021H
	DB	026H
	DB	021H
	DB	026H
	DB	021H
	DB	026H
	DB	021H
	DB	027H
	DB	021H
	DB	026H
	DB	021H
	DB	026H
	DB	021H
	DB	06H
	DB	021H
	DB	026H
	DB	021H
	DB	026H
	DB	021H
	DB	026H
	DB	021H
	DB	026H
	DB	021H
	DB	026H
	DB	021H
	DB	027H
	DB	021H
	DB	026H
	DB	021H
	DB	047H
	DB	021H
	DB	06H
	DB	021H
	DB	06H
	DB	021H
	DB	06H
	DB	021H
	DB	027H
	DB	021H
	DB	06H
	DB	021H
	DB	06H
	DB	021H
	DB	026H
	DB	021H
	DB	046H
	DB	021H
	DB	06H
	DB	021H
	DB	026H
	DB	021H
	DB	06H
	DB	021H
	DB	06H
	DB	021H
	DB	026H
	DB	021H
	DB	027H
	DB	021H
	DB	06H
	DB	021H
	DB	06H
	DB	021H
	DB	047H
	DB	021H
	DB	026H
	DB	021H
	DB	06H
	DB	021H
	DB	026H
	DB	021H
	DB	026H
	DB	021H
	DB	06H
	DB	021H
	DB	026H
	DB	021H
	DB	047H
	DB	021H
	DB	026H
	DB	021H
	DB	026H
	DB	021H
	DB	026H
	DB	021H
	DB	06H
	DB	021H
	DB	06H
	DB	021H
	DB	06H
	DB	019H
	DB	026H
	DB	021H
	DB	026H
	DB	021H
	DB	06H
	DB	021H
	DB	06H
	DB	021H
	DB	026H
	DB	021H
	DB	06H
	DB	021H
	DB	026H
	DB	021H
	DB	027H
	DB	021H
	DB	026H
	DB	021H
	DB	026H
	DB	021H
	DB	027H
	DB	021H
	DB	027H
	DB	021H
	DB	026H
	DB	021H
	DB	026H
	DB	021H
	DB	027H
	DB	021H
	DB	027H
	DB	021H
	DB	026H
	DB	021H
	DB	06H
	DB	021H
	DB	047H
	DB	021H
	DB	026H
	DB	021H
	DB	026H
	DB	021H
	DB	06H
	DB	021H
	DB	06H
	DB	021H
	DB	06H
	DB	021H
	DB	026H
	DB	021H
	DB	026H
	DB	021H
	DB	06H
	DB	021H
	DB	026H
	DB	021H
	DB	047H
	DB	021H
	DB	026H
	DB	021H
	DB	06H
	DB	021H
	DB	026H
	DB	021H
	DB	026H
	DB	021H
	DB	06H
	DB	021H
	DB	026H
	DB	021H
	DB	026H
	DB	021H
	DB	047H
	DB	029H
	DB	026H
	DB	021H
	DB	06H
	DB	021H
	DB	06H
	DB	021H
	DB	026H
	DB	021H
	DB	026H
	DB	021H
	DB	06H
	DB	021H
	DB	027H
	DB	021H
	DB	06H
	DB	021H
	DB	06H
	DB	021H
	DB	026H
	DB	021H
	DB	026H
	DB	021H
	DB	06H
	DB	021H
	DB	06H
	DB	021H
	DB	047H
	DB	021H
	DB	026H
	DB	021H
	DB	026H
	DB	021H
	DB	06H
	DB	021H
	DB	026H
	DB	021H
	DB	047H
	DB	021H
	DB	06H
	DB	021H
	DB	026H
	DB	021H
	DB	026H
	DB	021H
	DB	027H
	DB	021H
	DB	026H
	DB	021H
	DB	027H
	DB	021H
	DB	027H
	DB	021H
	DB	026H
	DB	021H
	DB	026H
	DB	021H
	DB	027H
	DB	021H
	DB	026H
	DB	021H
	DB	06H
	DB	021H
	DB	026H
	DB	021H
	DB	026H
	DB	021H
	DB	06H
	DB	021H
	DB	026H
	DB	021H
	DB	026H
	DB	021H
	DB	027H
	DB	021H
	DB	026H
	DB	021H
	DB	026H
	DB	021H
	DB	026H
	DB	021H
	DB	06H
	DB	021H
	DB	026H
	DB	021H
	DB	027H
	DB	021H
	DB	026H
	DB	021H
	DB	06H
	DB	021H
	DB	06H
	DB	021H
	DB	06H
	DB	019H
	DB	026H
	DB	021H
	DB	026H
	DB	021H
	DB	026H
	DB	021H
	DB	06H
	DB	021H
	DB	026H
	DB	021H
	DB	06H
	DB	021H
	DB	026H
	DB	021H
	DB	027H
	DB	029H
	DB	06H
	DB	021H
	DB	06H
	DB	021H
	DB	047H
	DB	021H
	DB	06H
	DB	021H
	DB	026H
	DB	021H
	DB	026H
	DB	021H
	DB	06H
	DB	019H
	DB	06H
	DB	021H
	DB	06H
	DB	021H
	DB	026H
	DB	021H
	DB	06H
	DB	021H
	DB	026H
	DB	021H
	DB	027H
	DB	021H
	DB	027H
	DB	021H
	DB	026H
	DB	021H
	DB	026H
	DB	021H
	DB	026H
	DB	021H
	DB	06H
	DB	021H
	DB	06H
	DB	021H
	DB	06H
	DB	021H
	DB	06H
	DB	019H
	DB	026H
	DB	021H
	DB	06H
	DB	019H
	DB	06H
	DB	021H
	DB	026H
	DB	021H
	DB	06H
	DB	021H
	DB	06H
	DB	021H
	DB	06H
	DB	021H
	DB	06H
	DB	021H
	DB	026H
	DB	021H
	DB	026H
	DB	021H
	DB	026H
	DB	021H
	DB	06H
	DB	021H
	DB	026H
	DB	021H
	DB	026H
	DB	021H
	DB	06H
	DB	019H
	DB	026H
	DB	021H
	DB	026H
	DB	021H
	DB	026H
	DB	021H
	DB	06H
	DB	021H
	DB	026H
	DB	021H
